
kernel/src/kernel32.elf:     file format elf32-i386


Disassembly of section .text:

c0102000 <print_logo>:
c0102000:	55                   	push   %ebp
c0102001:	89 e5                	mov    %esp,%ebp
c0102003:	83 ec 38             	sub    $0x38,%esp
c0102006:	8b 45 08             	mov    0x8(%ebp),%eax
c0102009:	88 45 e4             	mov    %al,-0x1c(%ebp)
c010200c:	e8 48 3f 00 00       	call   c0105f59 <get_color>
c0102011:	88 45 f7             	mov    %al,-0x9(%ebp)
c0102014:	0f b6 45 e4          	movzbl -0x1c(%ebp),%eax
c0102018:	89 04 24             	mov    %eax,(%esp)
c010201b:	e8 22 3f 00 00       	call   c0105f42 <set_color>
c0102020:	a1 00 f0 10 c0       	mov    0xc010f000,%eax
c0102025:	89 04 24             	mov    %eax,(%esp)
c0102028:	e8 3a 3e 00 00       	call   c0105e67 <puts>
c010202d:	0f b6 45 f7          	movzbl -0x9(%ebp),%eax
c0102031:	89 04 24             	mov    %eax,(%esp)
c0102034:	e8 09 3f 00 00       	call   c0105f42 <set_color>
c0102039:	c9                   	leave  
c010203a:	c3                   	ret    

c010203b <init>:
c010203b:	55                   	push   %ebp
c010203c:	89 e5                	mov    %esp,%ebp
c010203e:	83 ec 38             	sub    $0x38,%esp
c0102041:	e8 98 3e 00 00       	call   c0105ede <clear_screen>
c0102046:	81 7d 0c 02 b0 ad 2b 	cmpl   $0x2badb002,0xc(%ebp)
c010204d:	74 0c                	je     c010205b <init+0x20>
c010204f:	c7 04 24 a1 b5 10 c0 	movl   $0xc010b5a1,(%esp)
c0102056:	e8 25 06 00 00       	call   c0102680 <panic>
c010205b:	c7 04 24 0f 00 00 00 	movl   $0xf,(%esp)
c0102062:	e8 db 3e 00 00       	call   c0105f42 <set_color>
c0102067:	8b 45 08             	mov    0x8(%ebp),%eax
c010206a:	89 04 24             	mov    %eax,(%esp)
c010206d:	e8 de 81 00 00       	call   c010a250 <INIT_PMM>
c0102072:	e8 ad 1c 00 00       	call   c0103d24 <INIT_GDT>
c0102077:	e8 51 6a 00 00       	call   c0108acd <INIT_IDT>
c010207c:	8b 45 08             	mov    0x8(%ebp),%eax
c010207f:	89 04 24             	mov    %eax,(%esp)
c0102082:	e8 f9 09 00 00       	call   c0102a80 <INIT_PAGING>
c0102087:	e8 c4 36 00 00       	call   c0105750 <INIT_HEAP>
c010208c:	c7 04 24 32 00 00 00 	movl   $0x32,(%esp)
c0102093:	e8 ad 51 00 00       	call   c0107245 <INIT_PIT>
c0102098:	e8 5b 3a 00 00       	call   c0105af8 <INIT_CMOS>
c010209d:	e8 34 42 00 00       	call   c01062d6 <INIT_KEYBOARD>
c01020a2:	e8 15 59 00 00       	call   c01079bc <INIT_SCHEDULER>
c01020a7:	e8 cc 25 00 00       	call   c0104678 <INIT_VFS>
c01020ac:	fb                   	sti    
c01020ad:	c7 04 24 0e 00 00 00 	movl   $0xe,(%esp)
c01020b4:	e8 47 ff ff ff       	call   c0102000 <print_logo>
c01020b9:	c7 04 24 b9 b5 10 c0 	movl   $0xc010b5b9,(%esp)
c01020c0:	e8 a2 3d 00 00       	call   c0105e67 <puts>
c01020c5:	e8 ca 7c 00 00       	call   c0109d94 <pmm_count_free_pages>
c01020ca:	89 45 f0             	mov    %eax,-0x10(%ebp)
c01020cd:	8b 45 f0             	mov    -0x10(%ebp),%eax
c01020d0:	c1 e8 08             	shr    $0x8,%eax
c01020d3:	89 44 24 08          	mov    %eax,0x8(%esp)
c01020d7:	8b 45 f0             	mov    -0x10(%ebp),%eax
c01020da:	89 44 24 04          	mov    %eax,0x4(%esp)
c01020de:	c7 04 24 d8 b5 10 c0 	movl   $0xc010b5d8,(%esp)
c01020e5:	e8 6a 31 00 00       	call   c0105254 <printf>
c01020ea:	e8 52 55 00 00       	call   c0107641 <get_time>
c01020ef:	89 04 24             	mov    %eax,(%esp)
c01020f2:	e8 54 55 00 00       	call   c010764b <print_time>
c01020f7:	c7 04 24 0a 00 00 00 	movl   $0xa,(%esp)
c01020fe:	e8 05 3c 00 00       	call   c0105d08 <putchar>
c0102103:	e8 20 23 00 00       	call   c0104428 <INIT_CPUID>
c0102108:	c7 04 24 0a 00 00 00 	movl   $0xa,(%esp)
c010210f:	e8 f4 3b 00 00       	call   c0105d08 <putchar>
c0102114:	e8 f4 4a 00 00       	call   c0106c0d <INIT_PCI>
c0102119:	8b 45 08             	mov    0x8(%ebp),%eax
c010211c:	8b 40 18             	mov    0x18(%eax),%eax
c010211f:	89 45 ec             	mov    %eax,-0x14(%ebp)
c0102122:	c7 45 f4 00 00 00 00 	movl   $0x0,-0xc(%ebp)
c0102129:	eb 70                	jmp    c010219b <init+0x160>
c010212b:	8b 45 f4             	mov    -0xc(%ebp),%eax
c010212e:	c1 e0 04             	shl    $0x4,%eax
c0102131:	03 45 ec             	add    -0x14(%ebp),%eax
c0102134:	8b 50 04             	mov    0x4(%eax),%edx
c0102137:	8b 45 f4             	mov    -0xc(%ebp),%eax
c010213a:	c1 e0 04             	shl    $0x4,%eax
c010213d:	03 45 ec             	add    -0x14(%ebp),%eax
c0102140:	8b 00                	mov    (%eax),%eax
c0102142:	89 d1                	mov    %edx,%ecx
c0102144:	29 c1                	sub    %eax,%ecx
c0102146:	89 c8                	mov    %ecx,%eax
c0102148:	89 45 e8             	mov    %eax,-0x18(%ebp)
c010214b:	8b 45 e8             	mov    -0x18(%ebp),%eax
c010214e:	05 ff 0f 00 00       	add    $0xfff,%eax
c0102153:	25 00 f0 ff ff       	and    $0xfffff000,%eax
c0102158:	c1 e8 0c             	shr    $0xc,%eax
c010215b:	89 45 e4             	mov    %eax,-0x1c(%ebp)
c010215e:	8b 4d e4             	mov    -0x1c(%ebp),%ecx
c0102161:	8b 45 f4             	mov    -0xc(%ebp),%eax
c0102164:	c1 e0 04             	shl    $0x4,%eax
c0102167:	03 45 ec             	add    -0x14(%ebp),%eax
c010216a:	8b 10                	mov    (%eax),%edx
c010216c:	a1 00 10 11 c0       	mov    0xc0111000,%eax
c0102171:	c7 44 24 0c 02 00 00 	movl   $0x2,0xc(%esp)
c0102178:	00 
c0102179:	89 4c 24 08          	mov    %ecx,0x8(%esp)
c010217d:	89 54 24 04          	mov    %edx,0x4(%esp)
c0102181:	89 04 24             	mov    %eax,(%esp)
c0102184:	e8 c1 0a 00 00       	call   c0102c4a <vmm_automap_kernel_range>
c0102189:	89 45 e0             	mov    %eax,-0x20(%ebp)
c010218c:	8b 45 e0             	mov    -0x20(%ebp),%eax
c010218f:	89 04 24             	mov    %eax,(%esp)
c0102192:	e8 89 55 00 00       	call   c0107720 <load_elf>
c0102197:	83 45 f4 01          	addl   $0x1,-0xc(%ebp)
c010219b:	8b 55 f4             	mov    -0xc(%ebp),%edx
c010219e:	8b 45 08             	mov    0x8(%ebp),%eax
c01021a1:	8b 40 14             	mov    0x14(%eax),%eax
c01021a4:	39 c2                	cmp    %eax,%edx
c01021a6:	72 83                	jb     c010212b <init+0xf0>
c01021a8:	b8 00 00 00 00       	mov    $0x0,%eax
c01021ad:	c9                   	leave  
c01021ae:	c3                   	ret    
	...

c01021b0 <exp>:
c01021b0:	55                   	push   %ebp
c01021b1:	89 e5                	mov    %esp,%ebp
c01021b3:	83 ec 48             	sub    $0x48,%esp
c01021b6:	8b 45 08             	mov    0x8(%ebp),%eax
c01021b9:	89 45 e0             	mov    %eax,-0x20(%ebp)
c01021bc:	8b 45 0c             	mov    0xc(%ebp),%eax
c01021bf:	89 45 e4             	mov    %eax,-0x1c(%ebp)
c01021c2:	d9 ee                	fldz   
c01021c4:	dd 5d f0             	fstpl  -0x10(%ebp)
c01021c7:	c7 45 ec 00 00 00 00 	movl   $0x0,-0x14(%ebp)
c01021ce:	eb 4e                	jmp    c010221e <exp+0x6e>
c01021d0:	dd 45 e0             	fldl   -0x20(%ebp)
c01021d3:	d9 7d de             	fnstcw -0x22(%ebp)
c01021d6:	0f b7 45 de          	movzwl -0x22(%ebp),%eax
c01021da:	b4 0c                	mov    $0xc,%ah
c01021dc:	66 89 45 dc          	mov    %ax,-0x24(%ebp)
c01021e0:	d9 6d dc             	fldcw  -0x24(%ebp)
c01021e3:	db 5d d8             	fistpl -0x28(%ebp)
c01021e6:	d9 6d de             	fldcw  -0x22(%ebp)
c01021e9:	8b 45 d8             	mov    -0x28(%ebp),%eax
c01021ec:	8b 55 ec             	mov    -0x14(%ebp),%edx
c01021ef:	89 54 24 04          	mov    %edx,0x4(%esp)
c01021f3:	89 04 24             	mov    %eax,(%esp)
c01021f6:	e8 3a 02 00 00       	call   c0102435 <powi>
c01021fb:	89 45 d8             	mov    %eax,-0x28(%ebp)
c01021fe:	db 45 d8             	fildl  -0x28(%ebp)
c0102201:	dd 5d d0             	fstpl  -0x30(%ebp)
c0102204:	8b 45 ec             	mov    -0x14(%ebp),%eax
c0102207:	89 04 24             	mov    %eax,(%esp)
c010220a:	e8 68 02 00 00       	call   c0102477 <factorial>
c010220f:	dc 7d d0             	fdivrl -0x30(%ebp)
c0102212:	dd 45 f0             	fldl   -0x10(%ebp)
c0102215:	de c1                	faddp  %st,%st(1)
c0102217:	dd 5d f0             	fstpl  -0x10(%ebp)
c010221a:	83 45 ec 01          	addl   $0x1,-0x14(%ebp)
c010221e:	81 7d ec 95 00 00 00 	cmpl   $0x95,-0x14(%ebp)
c0102225:	7e a9                	jle    c01021d0 <exp+0x20>
c0102227:	dd 45 f0             	fldl   -0x10(%ebp)
c010222a:	c9                   	leave  
c010222b:	c3                   	ret    

c010222c <ln>:
c010222c:	55                   	push   %ebp
c010222d:	89 e5                	mov    %esp,%ebp
c010222f:	83 ec 58             	sub    $0x58,%esp
c0102232:	8b 45 08             	mov    0x8(%ebp),%eax
c0102235:	89 45 d0             	mov    %eax,-0x30(%ebp)
c0102238:	8b 45 0c             	mov    0xc(%ebp),%eax
c010223b:	89 45 d4             	mov    %eax,-0x2c(%ebp)
c010223e:	dd 45 d0             	fldl   -0x30(%ebp)
c0102241:	d9 e8                	fld1   
c0102243:	de e9                	fsubrp %st,%st(1)
c0102245:	dd 45 d0             	fldl   -0x30(%ebp)
c0102248:	d9 e8                	fld1   
c010224a:	de c1                	faddp  %st,%st(1)
c010224c:	de f9                	fdivrp %st,%st(1)
c010224e:	dd 5d e0             	fstpl  -0x20(%ebp)
c0102251:	d9 ee                	fldz   
c0102253:	dd 5d f0             	fstpl  -0x10(%ebp)
c0102256:	c7 45 ec 00 00 00 00 	movl   $0x0,-0x14(%ebp)
c010225d:	eb 55                	jmp    c01022b4 <ln+0x88>
c010225f:	8b 45 ec             	mov    -0x14(%ebp),%eax
c0102262:	01 c0                	add    %eax,%eax
c0102264:	8d 50 01             	lea    0x1(%eax),%edx
c0102267:	dd 45 e0             	fldl   -0x20(%ebp)
c010226a:	d9 7d ce             	fnstcw -0x32(%ebp)
c010226d:	0f b7 45 ce          	movzwl -0x32(%ebp),%eax
c0102271:	b4 0c                	mov    $0xc,%ah
c0102273:	66 89 45 cc          	mov    %ax,-0x34(%ebp)
c0102277:	d9 6d cc             	fldcw  -0x34(%ebp)
c010227a:	db 5d c8             	fistpl -0x38(%ebp)
c010227d:	d9 6d ce             	fldcw  -0x32(%ebp)
c0102280:	8b 45 c8             	mov    -0x38(%ebp),%eax
c0102283:	89 54 24 04          	mov    %edx,0x4(%esp)
c0102287:	89 04 24             	mov    %eax,(%esp)
c010228a:	e8 a6 01 00 00       	call   c0102435 <powi>
c010228f:	8b 55 ec             	mov    -0x14(%ebp),%edx
c0102292:	01 d2                	add    %edx,%edx
c0102294:	83 c2 01             	add    $0x1,%edx
c0102297:	89 55 c4             	mov    %edx,-0x3c(%ebp)
c010229a:	89 c2                	mov    %eax,%edx
c010229c:	c1 fa 1f             	sar    $0x1f,%edx
c010229f:	f7 7d c4             	idivl  -0x3c(%ebp)
c01022a2:	89 45 c8             	mov    %eax,-0x38(%ebp)
c01022a5:	db 45 c8             	fildl  -0x38(%ebp)
c01022a8:	dd 45 f0             	fldl   -0x10(%ebp)
c01022ab:	de c1                	faddp  %st,%st(1)
c01022ad:	dd 5d f0             	fstpl  -0x10(%ebp)
c01022b0:	83 45 ec 01          	addl   $0x1,-0x14(%ebp)
c01022b4:	81 7d ec 95 00 00 00 	cmpl   $0x95,-0x14(%ebp)
c01022bb:	7e a2                	jle    c010225f <ln+0x33>
c01022bd:	dd 45 f0             	fldl   -0x10(%ebp)
c01022c0:	d8 c0                	fadd   %st(0),%st
c01022c2:	c9                   	leave  
c01022c3:	c3                   	ret    

c01022c4 <pow>:
c01022c4:	55                   	push   %ebp
c01022c5:	89 e5                	mov    %esp,%ebp
c01022c7:	83 ec 28             	sub    $0x28,%esp
c01022ca:	8b 45 08             	mov    0x8(%ebp),%eax
c01022cd:	89 45 f0             	mov    %eax,-0x10(%ebp)
c01022d0:	8b 45 0c             	mov    0xc(%ebp),%eax
c01022d3:	89 45 f4             	mov    %eax,-0xc(%ebp)
c01022d6:	8b 45 10             	mov    0x10(%ebp),%eax
c01022d9:	89 45 e8             	mov    %eax,-0x18(%ebp)
c01022dc:	8b 45 14             	mov    0x14(%ebp),%eax
c01022df:	89 45 ec             	mov    %eax,-0x14(%ebp)
c01022e2:	dd 45 f0             	fldl   -0x10(%ebp)
c01022e5:	dd 1c 24             	fstpl  (%esp)
c01022e8:	e8 3f ff ff ff       	call   c010222c <ln>
c01022ed:	dc 4d e8             	fmull  -0x18(%ebp)
c01022f0:	dd 1c 24             	fstpl  (%esp)
c01022f3:	e8 b8 fe ff ff       	call   c01021b0 <exp>
c01022f8:	c9                   	leave  
c01022f9:	c3                   	ret    

c01022fa <sin>:
c01022fa:	55                   	push   %ebp
c01022fb:	89 e5                	mov    %esp,%ebp
c01022fd:	53                   	push   %ebx
c01022fe:	83 ec 44             	sub    $0x44,%esp
c0102301:	8b 45 08             	mov    0x8(%ebp),%eax
c0102304:	89 45 e0             	mov    %eax,-0x20(%ebp)
c0102307:	8b 45 0c             	mov    0xc(%ebp),%eax
c010230a:	89 45 e4             	mov    %eax,-0x1c(%ebp)
c010230d:	d9 ee                	fldz   
c010230f:	dd 5d f0             	fstpl  -0x10(%ebp)
c0102312:	c7 45 ec 00 00 00 00 	movl   $0x0,-0x14(%ebp)
c0102319:	eb 70                	jmp    c010238b <sin+0x91>
c010231b:	8b 45 ec             	mov    -0x14(%ebp),%eax
c010231e:	89 44 24 04          	mov    %eax,0x4(%esp)
c0102322:	c7 04 24 ff ff ff ff 	movl   $0xffffffff,(%esp)
c0102329:	e8 07 01 00 00       	call   c0102435 <powi>
c010232e:	89 c3                	mov    %eax,%ebx
c0102330:	8b 45 ec             	mov    -0x14(%ebp),%eax
c0102333:	01 c0                	add    %eax,%eax
c0102335:	8d 50 01             	lea    0x1(%eax),%edx
c0102338:	dd 45 e0             	fldl   -0x20(%ebp)
c010233b:	d9 7d de             	fnstcw -0x22(%ebp)
c010233e:	0f b7 45 de          	movzwl -0x22(%ebp),%eax
c0102342:	b4 0c                	mov    $0xc,%ah
c0102344:	66 89 45 dc          	mov    %ax,-0x24(%ebp)
c0102348:	d9 6d dc             	fldcw  -0x24(%ebp)
c010234b:	db 5d d8             	fistpl -0x28(%ebp)
c010234e:	d9 6d de             	fldcw  -0x22(%ebp)
c0102351:	8b 45 d8             	mov    -0x28(%ebp),%eax
c0102354:	89 54 24 04          	mov    %edx,0x4(%esp)
c0102358:	89 04 24             	mov    %eax,(%esp)
c010235b:	e8 d5 00 00 00       	call   c0102435 <powi>
c0102360:	0f af c3             	imul   %ebx,%eax
c0102363:	89 45 d8             	mov    %eax,-0x28(%ebp)
c0102366:	db 45 d8             	fildl  -0x28(%ebp)
c0102369:	dd 5d d0             	fstpl  -0x30(%ebp)
c010236c:	8b 45 ec             	mov    -0x14(%ebp),%eax
c010236f:	01 c0                	add    %eax,%eax
c0102371:	83 c0 01             	add    $0x1,%eax
c0102374:	89 04 24             	mov    %eax,(%esp)
c0102377:	e8 fb 00 00 00       	call   c0102477 <factorial>
c010237c:	dc 7d d0             	fdivrl -0x30(%ebp)
c010237f:	dd 45 f0             	fldl   -0x10(%ebp)
c0102382:	de c1                	faddp  %st,%st(1)
c0102384:	dd 5d f0             	fstpl  -0x10(%ebp)
c0102387:	83 45 ec 01          	addl   $0x1,-0x14(%ebp)
c010238b:	83 7d ec 13          	cmpl   $0x13,-0x14(%ebp)
c010238f:	7e 8a                	jle    c010231b <sin+0x21>
c0102391:	dd 45 f0             	fldl   -0x10(%ebp)
c0102394:	83 c4 44             	add    $0x44,%esp
c0102397:	5b                   	pop    %ebx
c0102398:	5d                   	pop    %ebp
c0102399:	c3                   	ret    

c010239a <cos>:
c010239a:	55                   	push   %ebp
c010239b:	89 e5                	mov    %esp,%ebp
c010239d:	53                   	push   %ebx
c010239e:	83 ec 44             	sub    $0x44,%esp
c01023a1:	8b 45 08             	mov    0x8(%ebp),%eax
c01023a4:	89 45 e0             	mov    %eax,-0x20(%ebp)
c01023a7:	8b 45 0c             	mov    0xc(%ebp),%eax
c01023aa:	89 45 e4             	mov    %eax,-0x1c(%ebp)
c01023ad:	d9 ee                	fldz   
c01023af:	dd 5d f0             	fstpl  -0x10(%ebp)
c01023b2:	c7 45 ec 00 00 00 00 	movl   $0x0,-0x14(%ebp)
c01023b9:	eb 6b                	jmp    c0102426 <cos+0x8c>
c01023bb:	8b 45 ec             	mov    -0x14(%ebp),%eax
c01023be:	89 44 24 04          	mov    %eax,0x4(%esp)
c01023c2:	c7 04 24 ff ff ff ff 	movl   $0xffffffff,(%esp)
c01023c9:	e8 67 00 00 00       	call   c0102435 <powi>
c01023ce:	89 c3                	mov    %eax,%ebx
c01023d0:	8b 45 ec             	mov    -0x14(%ebp),%eax
c01023d3:	8d 14 00             	lea    (%eax,%eax,1),%edx
c01023d6:	dd 45 e0             	fldl   -0x20(%ebp)
c01023d9:	d9 7d de             	fnstcw -0x22(%ebp)
c01023dc:	0f b7 45 de          	movzwl -0x22(%ebp),%eax
c01023e0:	b4 0c                	mov    $0xc,%ah
c01023e2:	66 89 45 dc          	mov    %ax,-0x24(%ebp)
c01023e6:	d9 6d dc             	fldcw  -0x24(%ebp)
c01023e9:	db 5d d8             	fistpl -0x28(%ebp)
c01023ec:	d9 6d de             	fldcw  -0x22(%ebp)
c01023ef:	8b 45 d8             	mov    -0x28(%ebp),%eax
c01023f2:	89 54 24 04          	mov    %edx,0x4(%esp)
c01023f6:	89 04 24             	mov    %eax,(%esp)
c01023f9:	e8 37 00 00 00       	call   c0102435 <powi>
c01023fe:	0f af c3             	imul   %ebx,%eax
c0102401:	89 45 d8             	mov    %eax,-0x28(%ebp)
c0102404:	db 45 d8             	fildl  -0x28(%ebp)
c0102407:	dd 5d d0             	fstpl  -0x30(%ebp)
c010240a:	8b 45 ec             	mov    -0x14(%ebp),%eax
c010240d:	01 c0                	add    %eax,%eax
c010240f:	89 04 24             	mov    %eax,(%esp)
c0102412:	e8 60 00 00 00       	call   c0102477 <factorial>
c0102417:	dc 7d d0             	fdivrl -0x30(%ebp)
c010241a:	dd 45 f0             	fldl   -0x10(%ebp)
c010241d:	de c1                	faddp  %st,%st(1)
c010241f:	dd 5d f0             	fstpl  -0x10(%ebp)
c0102422:	83 45 ec 01          	addl   $0x1,-0x14(%ebp)
c0102426:	83 7d ec 13          	cmpl   $0x13,-0x14(%ebp)
c010242a:	7e 8f                	jle    c01023bb <cos+0x21>
c010242c:	dd 45 f0             	fldl   -0x10(%ebp)
c010242f:	83 c4 44             	add    $0x44,%esp
c0102432:	5b                   	pop    %ebx
c0102433:	5d                   	pop    %ebp
c0102434:	c3                   	ret    

c0102435 <powi>:
c0102435:	55                   	push   %ebp
c0102436:	89 e5                	mov    %esp,%ebp
c0102438:	83 ec 10             	sub    $0x10,%esp
c010243b:	8b 45 08             	mov    0x8(%ebp),%eax
c010243e:	89 45 fc             	mov    %eax,-0x4(%ebp)
c0102441:	83 7d 0c 00          	cmpl   $0x0,0xc(%ebp)
c0102445:	75 09                	jne    c0102450 <powi+0x1b>
c0102447:	c7 45 fc 01 00 00 00 	movl   $0x1,-0x4(%ebp)
c010244e:	eb 22                	jmp    c0102472 <powi+0x3d>
c0102450:	c7 45 f8 00 00 00 00 	movl   $0x0,-0x8(%ebp)
c0102457:	eb 0e                	jmp    c0102467 <powi+0x32>
c0102459:	8b 45 fc             	mov    -0x4(%ebp),%eax
c010245c:	0f af 45 08          	imul   0x8(%ebp),%eax
c0102460:	89 45 fc             	mov    %eax,-0x4(%ebp)
c0102463:	83 45 f8 01          	addl   $0x1,-0x8(%ebp)
c0102467:	8b 45 0c             	mov    0xc(%ebp),%eax
c010246a:	83 e8 01             	sub    $0x1,%eax
c010246d:	3b 45 f8             	cmp    -0x8(%ebp),%eax
c0102470:	7f e7                	jg     c0102459 <powi+0x24>
c0102472:	8b 45 fc             	mov    -0x4(%ebp),%eax
c0102475:	c9                   	leave  
c0102476:	c3                   	ret    

c0102477 <factorial>:
c0102477:	55                   	push   %ebp
c0102478:	89 e5                	mov    %esp,%ebp
c010247a:	83 ec 10             	sub    $0x10,%esp
c010247d:	d9 e8                	fld1   
c010247f:	dd 5d f8             	fstpl  -0x8(%ebp)
c0102482:	c7 45 f4 01 00 00 00 	movl   $0x1,-0xc(%ebp)
c0102489:	eb 0f                	jmp    c010249a <factorial+0x23>
c010248b:	db 45 f4             	fildl  -0xc(%ebp)
c010248e:	dd 45 f8             	fldl   -0x8(%ebp)
c0102491:	de c9                	fmulp  %st,%st(1)
c0102493:	dd 5d f8             	fstpl  -0x8(%ebp)
c0102496:	83 45 f4 01          	addl   $0x1,-0xc(%ebp)
c010249a:	8b 45 f4             	mov    -0xc(%ebp),%eax
c010249d:	3b 45 08             	cmp    0x8(%ebp),%eax
c01024a0:	7e e9                	jle    c010248b <factorial+0x14>
c01024a2:	dd 45 f8             	fldl   -0x8(%ebp)
c01024a5:	c9                   	leave  
c01024a6:	c3                   	ret    

c01024a7 <abs>:
c01024a7:	55                   	push   %ebp
c01024a8:	89 e5                	mov    %esp,%ebp
c01024aa:	83 7d 08 00          	cmpl   $0x0,0x8(%ebp)
c01024ae:	79 07                	jns    c01024b7 <abs+0x10>
c01024b0:	8b 45 08             	mov    0x8(%ebp),%eax
c01024b3:	f7 d8                	neg    %eax
c01024b5:	eb 03                	jmp    c01024ba <abs+0x13>
c01024b7:	8b 45 08             	mov    0x8(%ebp),%eax
c01024ba:	5d                   	pop    %ebp
c01024bb:	c3                   	ret    

c01024bc <bit_scan_forward>:
c01024bc:	55                   	push   %ebp
c01024bd:	89 e5                	mov    %esp,%ebp
c01024bf:	53                   	push   %ebx
c01024c0:	83 ec 10             	sub    $0x10,%esp
c01024c3:	c7 45 f8 00 00 00 00 	movl   $0x0,-0x8(%ebp)
c01024ca:	eb 20                	jmp    c01024ec <bit_scan_forward+0x30>
c01024cc:	8b 45 f8             	mov    -0x8(%ebp),%eax
c01024cf:	ba 01 00 00 00       	mov    $0x1,%edx
c01024d4:	89 d3                	mov    %edx,%ebx
c01024d6:	89 c1                	mov    %eax,%ecx
c01024d8:	d3 e3                	shl    %cl,%ebx
c01024da:	89 d8                	mov    %ebx,%eax
c01024dc:	23 45 08             	and    0x8(%ebp),%eax
c01024df:	85 c0                	test   %eax,%eax
c01024e1:	74 05                	je     c01024e8 <bit_scan_forward+0x2c>
c01024e3:	8b 45 f8             	mov    -0x8(%ebp),%eax
c01024e6:	eb 0f                	jmp    c01024f7 <bit_scan_forward+0x3b>
c01024e8:	83 45 f8 01          	addl   $0x1,-0x8(%ebp)
c01024ec:	83 7d f8 1f          	cmpl   $0x1f,-0x8(%ebp)
c01024f0:	76 da                	jbe    c01024cc <bit_scan_forward+0x10>
c01024f2:	b8 ff ff ff ff       	mov    $0xffffffff,%eax
c01024f7:	83 c4 10             	add    $0x10,%esp
c01024fa:	5b                   	pop    %ebx
c01024fb:	5d                   	pop    %ebp
c01024fc:	c3                   	ret    
c01024fd:	00 00                	add    %al,(%eax)
	...

c0102500 <halt>:
c0102500:	55                   	push   %ebp
c0102501:	89 e5                	mov    %esp,%ebp
c0102503:	fa                   	cli    
c0102504:	f4                   	hlt    
c0102505:	eb fc                	jmp    c0102503 <halt+0x3>

c0102507 <cpu_dump>:
c0102507:	55                   	push   %ebp
c0102508:	89 e5                	mov    %esp,%ebp
c010250a:	83 ec 28             	sub    $0x28,%esp
c010250d:	c7 45 f4 00 00 00 00 	movl   $0x0,-0xc(%ebp)
c0102514:	8b 45 08             	mov    0x8(%ebp),%eax
c0102517:	8b 48 1c             	mov    0x1c(%eax),%ecx
c010251a:	8b 45 08             	mov    0x8(%ebp),%eax
c010251d:	8b 50 28             	mov    0x28(%eax),%edx
c0102520:	8b 45 f4             	mov    -0xc(%ebp),%eax
c0102523:	03 45 0c             	add    0xc(%ebp),%eax
c0102526:	89 4c 24 0c          	mov    %ecx,0xc(%esp)
c010252a:	89 54 24 08          	mov    %edx,0x8(%esp)
c010252e:	c7 44 24 04 4c b7 10 	movl   $0xc010b74c,0x4(%esp)
c0102535:	c0 
c0102536:	89 04 24             	mov    %eax,(%esp)
c0102539:	e8 89 2d 00 00       	call   c01052c7 <sprintf>
c010253e:	01 45 f4             	add    %eax,-0xc(%ebp)
c0102541:	8b 45 08             	mov    0x8(%ebp),%eax
c0102544:	8b 48 20             	mov    0x20(%eax),%ecx
c0102547:	8b 45 08             	mov    0x8(%ebp),%eax
c010254a:	8b 50 24             	mov    0x24(%eax),%edx
c010254d:	8b 45 f4             	mov    -0xc(%ebp),%eax
c0102550:	03 45 0c             	add    0xc(%ebp),%eax
c0102553:	89 4c 24 0c          	mov    %ecx,0xc(%esp)
c0102557:	89 54 24 08          	mov    %edx,0x8(%esp)
c010255b:	c7 44 24 04 70 b7 10 	movl   $0xc010b770,0x4(%esp)
c0102562:	c0 
c0102563:	89 04 24             	mov    %eax,(%esp)
c0102566:	e8 5c 2d 00 00       	call   c01052c7 <sprintf>
c010256b:	01 45 f4             	add    %eax,-0xc(%ebp)
c010256e:	8b 45 08             	mov    0x8(%ebp),%eax
c0102571:	8b 48 10             	mov    0x10(%eax),%ecx
c0102574:	8b 45 08             	mov    0x8(%ebp),%eax
c0102577:	8b 50 14             	mov    0x14(%eax),%edx
c010257a:	8b 45 f4             	mov    -0xc(%ebp),%eax
c010257d:	03 45 0c             	add    0xc(%ebp),%eax
c0102580:	89 4c 24 0c          	mov    %ecx,0xc(%esp)
c0102584:	89 54 24 08          	mov    %edx,0x8(%esp)
c0102588:	c7 44 24 04 94 b7 10 	movl   $0xc010b794,0x4(%esp)
c010258f:	c0 
c0102590:	89 04 24             	mov    %eax,(%esp)
c0102593:	e8 2f 2d 00 00       	call   c01052c7 <sprintf>
c0102598:	01 45 f4             	add    %eax,-0xc(%ebp)
c010259b:	8b 45 08             	mov    0x8(%ebp),%eax
c010259e:	8b 48 18             	mov    0x18(%eax),%ecx
c01025a1:	8b 45 08             	mov    0x8(%ebp),%eax
c01025a4:	8b 50 40             	mov    0x40(%eax),%edx
c01025a7:	8b 45 f4             	mov    -0xc(%ebp),%eax
c01025aa:	03 45 0c             	add    0xc(%ebp),%eax
c01025ad:	89 4c 24 0c          	mov    %ecx,0xc(%esp)
c01025b1:	89 54 24 08          	mov    %edx,0x8(%esp)
c01025b5:	c7 44 24 04 b8 b7 10 	movl   $0xc010b7b8,0x4(%esp)
c01025bc:	c0 
c01025bd:	89 04 24             	mov    %eax,(%esp)
c01025c0:	e8 02 2d 00 00       	call   c01052c7 <sprintf>
c01025c5:	01 45 f4             	add    %eax,-0xc(%ebp)
c01025c8:	8b 45 08             	mov    0x8(%ebp),%eax
c01025cb:	8b 48 0c             	mov    0xc(%eax),%ecx
c01025ce:	8b 45 08             	mov    0x8(%ebp),%eax
c01025d1:	8b 50 38             	mov    0x38(%eax),%edx
c01025d4:	8b 45 f4             	mov    -0xc(%ebp),%eax
c01025d7:	03 45 0c             	add    0xc(%ebp),%eax
c01025da:	89 4c 24 0c          	mov    %ecx,0xc(%esp)
c01025de:	89 54 24 08          	mov    %edx,0x8(%esp)
c01025e2:	c7 44 24 04 dc b7 10 	movl   $0xc010b7dc,0x4(%esp)
c01025e9:	c0 
c01025ea:	89 04 24             	mov    %eax,(%esp)
c01025ed:	e8 d5 2c 00 00       	call   c01052c7 <sprintf>
c01025f2:	01 45 f4             	add    %eax,-0xc(%ebp)
c01025f5:	8b 45 08             	mov    0x8(%ebp),%eax
c01025f8:	8b 48 08             	mov    0x8(%eax),%ecx
c01025fb:	8b 45 08             	mov    0x8(%ebp),%eax
c01025fe:	8b 50 44             	mov    0x44(%eax),%edx
c0102601:	8b 45 f4             	mov    -0xc(%ebp),%eax
c0102604:	03 45 0c             	add    0xc(%ebp),%eax
c0102607:	89 4c 24 0c          	mov    %ecx,0xc(%esp)
c010260b:	89 54 24 08          	mov    %edx,0x8(%esp)
c010260f:	c7 44 24 04 00 b8 10 	movl   $0xc010b800,0x4(%esp)
c0102616:	c0 
c0102617:	89 04 24             	mov    %eax,(%esp)
c010261a:	e8 a8 2c 00 00       	call   c01052c7 <sprintf>
c010261f:	01 45 f4             	add    %eax,-0xc(%ebp)
c0102622:	8b 45 08             	mov    0x8(%ebp),%eax
c0102625:	8b 48 04             	mov    0x4(%eax),%ecx
c0102628:	8b 45 08             	mov    0x8(%ebp),%eax
c010262b:	8b 10                	mov    (%eax),%edx
c010262d:	8b 45 f4             	mov    -0xc(%ebp),%eax
c0102630:	03 45 0c             	add    0xc(%ebp),%eax
c0102633:	89 4c 24 0c          	mov    %ecx,0xc(%esp)
c0102637:	89 54 24 08          	mov    %edx,0x8(%esp)
c010263b:	c7 44 24 04 24 b8 10 	movl   $0xc010b824,0x4(%esp)
c0102642:	c0 
c0102643:	89 04 24             	mov    %eax,(%esp)
c0102646:	e8 7c 2c 00 00       	call   c01052c7 <sprintf>
c010264b:	01 45 f4             	add    %eax,-0xc(%ebp)
c010264e:	8b 45 08             	mov    0x8(%ebp),%eax
c0102651:	8b 48 3c             	mov    0x3c(%eax),%ecx
c0102654:	8b 45 08             	mov    0x8(%ebp),%eax
c0102657:	8b 50 34             	mov    0x34(%eax),%edx
c010265a:	8b 45 f4             	mov    -0xc(%ebp),%eax
c010265d:	03 45 0c             	add    0xc(%ebp),%eax
c0102660:	89 4c 24 0c          	mov    %ecx,0xc(%esp)
c0102664:	89 54 24 08          	mov    %edx,0x8(%esp)
c0102668:	c7 44 24 04 48 b8 10 	movl   $0xc010b848,0x4(%esp)
c010266f:	c0 
c0102670:	89 04 24             	mov    %eax,(%esp)
c0102673:	e8 4f 2c 00 00       	call   c01052c7 <sprintf>
c0102678:	01 45 f4             	add    %eax,-0xc(%ebp)
c010267b:	8b 45 f4             	mov    -0xc(%ebp),%eax
c010267e:	c9                   	leave  
c010267f:	c3                   	ret    

c0102680 <panic>:
c0102680:	55                   	push   %ebp
c0102681:	89 e5                	mov    %esp,%ebp
c0102683:	57                   	push   %edi
c0102684:	56                   	push   %esi
c0102685:	53                   	push   %ebx
c0102686:	81 ec 2c 04 00 00    	sub    $0x42c,%esp
c010268c:	c7 45 e4 08 00 00 00 	movl   $0x8,-0x1c(%ebp)
c0102693:	c7 45 e0 00 00 00 00 	movl   $0x0,-0x20(%ebp)
c010269a:	8b 45 e0             	mov    -0x20(%ebp),%eax
c010269d:	8d 95 dc fb ff ff    	lea    -0x424(%ebp),%edx
c01026a3:	01 d0                	add    %edx,%eax
c01026a5:	c7 44 24 08 c9 00 00 	movl   $0xc9,0x8(%esp)
c01026ac:	00 
c01026ad:	c7 44 24 04 69 b8 10 	movl   $0xc010b869,0x4(%esp)
c01026b4:	c0 
c01026b5:	89 04 24             	mov    %eax,(%esp)
c01026b8:	e8 0a 2c 00 00       	call   c01052c7 <sprintf>
c01026bd:	01 45 e0             	add    %eax,-0x20(%ebp)
c01026c0:	c7 45 dc 00 00 00 00 	movl   $0x0,-0x24(%ebp)
c01026c7:	eb 2a                	jmp    c01026f3 <panic+0x73>
c01026c9:	8b 45 e0             	mov    -0x20(%ebp),%eax
c01026cc:	8d 95 dc fb ff ff    	lea    -0x424(%ebp),%edx
c01026d2:	01 d0                	add    %edx,%eax
c01026d4:	c7 44 24 08 cd 00 00 	movl   $0xcd,0x8(%esp)
c01026db:	00 
c01026dc:	c7 44 24 04 72 b8 10 	movl   $0xc010b872,0x4(%esp)
c01026e3:	c0 
c01026e4:	89 04 24             	mov    %eax,(%esp)
c01026e7:	e8 db 2b 00 00       	call   c01052c7 <sprintf>
c01026ec:	01 45 e0             	add    %eax,-0x20(%ebp)
c01026ef:	83 45 dc 01          	addl   $0x1,-0x24(%ebp)
c01026f3:	83 7d dc 41          	cmpl   $0x41,-0x24(%ebp)
c01026f7:	7e d0                	jle    c01026c9 <panic+0x49>
c01026f9:	8b 45 e0             	mov    -0x20(%ebp),%eax
c01026fc:	8d 95 dc fb ff ff    	lea    -0x424(%ebp),%edx
c0102702:	01 d0                	add    %edx,%eax
c0102704:	c7 44 24 08 bb 00 00 	movl   $0xbb,0x8(%esp)
c010270b:	00 
c010270c:	c7 44 24 04 75 b8 10 	movl   $0xc010b875,0x4(%esp)
c0102713:	c0 
c0102714:	89 04 24             	mov    %eax,(%esp)
c0102717:	e8 ab 2b 00 00       	call   c01052c7 <sprintf>
c010271c:	01 45 e0             	add    %eax,-0x20(%ebp)
c010271f:	8b 45 e0             	mov    -0x20(%ebp),%eax
c0102722:	8d 95 dc fb ff ff    	lea    -0x424(%ebp),%edx
c0102728:	01 d0                	add    %edx,%eax
c010272a:	c7 44 24 0c ba 00 00 	movl   $0xba,0xc(%esp)
c0102731:	00 
c0102732:	c7 44 24 08 ba 00 00 	movl   $0xba,0x8(%esp)
c0102739:	00 
c010273a:	c7 44 24 04 80 b8 10 	movl   $0xc010b880,0x4(%esp)
c0102741:	c0 
c0102742:	89 04 24             	mov    %eax,(%esp)
c0102745:	e8 7d 2b 00 00       	call   c01052c7 <sprintf>
c010274a:	01 45 e0             	add    %eax,-0x20(%ebp)
c010274d:	8b 45 e0             	mov    -0x20(%ebp),%eax
c0102750:	8d 95 dc fb ff ff    	lea    -0x424(%ebp),%edx
c0102756:	01 d0                	add    %edx,%eax
c0102758:	c7 44 24 08 c8 00 00 	movl   $0xc8,0x8(%esp)
c010275f:	00 
c0102760:	c7 44 24 04 69 b8 10 	movl   $0xc010b869,0x4(%esp)
c0102767:	c0 
c0102768:	89 04 24             	mov    %eax,(%esp)
c010276b:	e8 57 2b 00 00       	call   c01052c7 <sprintf>
c0102770:	01 45 e0             	add    %eax,-0x20(%ebp)
c0102773:	c7 45 dc 00 00 00 00 	movl   $0x0,-0x24(%ebp)
c010277a:	eb 2a                	jmp    c01027a6 <panic+0x126>
c010277c:	8b 45 e0             	mov    -0x20(%ebp),%eax
c010277f:	8d 95 dc fb ff ff    	lea    -0x424(%ebp),%edx
c0102785:	01 d0                	add    %edx,%eax
c0102787:	c7 44 24 08 cd 00 00 	movl   $0xcd,0x8(%esp)
c010278e:	00 
c010278f:	c7 44 24 04 72 b8 10 	movl   $0xc010b872,0x4(%esp)
c0102796:	c0 
c0102797:	89 04 24             	mov    %eax,(%esp)
c010279a:	e8 28 2b 00 00       	call   c01052c7 <sprintf>
c010279f:	01 45 e0             	add    %eax,-0x20(%ebp)
c01027a2:	83 45 dc 01          	addl   $0x1,-0x24(%ebp)
c01027a6:	83 7d dc 41          	cmpl   $0x41,-0x24(%ebp)
c01027aa:	7e d0                	jle    c010277c <panic+0xfc>
c01027ac:	8b 45 e0             	mov    -0x20(%ebp),%eax
c01027af:	8d 95 dc fb ff ff    	lea    -0x424(%ebp),%edx
c01027b5:	01 d0                	add    %edx,%eax
c01027b7:	c7 44 24 08 bc 00 00 	movl   $0xbc,0x8(%esp)
c01027be:	00 
c01027bf:	c7 44 24 04 75 b8 10 	movl   $0xc010b875,0x4(%esp)
c01027c6:	c0 
c01027c7:	89 04 24             	mov    %eax,(%esp)
c01027ca:	e8 f8 2a 00 00       	call   c01052c7 <sprintf>
c01027cf:	01 45 e0             	add    %eax,-0x20(%ebp)
c01027d2:	8b 45 e0             	mov    -0x20(%ebp),%eax
c01027d5:	8d 95 dc fb ff ff    	lea    -0x424(%ebp),%edx
c01027db:	01 d0                	add    %edx,%eax
c01027dd:	ba d4 b8 10 c0       	mov    $0xc010b8d4,%edx
c01027e2:	bb 96 01 00 00       	mov    $0x196,%ebx
c01027e7:	89 c1                	mov    %eax,%ecx
c01027e9:	83 e1 01             	and    $0x1,%ecx
c01027ec:	85 c9                	test   %ecx,%ecx
c01027ee:	74 0e                	je     c01027fe <panic+0x17e>
c01027f0:	0f b6 0a             	movzbl (%edx),%ecx
c01027f3:	88 08                	mov    %cl,(%eax)
c01027f5:	83 c0 01             	add    $0x1,%eax
c01027f8:	83 c2 01             	add    $0x1,%edx
c01027fb:	83 eb 01             	sub    $0x1,%ebx
c01027fe:	89 c1                	mov    %eax,%ecx
c0102800:	83 e1 02             	and    $0x2,%ecx
c0102803:	85 c9                	test   %ecx,%ecx
c0102805:	74 0f                	je     c0102816 <panic+0x196>
c0102807:	0f b7 0a             	movzwl (%edx),%ecx
c010280a:	66 89 08             	mov    %cx,(%eax)
c010280d:	83 c0 02             	add    $0x2,%eax
c0102810:	83 c2 02             	add    $0x2,%edx
c0102813:	83 eb 02             	sub    $0x2,%ebx
c0102816:	89 d9                	mov    %ebx,%ecx
c0102818:	c1 e9 02             	shr    $0x2,%ecx
c010281b:	89 c7                	mov    %eax,%edi
c010281d:	89 d6                	mov    %edx,%esi
c010281f:	f3 a5                	rep movsl %ds:(%esi),%es:(%edi)
c0102821:	89 f2                	mov    %esi,%edx
c0102823:	89 f8                	mov    %edi,%eax
c0102825:	b9 00 00 00 00       	mov    $0x0,%ecx
c010282a:	89 de                	mov    %ebx,%esi
c010282c:	83 e6 02             	and    $0x2,%esi
c010282f:	85 f6                	test   %esi,%esi
c0102831:	74 0b                	je     c010283e <panic+0x1be>
c0102833:	0f b7 34 0a          	movzwl (%edx,%ecx,1),%esi
c0102837:	66 89 34 08          	mov    %si,(%eax,%ecx,1)
c010283b:	83 c1 02             	add    $0x2,%ecx
c010283e:	83 e3 01             	and    $0x1,%ebx
c0102841:	85 db                	test   %ebx,%ebx
c0102843:	74 07                	je     c010284c <panic+0x1cc>
c0102845:	0f b6 14 0a          	movzbl (%edx,%ecx,1),%edx
c0102849:	88 14 08             	mov    %dl,(%eax,%ecx,1)
c010284c:	81 45 e0 95 01 00 00 	addl   $0x195,-0x20(%ebp)
c0102853:	eb 46                	jmp    c010289b <panic+0x21b>
c0102855:	8b 45 08             	mov    0x8(%ebp),%eax
c0102858:	0f b6 10             	movzbl (%eax),%edx
c010285b:	8d 85 dc fb ff ff    	lea    -0x424(%ebp),%eax
c0102861:	03 45 e0             	add    -0x20(%ebp),%eax
c0102864:	88 10                	mov    %dl,(%eax)
c0102866:	83 45 e0 01          	addl   $0x1,-0x20(%ebp)
c010286a:	8b 45 08             	mov    0x8(%ebp),%eax
c010286d:	0f b6 00             	movzbl (%eax),%eax
c0102870:	3c 0a                	cmp    $0xa,%al
c0102872:	75 23                	jne    c0102897 <panic+0x217>
c0102874:	8b 45 e0             	mov    -0x20(%ebp),%eax
c0102877:	8d 95 dc fb ff ff    	lea    -0x424(%ebp),%edx
c010287d:	01 d0                	add    %edx,%eax
c010287f:	c7 00 20 20 20 20    	movl   $0x20202020,(%eax)
c0102885:	66 c7 40 04 20 20    	movw   $0x2020,0x4(%eax)
c010288b:	c6 40 06 00          	movb   $0x0,0x6(%eax)
c010288f:	83 45 e0 06          	addl   $0x6,-0x20(%ebp)
c0102893:	83 45 e4 01          	addl   $0x1,-0x1c(%ebp)
c0102897:	83 45 08 01          	addl   $0x1,0x8(%ebp)
c010289b:	8b 45 08             	mov    0x8(%ebp),%eax
c010289e:	0f b6 00             	movzbl (%eax),%eax
c01028a1:	84 c0                	test   %al,%al
c01028a3:	75 b0                	jne    c0102855 <panic+0x1d5>
c01028a5:	8b 45 e0             	mov    -0x20(%ebp),%eax
c01028a8:	8d 95 dc fb ff ff    	lea    -0x424(%ebp),%edx
c01028ae:	01 d0                	add    %edx,%eax
c01028b0:	ba 6c ba 10 c0       	mov    $0xc010ba6c,%edx
c01028b5:	bb 4d 00 00 00       	mov    $0x4d,%ebx
c01028ba:	89 c1                	mov    %eax,%ecx
c01028bc:	83 e1 01             	and    $0x1,%ecx
c01028bf:	85 c9                	test   %ecx,%ecx
c01028c1:	74 0e                	je     c01028d1 <panic+0x251>
c01028c3:	0f b6 0a             	movzbl (%edx),%ecx
c01028c6:	88 08                	mov    %cl,(%eax)
c01028c8:	83 c0 01             	add    $0x1,%eax
c01028cb:	83 c2 01             	add    $0x1,%edx
c01028ce:	83 eb 01             	sub    $0x1,%ebx
c01028d1:	89 c1                	mov    %eax,%ecx
c01028d3:	83 e1 02             	and    $0x2,%ecx
c01028d6:	85 c9                	test   %ecx,%ecx
c01028d8:	74 0f                	je     c01028e9 <panic+0x269>
c01028da:	0f b7 0a             	movzwl (%edx),%ecx
c01028dd:	66 89 08             	mov    %cx,(%eax)
c01028e0:	83 c0 02             	add    $0x2,%eax
c01028e3:	83 c2 02             	add    $0x2,%edx
c01028e6:	83 eb 02             	sub    $0x2,%ebx
c01028e9:	89 d9                	mov    %ebx,%ecx
c01028eb:	c1 e9 02             	shr    $0x2,%ecx
c01028ee:	89 c7                	mov    %eax,%edi
c01028f0:	89 d6                	mov    %edx,%esi
c01028f2:	f3 a5                	rep movsl %ds:(%esi),%es:(%edi)
c01028f4:	89 f2                	mov    %esi,%edx
c01028f6:	89 f8                	mov    %edi,%eax
c01028f8:	b9 00 00 00 00       	mov    $0x0,%ecx
c01028fd:	89 de                	mov    %ebx,%esi
c01028ff:	83 e6 02             	and    $0x2,%esi
c0102902:	85 f6                	test   %esi,%esi
c0102904:	74 0b                	je     c0102911 <panic+0x291>
c0102906:	0f b7 34 0a          	movzwl (%edx,%ecx,1),%esi
c010290a:	66 89 34 08          	mov    %si,(%eax,%ecx,1)
c010290e:	83 c1 02             	add    $0x2,%ecx
c0102911:	83 e3 01             	and    $0x1,%ebx
c0102914:	85 db                	test   %ebx,%ebx
c0102916:	74 07                	je     c010291f <panic+0x29f>
c0102918:	0f b6 14 0a          	movzbl (%edx,%ecx,1),%edx
c010291c:	88 14 08             	mov    %dl,(%eax,%ecx,1)
c010291f:	83 45 e0 4c          	addl   $0x4c,-0x20(%ebp)
c0102923:	c7 04 24 4f 00 00 00 	movl   $0x4f,(%esp)
c010292a:	e8 13 36 00 00       	call   c0105f42 <set_color>
c010292f:	8d 85 dc fb ff ff    	lea    -0x424(%ebp),%eax
c0102935:	89 04 24             	mov    %eax,(%esp)
c0102938:	e8 2a 35 00 00       	call   c0105e67 <puts>
c010293d:	c7 04 24 b9 ba 10 c0 	movl   $0xc010bab9,(%esp)
c0102944:	e8 0b 29 00 00       	call   c0105254 <printf>
c0102949:	e8 b2 fb ff ff       	call   c0102500 <halt>
c010294e:	81 c4 2c 04 00 00    	add    $0x42c,%esp
c0102954:	5b                   	pop    %ebx
c0102955:	5e                   	pop    %esi
c0102956:	5f                   	pop    %edi
c0102957:	5d                   	pop    %ebp
c0102958:	c3                   	ret    

c0102959 <exc_panic>:
c0102959:	55                   	push   %ebp
c010295a:	89 e5                	mov    %esp,%ebp
c010295c:	81 ec 28 02 00 00    	sub    $0x228,%esp
c0102962:	8b 45 08             	mov    0x8(%ebp),%eax
c0102965:	8b 40 2c             	mov    0x2c(%eax),%eax
c0102968:	8b 04 85 20 f0 10 c0 	mov    -0x3fef0fe0(,%eax,4),%eax
c010296f:	89 45 f4             	mov    %eax,-0xc(%ebp)
c0102972:	c7 45 f0 00 00 00 00 	movl   $0x0,-0x10(%ebp)
c0102979:	8b 45 f4             	mov    -0xc(%ebp),%eax
c010297c:	89 44 24 08          	mov    %eax,0x8(%esp)
c0102980:	c7 44 24 04 c2 ba 10 	movl   $0xc010bac2,0x4(%esp)
c0102987:	c0 
c0102988:	8d 85 f0 fd ff ff    	lea    -0x210(%ebp),%eax
c010298e:	89 04 24             	mov    %eax,(%esp)
c0102991:	e8 31 29 00 00       	call   c01052c7 <sprintf>
c0102996:	89 45 f0             	mov    %eax,-0x10(%ebp)
c0102999:	8b 45 f0             	mov    -0x10(%ebp),%eax
c010299c:	8d 95 f0 fd ff ff    	lea    -0x210(%ebp),%edx
c01029a2:	01 d0                	add    %edx,%eax
c01029a4:	89 44 24 04          	mov    %eax,0x4(%esp)
c01029a8:	8b 45 08             	mov    0x8(%ebp),%eax
c01029ab:	89 04 24             	mov    %eax,(%esp)
c01029ae:	e8 54 fb ff ff       	call   c0102507 <cpu_dump>
c01029b3:	8d 85 f0 fd ff ff    	lea    -0x210(%ebp),%eax
c01029b9:	89 04 24             	mov    %eax,(%esp)
c01029bc:	e8 bf fc ff ff       	call   c0102680 <panic>
c01029c1:	c9                   	leave  
c01029c2:	c3                   	ret    

c01029c3 <winpanic>:
c01029c3:	55                   	push   %ebp
c01029c4:	89 e5                	mov    %esp,%ebp
c01029c6:	83 ec 18             	sub    $0x18,%esp
c01029c9:	c7 04 24 1f 00 00 00 	movl   $0x1f,(%esp)
c01029d0:	e8 6d 35 00 00       	call   c0105f42 <set_color>
c01029d5:	e8 04 35 00 00       	call   c0105ede <clear_screen>
c01029da:	c7 44 24 04 08 00 00 	movl   $0x8,0x4(%esp)
c01029e1:	00 
c01029e2:	c7 04 24 25 00 00 00 	movl   $0x25,(%esp)
c01029e9:	e8 77 35 00 00       	call   c0105f65 <gotoxy>
c01029ee:	c7 04 24 71 00 00 00 	movl   $0x71,(%esp)
c01029f5:	e8 48 35 00 00       	call   c0105f42 <set_color>
c01029fa:	c7 04 24 c7 ba 10 c0 	movl   $0xc010bac7,(%esp)
c0102a01:	e8 4e 28 00 00       	call   c0105254 <printf>
c0102a06:	c7 04 24 1f 00 00 00 	movl   $0x1f,(%esp)
c0102a0d:	e8 30 35 00 00       	call   c0105f42 <set_color>
c0102a12:	c7 04 24 b9 ba 10 c0 	movl   $0xc010bab9,(%esp)
c0102a19:	e8 36 28 00 00       	call   c0105254 <printf>
c0102a1e:	eb 2b                	jmp    c0102a4b <winpanic+0x88>
c0102a20:	8b 45 08             	mov    0x8(%ebp),%eax
c0102a23:	0f b6 00             	movzbl (%eax),%eax
c0102a26:	0f be c0             	movsbl %al,%eax
c0102a29:	89 04 24             	mov    %eax,(%esp)
c0102a2c:	e8 d7 32 00 00       	call   c0105d08 <putchar>
c0102a31:	8b 45 08             	mov    0x8(%ebp),%eax
c0102a34:	0f b6 00             	movzbl (%eax),%eax
c0102a37:	3c 0a                	cmp    $0xa,%al
c0102a39:	75 0c                	jne    c0102a47 <winpanic+0x84>
c0102a3b:	c7 04 24 d0 ba 10 c0 	movl   $0xc010bad0,(%esp)
c0102a42:	e8 0d 28 00 00       	call   c0105254 <printf>
c0102a47:	83 45 08 01          	addl   $0x1,0x8(%ebp)
c0102a4b:	8b 45 08             	mov    0x8(%ebp),%eax
c0102a4e:	0f b6 00             	movzbl (%eax),%eax
c0102a51:	84 c0                	test   %al,%al
c0102a53:	75 cb                	jne    c0102a20 <winpanic+0x5d>
c0102a55:	c7 04 24 d8 ba 10 c0 	movl   $0xc010bad8,(%esp)
c0102a5c:	e8 06 34 00 00       	call   c0105e67 <puts>
c0102a61:	c7 04 24 24 bb 10 c0 	movl   $0xc010bb24,(%esp)
c0102a68:	e8 fa 33 00 00       	call   c0105e67 <puts>
c0102a6d:	c7 04 24 60 bb 10 c0 	movl   $0xc010bb60,(%esp)
c0102a74:	e8 ee 33 00 00       	call   c0105e67 <puts>
c0102a79:	e8 82 fa ff ff       	call   c0102500 <halt>
c0102a7e:	c9                   	leave  
c0102a7f:	c3                   	ret    

c0102a80 <INIT_PAGING>:
c0102a80:	55                   	push   %ebp
c0102a81:	89 e5                	mov    %esp,%ebp
c0102a83:	83 ec 18             	sub    $0x18,%esp
c0102a86:	c7 44 24 04 fb 36 10 	movl   $0xc01036fb,0x4(%esp)
c0102a8d:	c0 
c0102a8e:	c7 04 24 0e 00 00 00 	movl   $0xe,(%esp)
c0102a95:	e8 08 5e 00 00       	call   c01088a2 <install_exc>
c0102a9a:	8b 45 08             	mov    0x8(%ebp),%eax
c0102a9d:	89 04 24             	mov    %eax,(%esp)
c0102aa0:	e8 2b 03 00 00       	call   c0102dd0 <ARCH_INIT_PAGING>
c0102aa5:	c9                   	leave  
c0102aa6:	c3                   	ret    

c0102aa7 <vmm_create_context>:
c0102aa7:	55                   	push   %ebp
c0102aa8:	89 e5                	mov    %esp,%ebp
c0102aaa:	83 ec 08             	sub    $0x8,%esp
c0102aad:	e8 3d 05 00 00       	call   c0102fef <arch_vmm_create_context>
c0102ab2:	89 c2                	mov    %eax,%edx
c0102ab4:	8b 45 08             	mov    0x8(%ebp),%eax
c0102ab7:	89 10                	mov    %edx,(%eax)
c0102ab9:	c9                   	leave  
c0102aba:	c3                   	ret    

c0102abb <vmm_destroy_context>:
c0102abb:	55                   	push   %ebp
c0102abc:	89 e5                	mov    %esp,%ebp
c0102abe:	83 ec 18             	sub    $0x18,%esp
c0102ac1:	8b 45 08             	mov    0x8(%ebp),%eax
c0102ac4:	8b 00                	mov    (%eax),%eax
c0102ac6:	89 04 24             	mov    %eax,(%esp)
c0102ac9:	e8 63 06 00 00       	call   c0103131 <arch_vmm_destroy_context>
c0102ace:	c9                   	leave  
c0102acf:	c3                   	ret    

c0102ad0 <vmm_switch_context>:
c0102ad0:	55                   	push   %ebp
c0102ad1:	89 e5                	mov    %esp,%ebp
c0102ad3:	83 ec 18             	sub    $0x18,%esp
c0102ad6:	a1 00 10 11 c0       	mov    0xc0111000,%eax
c0102adb:	39 45 08             	cmp    %eax,0x8(%ebp)
c0102ade:	74 22                	je     c0102b02 <vmm_switch_context+0x32>
c0102ae0:	8b 45 08             	mov    0x8(%ebp),%eax
c0102ae3:	8b 00                	mov    (%eax),%eax
c0102ae5:	89 04 24             	mov    %eax,(%esp)
c0102ae8:	e8 9d 06 00 00       	call   c010318a <arch_update_context>
c0102aed:	8b 45 08             	mov    0x8(%ebp),%eax
c0102af0:	8b 00                	mov    (%eax),%eax
c0102af2:	89 04 24             	mov    %eax,(%esp)
c0102af5:	e8 f3 0b 00 00       	call   c01036ed <arch_switch_context>
c0102afa:	8b 45 08             	mov    0x8(%ebp),%eax
c0102afd:	a3 00 10 11 c0       	mov    %eax,0xc0111000
c0102b02:	c9                   	leave  
c0102b03:	c3                   	ret    

c0102b04 <vmm_map>:
c0102b04:	55                   	push   %ebp
c0102b05:	89 e5                	mov    %esp,%ebp
c0102b07:	83 ec 28             	sub    $0x28,%esp
c0102b0a:	8b 45 14             	mov    0x14(%ebp),%eax
c0102b0d:	88 45 f4             	mov    %al,-0xc(%ebp)
c0102b10:	0f b6 55 f4          	movzbl -0xc(%ebp),%edx
c0102b14:	8b 45 08             	mov    0x8(%ebp),%eax
c0102b17:	8b 00                	mov    (%eax),%eax
c0102b19:	89 54 24 0c          	mov    %edx,0xc(%esp)
c0102b1d:	8b 55 10             	mov    0x10(%ebp),%edx
c0102b20:	89 54 24 08          	mov    %edx,0x8(%esp)
c0102b24:	8b 55 0c             	mov    0xc(%ebp),%edx
c0102b27:	89 54 24 04          	mov    %edx,0x4(%esp)
c0102b2b:	89 04 24             	mov    %eax,(%esp)
c0102b2e:	e8 74 08 00 00       	call   c01033a7 <arch_map>
c0102b33:	c9                   	leave  
c0102b34:	c3                   	ret    

c0102b35 <vmm_unmap>:
c0102b35:	55                   	push   %ebp
c0102b36:	89 e5                	mov    %esp,%ebp
c0102b38:	83 ec 18             	sub    $0x18,%esp
c0102b3b:	8b 45 08             	mov    0x8(%ebp),%eax
c0102b3e:	8b 00                	mov    (%eax),%eax
c0102b40:	8b 55 0c             	mov    0xc(%ebp),%edx
c0102b43:	89 54 24 04          	mov    %edx,0x4(%esp)
c0102b47:	89 04 24             	mov    %eax,(%esp)
c0102b4a:	e8 7e 09 00 00       	call   c01034cd <arch_unmap>
c0102b4f:	c9                   	leave  
c0102b50:	c3                   	ret    

c0102b51 <vmm_map_range>:
c0102b51:	55                   	push   %ebp
c0102b52:	89 e5                	mov    %esp,%ebp
c0102b54:	83 ec 38             	sub    $0x38,%esp
c0102b57:	8b 45 18             	mov    0x18(%ebp),%eax
c0102b5a:	88 45 e4             	mov    %al,-0x1c(%ebp)
c0102b5d:	c7 45 f4 00 00 00 00 	movl   $0x0,-0xc(%ebp)
c0102b64:	eb 33                	jmp    c0102b99 <vmm_map_range+0x48>
c0102b66:	0f b6 4d e4          	movzbl -0x1c(%ebp),%ecx
c0102b6a:	8b 45 f4             	mov    -0xc(%ebp),%eax
c0102b6d:	c1 e0 0c             	shl    $0xc,%eax
c0102b70:	89 c2                	mov    %eax,%edx
c0102b72:	03 55 10             	add    0x10(%ebp),%edx
c0102b75:	8b 45 f4             	mov    -0xc(%ebp),%eax
c0102b78:	c1 e0 0c             	shl    $0xc,%eax
c0102b7b:	03 45 0c             	add    0xc(%ebp),%eax
c0102b7e:	89 4c 24 0c          	mov    %ecx,0xc(%esp)
c0102b82:	89 54 24 08          	mov    %edx,0x8(%esp)
c0102b86:	89 44 24 04          	mov    %eax,0x4(%esp)
c0102b8a:	8b 45 08             	mov    0x8(%ebp),%eax
c0102b8d:	89 04 24             	mov    %eax,(%esp)
c0102b90:	e8 6f ff ff ff       	call   c0102b04 <vmm_map>
c0102b95:	83 45 f4 01          	addl   $0x1,-0xc(%ebp)
c0102b99:	8b 45 f4             	mov    -0xc(%ebp),%eax
c0102b9c:	3b 45 14             	cmp    0x14(%ebp),%eax
c0102b9f:	7c c5                	jl     c0102b66 <vmm_map_range+0x15>
c0102ba1:	b8 00 00 00 00       	mov    $0x0,%eax
c0102ba6:	c9                   	leave  
c0102ba7:	c3                   	ret    

c0102ba8 <vmm_unmap_range>:
c0102ba8:	55                   	push   %ebp
c0102ba9:	89 e5                	mov    %esp,%ebp
c0102bab:	83 ec 28             	sub    $0x28,%esp
c0102bae:	c7 45 f4 00 00 00 00 	movl   $0x0,-0xc(%ebp)
c0102bb5:	eb 1c                	jmp    c0102bd3 <vmm_unmap_range+0x2b>
c0102bb7:	8b 45 f4             	mov    -0xc(%ebp),%eax
c0102bba:	c1 e0 0c             	shl    $0xc,%eax
c0102bbd:	03 45 0c             	add    0xc(%ebp),%eax
c0102bc0:	89 44 24 04          	mov    %eax,0x4(%esp)
c0102bc4:	8b 45 08             	mov    0x8(%ebp),%eax
c0102bc7:	89 04 24             	mov    %eax,(%esp)
c0102bca:	e8 66 ff ff ff       	call   c0102b35 <vmm_unmap>
c0102bcf:	83 45 f4 01          	addl   $0x1,-0xc(%ebp)
c0102bd3:	8b 45 f4             	mov    -0xc(%ebp),%eax
c0102bd6:	3b 45 10             	cmp    0x10(%ebp),%eax
c0102bd9:	7c dc                	jl     c0102bb7 <vmm_unmap_range+0xf>
c0102bdb:	b8 00 00 00 00       	mov    $0x0,%eax
c0102be0:	c9                   	leave  
c0102be1:	c3                   	ret    

c0102be2 <vmm_automap_kernel>:
c0102be2:	55                   	push   %ebp
c0102be3:	89 e5                	mov    %esp,%ebp
c0102be5:	83 ec 48             	sub    $0x48,%esp
c0102be8:	8b 45 10             	mov    0x10(%ebp),%eax
c0102beb:	88 45 e4             	mov    %al,-0x1c(%ebp)
c0102bee:	0f b6 55 e4          	movzbl -0x1c(%ebp),%edx
c0102bf2:	8b 45 08             	mov    0x8(%ebp),%eax
c0102bf5:	8b 00                	mov    (%eax),%eax
c0102bf7:	89 54 24 10          	mov    %edx,0x10(%esp)
c0102bfb:	c7 44 24 0c ff ff ff 	movl   $0xffffffff,0xc(%esp)
c0102c02:	ff 
c0102c03:	c7 44 24 08 00 00 00 	movl   $0xc2000000,0x8(%esp)
c0102c0a:	c2 
c0102c0b:	c7 44 24 04 01 00 00 	movl   $0x1,0x4(%esp)
c0102c12:	00 
c0102c13:	89 04 24             	mov    %eax,(%esp)
c0102c16:	e8 46 09 00 00       	call   c0103561 <arch_vaddr_find>
c0102c1b:	89 45 f4             	mov    %eax,-0xc(%ebp)
c0102c1e:	0f b6 45 e4          	movzbl -0x1c(%ebp),%eax
c0102c22:	83 c8 01             	or     $0x1,%eax
c0102c25:	0f b6 c0             	movzbl %al,%eax
c0102c28:	89 44 24 0c          	mov    %eax,0xc(%esp)
c0102c2c:	8b 45 f4             	mov    -0xc(%ebp),%eax
c0102c2f:	89 44 24 08          	mov    %eax,0x8(%esp)
c0102c33:	8b 45 0c             	mov    0xc(%ebp),%eax
c0102c36:	89 44 24 04          	mov    %eax,0x4(%esp)
c0102c3a:	8b 45 08             	mov    0x8(%ebp),%eax
c0102c3d:	89 04 24             	mov    %eax,(%esp)
c0102c40:	e8 bf fe ff ff       	call   c0102b04 <vmm_map>
c0102c45:	8b 45 f4             	mov    -0xc(%ebp),%eax
c0102c48:	c9                   	leave  
c0102c49:	c3                   	ret    

c0102c4a <vmm_automap_kernel_range>:
c0102c4a:	55                   	push   %ebp
c0102c4b:	89 e5                	mov    %esp,%ebp
c0102c4d:	83 ec 48             	sub    $0x48,%esp
c0102c50:	8b 45 14             	mov    0x14(%ebp),%eax
c0102c53:	88 45 e4             	mov    %al,-0x1c(%ebp)
c0102c56:	0f b6 55 e4          	movzbl -0x1c(%ebp),%edx
c0102c5a:	8b 45 08             	mov    0x8(%ebp),%eax
c0102c5d:	8b 00                	mov    (%eax),%eax
c0102c5f:	89 54 24 10          	mov    %edx,0x10(%esp)
c0102c63:	c7 44 24 0c ff ff ff 	movl   $0xffffffff,0xc(%esp)
c0102c6a:	ff 
c0102c6b:	c7 44 24 08 00 00 00 	movl   $0xc2000000,0x8(%esp)
c0102c72:	c2 
c0102c73:	8b 55 10             	mov    0x10(%ebp),%edx
c0102c76:	89 54 24 04          	mov    %edx,0x4(%esp)
c0102c7a:	89 04 24             	mov    %eax,(%esp)
c0102c7d:	e8 df 08 00 00       	call   c0103561 <arch_vaddr_find>
c0102c82:	89 45 f0             	mov    %eax,-0x10(%ebp)
c0102c85:	c7 45 f4 00 00 00 00 	movl   $0x0,-0xc(%ebp)
c0102c8c:	eb 3d                	jmp    c0102ccb <vmm_automap_kernel_range+0x81>
c0102c8e:	8b 45 f4             	mov    -0xc(%ebp),%eax
c0102c91:	c1 e0 0c             	shl    $0xc,%eax
c0102c94:	03 45 0c             	add    0xc(%ebp),%eax
c0102c97:	89 45 ec             	mov    %eax,-0x14(%ebp)
c0102c9a:	8b 45 f4             	mov    -0xc(%ebp),%eax
c0102c9d:	c1 e0 0c             	shl    $0xc,%eax
c0102ca0:	03 45 f0             	add    -0x10(%ebp),%eax
c0102ca3:	89 45 e8             	mov    %eax,-0x18(%ebp)
c0102ca6:	0f b6 45 e4          	movzbl -0x1c(%ebp),%eax
c0102caa:	89 44 24 0c          	mov    %eax,0xc(%esp)
c0102cae:	8b 45 e8             	mov    -0x18(%ebp),%eax
c0102cb1:	89 44 24 08          	mov    %eax,0x8(%esp)
c0102cb5:	8b 45 ec             	mov    -0x14(%ebp),%eax
c0102cb8:	89 44 24 04          	mov    %eax,0x4(%esp)
c0102cbc:	8b 45 08             	mov    0x8(%ebp),%eax
c0102cbf:	89 04 24             	mov    %eax,(%esp)
c0102cc2:	e8 3d fe ff ff       	call   c0102b04 <vmm_map>
c0102cc7:	83 45 f4 01          	addl   $0x1,-0xc(%ebp)
c0102ccb:	8b 45 f4             	mov    -0xc(%ebp),%eax
c0102cce:	3b 45 10             	cmp    0x10(%ebp),%eax
c0102cd1:	7c bb                	jl     c0102c8e <vmm_automap_kernel_range+0x44>
c0102cd3:	8b 45 f0             	mov    -0x10(%ebp),%eax
c0102cd6:	c9                   	leave  
c0102cd7:	c3                   	ret    

c0102cd8 <vmm_automap_user>:
c0102cd8:	55                   	push   %ebp
c0102cd9:	89 e5                	mov    %esp,%ebp
c0102cdb:	83 ec 48             	sub    $0x48,%esp
c0102cde:	8b 45 10             	mov    0x10(%ebp),%eax
c0102ce1:	88 45 e4             	mov    %al,-0x1c(%ebp)
c0102ce4:	0f b6 55 e4          	movzbl -0x1c(%ebp),%edx
c0102ce8:	8b 45 08             	mov    0x8(%ebp),%eax
c0102ceb:	8b 00                	mov    (%eax),%eax
c0102ced:	89 54 24 10          	mov    %edx,0x10(%esp)
c0102cf1:	c7 44 24 0c 00 00 00 	movl   $0xc0000000,0xc(%esp)
c0102cf8:	c0 
c0102cf9:	c7 44 24 08 00 00 00 	movl   $0x0,0x8(%esp)
c0102d00:	00 
c0102d01:	c7 44 24 04 01 00 00 	movl   $0x1,0x4(%esp)
c0102d08:	00 
c0102d09:	89 04 24             	mov    %eax,(%esp)
c0102d0c:	e8 50 08 00 00       	call   c0103561 <arch_vaddr_find>
c0102d11:	89 45 f4             	mov    %eax,-0xc(%ebp)
c0102d14:	0f b6 45 e4          	movzbl -0x1c(%ebp),%eax
c0102d18:	83 c8 01             	or     $0x1,%eax
c0102d1b:	0f b6 c0             	movzbl %al,%eax
c0102d1e:	89 44 24 0c          	mov    %eax,0xc(%esp)
c0102d22:	8b 45 f4             	mov    -0xc(%ebp),%eax
c0102d25:	89 44 24 08          	mov    %eax,0x8(%esp)
c0102d29:	8b 45 0c             	mov    0xc(%ebp),%eax
c0102d2c:	89 44 24 04          	mov    %eax,0x4(%esp)
c0102d30:	8b 45 08             	mov    0x8(%ebp),%eax
c0102d33:	89 04 24             	mov    %eax,(%esp)
c0102d36:	e8 c9 fd ff ff       	call   c0102b04 <vmm_map>
c0102d3b:	8b 45 f4             	mov    -0xc(%ebp),%eax
c0102d3e:	c9                   	leave  
c0102d3f:	c3                   	ret    

c0102d40 <vmm_automap_user_range>:
c0102d40:	55                   	push   %ebp
c0102d41:	89 e5                	mov    %esp,%ebp
c0102d43:	83 ec 48             	sub    $0x48,%esp
c0102d46:	8b 45 14             	mov    0x14(%ebp),%eax
c0102d49:	88 45 e4             	mov    %al,-0x1c(%ebp)
c0102d4c:	0f b6 55 e4          	movzbl -0x1c(%ebp),%edx
c0102d50:	8b 45 08             	mov    0x8(%ebp),%eax
c0102d53:	8b 00                	mov    (%eax),%eax
c0102d55:	89 54 24 10          	mov    %edx,0x10(%esp)
c0102d59:	c7 44 24 0c 00 00 00 	movl   $0xc0000000,0xc(%esp)
c0102d60:	c0 
c0102d61:	c7 44 24 08 00 00 00 	movl   $0x0,0x8(%esp)
c0102d68:	00 
c0102d69:	8b 55 10             	mov    0x10(%ebp),%edx
c0102d6c:	89 54 24 04          	mov    %edx,0x4(%esp)
c0102d70:	89 04 24             	mov    %eax,(%esp)
c0102d73:	e8 e9 07 00 00       	call   c0103561 <arch_vaddr_find>
c0102d78:	89 45 f0             	mov    %eax,-0x10(%ebp)
c0102d7b:	c7 45 f4 00 00 00 00 	movl   $0x0,-0xc(%ebp)
c0102d82:	eb 3d                	jmp    c0102dc1 <vmm_automap_user_range+0x81>
c0102d84:	8b 45 f4             	mov    -0xc(%ebp),%eax
c0102d87:	c1 e0 0c             	shl    $0xc,%eax
c0102d8a:	03 45 0c             	add    0xc(%ebp),%eax
c0102d8d:	89 45 ec             	mov    %eax,-0x14(%ebp)
c0102d90:	8b 45 f4             	mov    -0xc(%ebp),%eax
c0102d93:	c1 e0 0c             	shl    $0xc,%eax
c0102d96:	03 45 f0             	add    -0x10(%ebp),%eax
c0102d99:	89 45 e8             	mov    %eax,-0x18(%ebp)
c0102d9c:	0f b6 45 e4          	movzbl -0x1c(%ebp),%eax
c0102da0:	89 44 24 0c          	mov    %eax,0xc(%esp)
c0102da4:	8b 45 e8             	mov    -0x18(%ebp),%eax
c0102da7:	89 44 24 08          	mov    %eax,0x8(%esp)
c0102dab:	8b 45 ec             	mov    -0x14(%ebp),%eax
c0102dae:	89 44 24 04          	mov    %eax,0x4(%esp)
c0102db2:	8b 45 08             	mov    0x8(%ebp),%eax
c0102db5:	89 04 24             	mov    %eax,(%esp)
c0102db8:	e8 47 fd ff ff       	call   c0102b04 <vmm_map>
c0102dbd:	83 45 f4 01          	addl   $0x1,-0xc(%ebp)
c0102dc1:	8b 45 f4             	mov    -0xc(%ebp),%eax
c0102dc4:	3b 45 10             	cmp    0x10(%ebp),%eax
c0102dc7:	7c bb                	jl     c0102d84 <vmm_automap_user_range+0x44>
c0102dc9:	8b 45 f0             	mov    -0x10(%ebp),%eax
c0102dcc:	c9                   	leave  
c0102dcd:	c3                   	ret    
	...

c0102dd0 <ARCH_INIT_PAGING>:
c0102dd0:	55                   	push   %ebp
c0102dd1:	89 e5                	mov    %esp,%ebp
c0102dd3:	57                   	push   %edi
c0102dd4:	53                   	push   %ebx
c0102dd5:	83 ec 40             	sub    $0x40,%esp
c0102dd8:	c7 05 00 30 11 c0 04 	movl   $0xc0113004,0xc0113000
c0102ddf:	30 11 c0 
c0102de2:	c7 04 24 00 00 00 00 	movl   $0x0,(%esp)
c0102de9:	e8 63 73 00 00       	call   c010a151 <pmm_alloc_page_limit>
c0102dee:	89 45 ec             	mov    %eax,-0x14(%ebp)
c0102df1:	c7 45 e8 00 00 80 ff 	movl   $0xff800000,-0x18(%ebp)
c0102df8:	8b 45 ec             	mov    -0x14(%ebp),%eax
c0102dfb:	a3 08 30 11 c0       	mov    %eax,0xc0113008
c0102e00:	8b 45 ec             	mov    -0x14(%ebp),%eax
c0102e03:	a3 04 30 11 c0       	mov    %eax,0xc0113004
c0102e08:	a1 04 30 11 c0       	mov    0xc0113004,%eax
c0102e0d:	89 c2                	mov    %eax,%edx
c0102e0f:	bb 00 10 00 00       	mov    $0x1000,%ebx
c0102e14:	b8 00 00 00 00       	mov    $0x0,%eax
c0102e19:	89 d1                	mov    %edx,%ecx
c0102e1b:	83 e1 01             	and    $0x1,%ecx
c0102e1e:	85 c9                	test   %ecx,%ecx
c0102e20:	74 08                	je     c0102e2a <ARCH_INIT_PAGING+0x5a>
c0102e22:	88 02                	mov    %al,(%edx)
c0102e24:	83 c2 01             	add    $0x1,%edx
c0102e27:	83 eb 01             	sub    $0x1,%ebx
c0102e2a:	89 d1                	mov    %edx,%ecx
c0102e2c:	83 e1 02             	and    $0x2,%ecx
c0102e2f:	85 c9                	test   %ecx,%ecx
c0102e31:	74 09                	je     c0102e3c <ARCH_INIT_PAGING+0x6c>
c0102e33:	66 89 02             	mov    %ax,(%edx)
c0102e36:	83 c2 02             	add    $0x2,%edx
c0102e39:	83 eb 02             	sub    $0x2,%ebx
c0102e3c:	89 d9                	mov    %ebx,%ecx
c0102e3e:	c1 e9 02             	shr    $0x2,%ecx
c0102e41:	89 d7                	mov    %edx,%edi
c0102e43:	f3 ab                	rep stos %eax,%es:(%edi)
c0102e45:	89 fa                	mov    %edi,%edx
c0102e47:	89 d9                	mov    %ebx,%ecx
c0102e49:	83 e1 02             	and    $0x2,%ecx
c0102e4c:	85 c9                	test   %ecx,%ecx
c0102e4e:	74 06                	je     c0102e56 <ARCH_INIT_PAGING+0x86>
c0102e50:	66 89 02             	mov    %ax,(%edx)
c0102e53:	83 c2 02             	add    $0x2,%edx
c0102e56:	89 d9                	mov    %ebx,%ecx
c0102e58:	83 e1 01             	and    $0x1,%ecx
c0102e5b:	85 c9                	test   %ecx,%ecx
c0102e5d:	74 05                	je     c0102e64 <ARCH_INIT_PAGING+0x94>
c0102e5f:	88 02                	mov    %al,(%edx)
c0102e61:	83 c2 01             	add    $0x1,%edx
c0102e64:	a1 04 30 11 c0       	mov    0xc0113004,%eax
c0102e69:	8b 55 e8             	mov    -0x18(%ebp),%edx
c0102e6c:	c1 ea 16             	shr    $0x16,%edx
c0102e6f:	c1 e2 02             	shl    $0x2,%edx
c0102e72:	01 d0                	add    %edx,%eax
c0102e74:	8b 55 ec             	mov    -0x14(%ebp),%edx
c0102e77:	83 ca 03             	or     $0x3,%edx
c0102e7a:	89 10                	mov    %edx,(%eax)
c0102e7c:	c7 44 24 10 02 00 00 	movl   $0x2,0x10(%esp)
c0102e83:	00 
c0102e84:	c7 44 24 0c 00 20 00 	movl   $0x2000,0xc(%esp)
c0102e8b:	00 
c0102e8c:	c7 44 24 08 00 00 00 	movl   $0xc0000000,0x8(%esp)
c0102e93:	c0 
c0102e94:	c7 44 24 04 00 00 00 	movl   $0x0,0x4(%esp)
c0102e9b:	00 
c0102e9c:	c7 04 24 00 30 11 c0 	movl   $0xc0113000,(%esp)
c0102ea3:	e8 a9 fc ff ff       	call   c0102b51 <vmm_map_range>
c0102ea8:	c7 44 24 0c 02 00 00 	movl   $0x2,0xc(%esp)
c0102eaf:	00 
c0102eb0:	c7 44 24 08 00 80 0b 	movl   $0xc00b8000,0x8(%esp)
c0102eb7:	c0 
c0102eb8:	c7 44 24 04 00 80 0b 	movl   $0xb8000,0x4(%esp)
c0102ebf:	00 
c0102ec0:	c7 04 24 00 30 11 c0 	movl   $0xc0113000,(%esp)
c0102ec7:	e8 38 fc ff ff       	call   c0102b04 <vmm_map>
c0102ecc:	8b 45 08             	mov    0x8(%ebp),%eax
c0102ecf:	89 c2                	mov    %eax,%edx
c0102ed1:	81 e2 00 f0 ff ff    	and    $0xfffff000,%edx
c0102ed7:	8b 45 08             	mov    0x8(%ebp),%eax
c0102eda:	25 00 f0 ff ff       	and    $0xfffff000,%eax
c0102edf:	05 00 00 00 40       	add    $0x40000000,%eax
c0102ee4:	c7 44 24 0c 02 00 00 	movl   $0x2,0xc(%esp)
c0102eeb:	00 
c0102eec:	89 54 24 08          	mov    %edx,0x8(%esp)
c0102ef0:	89 44 24 04          	mov    %eax,0x4(%esp)
c0102ef4:	c7 04 24 00 30 11 c0 	movl   $0xc0113000,(%esp)
c0102efb:	e8 04 fc ff ff       	call   c0102b04 <vmm_map>
c0102f00:	8b 45 08             	mov    0x8(%ebp),%eax
c0102f03:	8b 40 18             	mov    0x18(%eax),%eax
c0102f06:	89 c2                	mov    %eax,%edx
c0102f08:	81 e2 00 f0 ff ff    	and    $0xfffff000,%edx
c0102f0e:	8b 45 08             	mov    0x8(%ebp),%eax
c0102f11:	8b 40 18             	mov    0x18(%eax),%eax
c0102f14:	25 00 f0 ff ff       	and    $0xfffff000,%eax
c0102f19:	05 00 00 00 40       	add    $0x40000000,%eax
c0102f1e:	c7 44 24 0c 02 00 00 	movl   $0x2,0xc(%esp)
c0102f25:	00 
c0102f26:	89 54 24 08          	mov    %edx,0x8(%esp)
c0102f2a:	89 44 24 04          	mov    %eax,0x4(%esp)
c0102f2e:	c7 04 24 00 30 11 c0 	movl   $0xc0113000,(%esp)
c0102f35:	e8 ca fb ff ff       	call   c0102b04 <vmm_map>
c0102f3a:	8b 45 08             	mov    0x8(%ebp),%eax
c0102f3d:	8b 40 18             	mov    0x18(%eax),%eax
c0102f40:	89 45 e4             	mov    %eax,-0x1c(%ebp)
c0102f43:	c7 45 f4 00 00 00 00 	movl   $0x0,-0xc(%ebp)
c0102f4a:	eb 53                	jmp    c0102f9f <ARCH_INIT_PAGING+0x1cf>
c0102f4c:	8b 45 f4             	mov    -0xc(%ebp),%eax
c0102f4f:	c1 e0 04             	shl    $0x4,%eax
c0102f52:	03 45 e4             	add    -0x1c(%ebp),%eax
c0102f55:	8b 00                	mov    (%eax),%eax
c0102f57:	25 00 f0 ff ff       	and    $0xfffff000,%eax
c0102f5c:	89 45 f0             	mov    %eax,-0x10(%ebp)
c0102f5f:	eb 29                	jmp    c0102f8a <ARCH_INIT_PAGING+0x1ba>
c0102f61:	c7 44 24 0c 03 00 00 	movl   $0x3,0xc(%esp)
c0102f68:	00 
c0102f69:	8b 45 f0             	mov    -0x10(%ebp),%eax
c0102f6c:	89 44 24 08          	mov    %eax,0x8(%esp)
c0102f70:	8b 45 f0             	mov    -0x10(%ebp),%eax
c0102f73:	89 44 24 04          	mov    %eax,0x4(%esp)
c0102f77:	c7 04 24 00 30 11 c0 	movl   $0xc0113000,(%esp)
c0102f7e:	e8 81 fb ff ff       	call   c0102b04 <vmm_map>
c0102f83:	81 45 f0 00 10 00 00 	addl   $0x1000,-0x10(%ebp)
c0102f8a:	8b 45 f4             	mov    -0xc(%ebp),%eax
c0102f8d:	c1 e0 04             	shl    $0x4,%eax
c0102f90:	03 45 e4             	add    -0x1c(%ebp),%eax
c0102f93:	8b 40 04             	mov    0x4(%eax),%eax
c0102f96:	3b 45 f0             	cmp    -0x10(%ebp),%eax
c0102f99:	77 c6                	ja     c0102f61 <ARCH_INIT_PAGING+0x191>
c0102f9b:	83 45 f4 01          	addl   $0x1,-0xc(%ebp)
c0102f9f:	8b 55 f4             	mov    -0xc(%ebp),%edx
c0102fa2:	8b 45 08             	mov    0x8(%ebp),%eax
c0102fa5:	8b 40 14             	mov    0x14(%eax),%eax
c0102fa8:	39 c2                	cmp    %eax,%edx
c0102faa:	72 a0                	jb     c0102f4c <ARCH_INIT_PAGING+0x17c>
c0102fac:	c7 44 24 08 02 00 00 	movl   $0x2,0x8(%esp)
c0102fb3:	00 
c0102fb4:	8b 45 ec             	mov    -0x14(%ebp),%eax
c0102fb7:	89 44 24 04          	mov    %eax,0x4(%esp)
c0102fbb:	c7 04 24 00 30 11 c0 	movl   $0xc0113000,(%esp)
c0102fc2:	e8 1b fc ff ff       	call   c0102be2 <vmm_automap_kernel>
c0102fc7:	89 45 e0             	mov    %eax,-0x20(%ebp)
c0102fca:	8b 45 e0             	mov    -0x20(%ebp),%eax
c0102fcd:	a3 04 30 11 c0       	mov    %eax,0xc0113004
c0102fd2:	c7 04 24 04 30 11 c0 	movl   $0xc0113004,(%esp)
c0102fd9:	e8 0f 07 00 00       	call   c01036ed <arch_switch_context>
c0102fde:	c7 05 00 10 11 c0 00 	movl   $0xc0113000,0xc0111000
c0102fe5:	30 11 c0 
c0102fe8:	83 c4 40             	add    $0x40,%esp
c0102feb:	5b                   	pop    %ebx
c0102fec:	5f                   	pop    %edi
c0102fed:	5d                   	pop    %ebp
c0102fee:	c3                   	ret    

c0102fef <arch_vmm_create_context>:
c0102fef:	55                   	push   %ebp
c0102ff0:	89 e5                	mov    %esp,%ebp
c0102ff2:	57                   	push   %edi
c0102ff3:	53                   	push   %ebx
c0102ff4:	83 ec 20             	sub    $0x20,%esp
c0102ff7:	e8 18 71 00 00       	call   c010a114 <pmm_alloc_page>
c0102ffc:	89 45 f4             	mov    %eax,-0xc(%ebp)
c0102fff:	a1 00 10 11 c0       	mov    0xc0111000,%eax
c0103004:	c7 44 24 08 03 00 00 	movl   $0x3,0x8(%esp)
c010300b:	00 
c010300c:	8b 55 f4             	mov    -0xc(%ebp),%edx
c010300f:	89 54 24 04          	mov    %edx,0x4(%esp)
c0103013:	89 04 24             	mov    %eax,(%esp)
c0103016:	e8 c7 fb ff ff       	call   c0102be2 <vmm_automap_kernel>
c010301b:	89 45 f0             	mov    %eax,-0x10(%ebp)
c010301e:	8b 45 f0             	mov    -0x10(%ebp),%eax
c0103021:	89 c2                	mov    %eax,%edx
c0103023:	bb 00 10 00 00       	mov    $0x1000,%ebx
c0103028:	b8 00 00 00 00       	mov    $0x0,%eax
c010302d:	89 d1                	mov    %edx,%ecx
c010302f:	83 e1 01             	and    $0x1,%ecx
c0103032:	85 c9                	test   %ecx,%ecx
c0103034:	74 08                	je     c010303e <arch_vmm_create_context+0x4f>
c0103036:	88 02                	mov    %al,(%edx)
c0103038:	83 c2 01             	add    $0x1,%edx
c010303b:	83 eb 01             	sub    $0x1,%ebx
c010303e:	89 d1                	mov    %edx,%ecx
c0103040:	83 e1 02             	and    $0x2,%ecx
c0103043:	85 c9                	test   %ecx,%ecx
c0103045:	74 09                	je     c0103050 <arch_vmm_create_context+0x61>
c0103047:	66 89 02             	mov    %ax,(%edx)
c010304a:	83 c2 02             	add    $0x2,%edx
c010304d:	83 eb 02             	sub    $0x2,%ebx
c0103050:	89 d9                	mov    %ebx,%ecx
c0103052:	c1 e9 02             	shr    $0x2,%ecx
c0103055:	89 d7                	mov    %edx,%edi
c0103057:	f3 ab                	rep stos %eax,%es:(%edi)
c0103059:	89 fa                	mov    %edi,%edx
c010305b:	89 d9                	mov    %ebx,%ecx
c010305d:	83 e1 02             	and    $0x2,%ecx
c0103060:	85 c9                	test   %ecx,%ecx
c0103062:	74 06                	je     c010306a <arch_vmm_create_context+0x7b>
c0103064:	66 89 02             	mov    %ax,(%edx)
c0103067:	83 c2 02             	add    $0x2,%edx
c010306a:	89 d9                	mov    %ebx,%ecx
c010306c:	83 e1 01             	and    $0x1,%ecx
c010306f:	85 c9                	test   %ecx,%ecx
c0103071:	74 05                	je     c0103078 <arch_vmm_create_context+0x89>
c0103073:	88 02                	mov    %al,(%edx)
c0103075:	83 c2 01             	add    $0x1,%edx
c0103078:	e8 97 70 00 00       	call   c010a114 <pmm_alloc_page>
c010307d:	89 45 ec             	mov    %eax,-0x14(%ebp)
c0103080:	a1 00 10 11 c0       	mov    0xc0111000,%eax
c0103085:	c7 44 24 08 03 00 00 	movl   $0x3,0x8(%esp)
c010308c:	00 
c010308d:	8b 55 ec             	mov    -0x14(%ebp),%edx
c0103090:	89 54 24 04          	mov    %edx,0x4(%esp)
c0103094:	89 04 24             	mov    %eax,(%esp)
c0103097:	e8 46 fb ff ff       	call   c0102be2 <vmm_automap_kernel>
c010309c:	89 45 e8             	mov    %eax,-0x18(%ebp)
c010309f:	8b 45 e8             	mov    -0x18(%ebp),%eax
c01030a2:	89 c2                	mov    %eax,%edx
c01030a4:	bb 00 10 00 00       	mov    $0x1000,%ebx
c01030a9:	b8 00 00 00 00       	mov    $0x0,%eax
c01030ae:	89 d1                	mov    %edx,%ecx
c01030b0:	83 e1 01             	and    $0x1,%ecx
c01030b3:	85 c9                	test   %ecx,%ecx
c01030b5:	74 08                	je     c01030bf <arch_vmm_create_context+0xd0>
c01030b7:	88 02                	mov    %al,(%edx)
c01030b9:	83 c2 01             	add    $0x1,%edx
c01030bc:	83 eb 01             	sub    $0x1,%ebx
c01030bf:	89 d1                	mov    %edx,%ecx
c01030c1:	83 e1 02             	and    $0x2,%ecx
c01030c4:	85 c9                	test   %ecx,%ecx
c01030c6:	74 09                	je     c01030d1 <arch_vmm_create_context+0xe2>
c01030c8:	66 89 02             	mov    %ax,(%edx)
c01030cb:	83 c2 02             	add    $0x2,%edx
c01030ce:	83 eb 02             	sub    $0x2,%ebx
c01030d1:	89 d9                	mov    %ebx,%ecx
c01030d3:	c1 e9 02             	shr    $0x2,%ecx
c01030d6:	89 d7                	mov    %edx,%edi
c01030d8:	f3 ab                	rep stos %eax,%es:(%edi)
c01030da:	89 fa                	mov    %edi,%edx
c01030dc:	89 d9                	mov    %ebx,%ecx
c01030de:	83 e1 02             	and    $0x2,%ecx
c01030e1:	85 c9                	test   %ecx,%ecx
c01030e3:	74 06                	je     c01030eb <arch_vmm_create_context+0xfc>
c01030e5:	66 89 02             	mov    %ax,(%edx)
c01030e8:	83 c2 02             	add    $0x2,%edx
c01030eb:	89 d9                	mov    %ebx,%ecx
c01030ed:	83 e1 01             	and    $0x1,%ecx
c01030f0:	85 c9                	test   %ecx,%ecx
c01030f2:	74 05                	je     c01030f9 <arch_vmm_create_context+0x10a>
c01030f4:	88 02                	mov    %al,(%edx)
c01030f6:	83 c2 01             	add    $0x1,%edx
c01030f9:	8b 55 e8             	mov    -0x18(%ebp),%edx
c01030fc:	8b 45 f0             	mov    -0x10(%ebp),%eax
c01030ff:	89 10                	mov    %edx,(%eax)
c0103101:	8b 45 f0             	mov    -0x10(%ebp),%eax
c0103104:	8b 55 ec             	mov    -0x14(%ebp),%edx
c0103107:	89 50 04             	mov    %edx,0x4(%eax)
c010310a:	8b 45 f0             	mov    -0x10(%ebp),%eax
c010310d:	89 04 24             	mov    %eax,(%esp)
c0103110:	e8 75 00 00 00       	call   c010318a <arch_update_context>
c0103115:	8b 45 f0             	mov    -0x10(%ebp),%eax
c0103118:	8b 00                	mov    (%eax),%eax
c010311a:	05 f8 0f 00 00       	add    $0xff8,%eax
c010311f:	8b 55 ec             	mov    -0x14(%ebp),%edx
c0103122:	83 ca 03             	or     $0x3,%edx
c0103125:	89 10                	mov    %edx,(%eax)
c0103127:	8b 45 f0             	mov    -0x10(%ebp),%eax
c010312a:	83 c4 20             	add    $0x20,%esp
c010312d:	5b                   	pop    %ebx
c010312e:	5f                   	pop    %edi
c010312f:	5d                   	pop    %ebp
c0103130:	c3                   	ret    

c0103131 <arch_vmm_destroy_context>:
c0103131:	55                   	push   %ebp
c0103132:	89 e5                	mov    %esp,%ebp
c0103134:	83 ec 28             	sub    $0x28,%esp
c0103137:	c7 45 f4 00 00 00 00 	movl   $0x0,-0xc(%ebp)
c010313e:	eb 31                	jmp    c0103171 <arch_vmm_destroy_context+0x40>
c0103140:	8b 45 08             	mov    0x8(%ebp),%eax
c0103143:	8b 00                	mov    (%eax),%eax
c0103145:	8b 55 f4             	mov    -0xc(%ebp),%edx
c0103148:	c1 e2 02             	shl    $0x2,%edx
c010314b:	01 d0                	add    %edx,%eax
c010314d:	8b 00                	mov    (%eax),%eax
c010314f:	83 e0 01             	and    $0x1,%eax
c0103152:	84 c0                	test   %al,%al
c0103154:	74 17                	je     c010316d <arch_vmm_destroy_context+0x3c>
c0103156:	8b 45 08             	mov    0x8(%ebp),%eax
c0103159:	8b 00                	mov    (%eax),%eax
c010315b:	8b 55 f4             	mov    -0xc(%ebp),%edx
c010315e:	c1 e2 02             	shl    $0x2,%edx
c0103161:	01 d0                	add    %edx,%eax
c0103163:	8b 00                	mov    (%eax),%eax
c0103165:	89 04 24             	mov    %eax,(%esp)
c0103168:	e8 8d 6c 00 00       	call   c0109dfa <pmm_mark_page_as_free>
c010316d:	83 45 f4 01          	addl   $0x1,-0xc(%ebp)
c0103171:	81 7d f4 ff 03 00 00 	cmpl   $0x3ff,-0xc(%ebp)
c0103178:	7e c6                	jle    c0103140 <arch_vmm_destroy_context+0xf>
c010317a:	8b 45 08             	mov    0x8(%ebp),%eax
c010317d:	8b 40 04             	mov    0x4(%eax),%eax
c0103180:	89 04 24             	mov    %eax,(%esp)
c0103183:	e8 72 6c 00 00       	call   c0109dfa <pmm_mark_page_as_free>
c0103188:	c9                   	leave  
c0103189:	c3                   	ret    

c010318a <arch_update_context>:
c010318a:	55                   	push   %ebp
c010318b:	89 e5                	mov    %esp,%ebp
c010318d:	83 ec 28             	sub    $0x28,%esp
c0103190:	a1 00 10 11 c0       	mov    0xc0111000,%eax
c0103195:	39 45 08             	cmp    %eax,0x8(%ebp)
c0103198:	74 5b                	je     c01031f5 <arch_update_context+0x6b>
c010319a:	8b 45 08             	mov    0x8(%ebp),%eax
c010319d:	8b 00                	mov    (%eax),%eax
c010319f:	05 00 0c 00 00       	add    $0xc00,%eax
c01031a4:	89 45 f4             	mov    %eax,-0xc(%ebp)
c01031a7:	a1 00 10 11 c0       	mov    0xc0111000,%eax
c01031ac:	8b 00                	mov    (%eax),%eax
c01031ae:	8b 00                	mov    (%eax),%eax
c01031b0:	05 00 0c 00 00       	add    $0xc00,%eax
c01031b5:	89 45 f0             	mov    %eax,-0x10(%ebp)
c01031b8:	c7 45 ec ff 00 00 00 	movl   $0xff,-0x14(%ebp)
c01031bf:	8b 45 ec             	mov    -0x14(%ebp),%eax
c01031c2:	8d 0c 85 00 00 00 00 	lea    0x0(,%eax,4),%ecx
c01031c9:	8b 55 f0             	mov    -0x10(%ebp),%edx
c01031cc:	8b 45 f4             	mov    -0xc(%ebp),%eax
c01031cf:	89 4c 24 08          	mov    %ecx,0x8(%esp)
c01031d3:	89 54 24 04          	mov    %edx,0x4(%esp)
c01031d7:	89 04 24             	mov    %eax,(%esp)
c01031da:	e8 bf 69 00 00       	call   c0109b9e <memcpy>
c01031df:	8b 45 08             	mov    0x8(%ebp),%eax
c01031e2:	8b 00                	mov    (%eax),%eax
c01031e4:	8d 90 f8 0f 00 00    	lea    0xff8(%eax),%edx
c01031ea:	8b 45 08             	mov    0x8(%ebp),%eax
c01031ed:	8b 40 04             	mov    0x4(%eax),%eax
c01031f0:	83 c8 03             	or     $0x3,%eax
c01031f3:	89 02                	mov    %eax,(%edx)
c01031f5:	c9                   	leave  
c01031f6:	c3                   	ret    

c01031f7 <arch_sync_pts>:
c01031f7:	55                   	push   %ebp
c01031f8:	89 e5                	mov    %esp,%ebp
c01031fa:	83 ec 10             	sub    $0x10,%esp
c01031fd:	8b 45 10             	mov    0x10(%ebp),%eax
c0103200:	89 45 fc             	mov    %eax,-0x4(%ebp)
c0103203:	eb 22                	jmp    c0103227 <arch_sync_pts+0x30>
c0103205:	8b 45 0c             	mov    0xc(%ebp),%eax
c0103208:	8b 00                	mov    (%eax),%eax
c010320a:	8b 55 fc             	mov    -0x4(%ebp),%edx
c010320d:	c1 e2 02             	shl    $0x2,%edx
c0103210:	01 c2                	add    %eax,%edx
c0103212:	8b 45 08             	mov    0x8(%ebp),%eax
c0103215:	8b 00                	mov    (%eax),%eax
c0103217:	8b 4d fc             	mov    -0x4(%ebp),%ecx
c010321a:	c1 e1 02             	shl    $0x2,%ecx
c010321d:	01 c8                	add    %ecx,%eax
c010321f:	8b 00                	mov    (%eax),%eax
c0103221:	89 02                	mov    %eax,(%edx)
c0103223:	83 45 fc 01          	addl   $0x1,-0x4(%ebp)
c0103227:	8b 45 fc             	mov    -0x4(%ebp),%eax
c010322a:	3b 45 14             	cmp    0x14(%ebp),%eax
c010322d:	7c d6                	jl     c0103205 <arch_sync_pts+0xe>
c010322f:	c9                   	leave  
c0103230:	c3                   	ret    

c0103231 <pt_get>:
c0103231:	55                   	push   %ebp
c0103232:	89 e5                	mov    %esp,%ebp
c0103234:	83 ec 38             	sub    $0x38,%esp
c0103237:	8b 45 10             	mov    0x10(%ebp),%eax
c010323a:	88 45 e4             	mov    %al,-0x1c(%ebp)
c010323d:	a1 00 10 11 c0       	mov    0xc0111000,%eax
c0103242:	85 c0                	test   %eax,%eax
c0103244:	74 54                	je     c010329a <pt_get+0x69>
c0103246:	a1 00 10 11 c0       	mov    0xc0111000,%eax
c010324b:	8b 00                	mov    (%eax),%eax
c010324d:	3b 45 08             	cmp    0x8(%ebp),%eax
c0103250:	75 10                	jne    c0103262 <pt_get+0x31>
c0103252:	8b 45 0c             	mov    0xc(%ebp),%eax
c0103255:	05 00 f8 0f 00       	add    $0xff800,%eax
c010325a:	c1 e0 0c             	shl    $0xc,%eax
c010325d:	89 45 f4             	mov    %eax,-0xc(%ebp)
c0103260:	eb 4f                	jmp    c01032b1 <pt_get+0x80>
c0103262:	8b 45 08             	mov    0x8(%ebp),%eax
c0103265:	8b 00                	mov    (%eax),%eax
c0103267:	8b 55 0c             	mov    0xc(%ebp),%edx
c010326a:	c1 e2 02             	shl    $0x2,%edx
c010326d:	01 d0                	add    %edx,%eax
c010326f:	8b 00                	mov    (%eax),%eax
c0103271:	25 00 f0 ff ff       	and    $0xfffff000,%eax
c0103276:	89 45 f4             	mov    %eax,-0xc(%ebp)
c0103279:	0f b6 4d e4          	movzbl -0x1c(%ebp),%ecx
c010327d:	8b 55 f4             	mov    -0xc(%ebp),%edx
c0103280:	a1 00 10 11 c0       	mov    0xc0111000,%eax
c0103285:	89 4c 24 08          	mov    %ecx,0x8(%esp)
c0103289:	89 54 24 04          	mov    %edx,0x4(%esp)
c010328d:	89 04 24             	mov    %eax,(%esp)
c0103290:	e8 4d f9 ff ff       	call   c0102be2 <vmm_automap_kernel>
c0103295:	89 45 f4             	mov    %eax,-0xc(%ebp)
c0103298:	eb 17                	jmp    c01032b1 <pt_get+0x80>
c010329a:	8b 45 08             	mov    0x8(%ebp),%eax
c010329d:	8b 00                	mov    (%eax),%eax
c010329f:	8b 55 0c             	mov    0xc(%ebp),%edx
c01032a2:	c1 e2 02             	shl    $0x2,%edx
c01032a5:	01 d0                	add    %edx,%eax
c01032a7:	8b 00                	mov    (%eax),%eax
c01032a9:	25 00 f0 ff ff       	and    $0xfffff000,%eax
c01032ae:	89 45 f4             	mov    %eax,-0xc(%ebp)
c01032b1:	8b 45 f4             	mov    -0xc(%ebp),%eax
c01032b4:	c9                   	leave  
c01032b5:	c3                   	ret    

c01032b6 <pt_create>:
c01032b6:	55                   	push   %ebp
c01032b7:	89 e5                	mov    %esp,%ebp
c01032b9:	57                   	push   %edi
c01032ba:	53                   	push   %ebx
c01032bb:	83 ec 30             	sub    $0x30,%esp
c01032be:	8b 45 10             	mov    0x10(%ebp),%eax
c01032c1:	88 45 e4             	mov    %al,-0x1c(%ebp)
c01032c4:	c7 04 24 00 00 00 00 	movl   $0x0,(%esp)
c01032cb:	e8 81 6e 00 00       	call   c010a151 <pmm_alloc_page_limit>
c01032d0:	89 45 f4             	mov    %eax,-0xc(%ebp)
c01032d3:	8b 45 08             	mov    0x8(%ebp),%eax
c01032d6:	8b 00                	mov    (%eax),%eax
c01032d8:	8b 55 0c             	mov    0xc(%ebp),%edx
c01032db:	c1 e2 02             	shl    $0x2,%edx
c01032de:	01 d0                	add    %edx,%eax
c01032e0:	0f b6 4d e4          	movzbl -0x1c(%ebp),%ecx
c01032e4:	8b 55 f4             	mov    -0xc(%ebp),%edx
c01032e7:	09 ca                	or     %ecx,%edx
c01032e9:	83 ca 01             	or     $0x1,%edx
c01032ec:	89 10                	mov    %edx,(%eax)
c01032ee:	0f b6 45 e4          	movzbl -0x1c(%ebp),%eax
c01032f2:	83 c8 01             	or     $0x1,%eax
c01032f5:	0f b6 c0             	movzbl %al,%eax
c01032f8:	89 44 24 08          	mov    %eax,0x8(%esp)
c01032fc:	8b 45 0c             	mov    0xc(%ebp),%eax
c01032ff:	89 44 24 04          	mov    %eax,0x4(%esp)
c0103303:	8b 45 08             	mov    0x8(%ebp),%eax
c0103306:	89 04 24             	mov    %eax,(%esp)
c0103309:	e8 23 ff ff ff       	call   c0103231 <pt_get>
c010330e:	89 45 f4             	mov    %eax,-0xc(%ebp)
c0103311:	8b 45 f4             	mov    -0xc(%ebp),%eax
c0103314:	89 c2                	mov    %eax,%edx
c0103316:	bb 00 10 00 00       	mov    $0x1000,%ebx
c010331b:	b8 00 00 00 00       	mov    $0x0,%eax
c0103320:	89 d1                	mov    %edx,%ecx
c0103322:	83 e1 01             	and    $0x1,%ecx
c0103325:	85 c9                	test   %ecx,%ecx
c0103327:	74 08                	je     c0103331 <pt_create+0x7b>
c0103329:	88 02                	mov    %al,(%edx)
c010332b:	83 c2 01             	add    $0x1,%edx
c010332e:	83 eb 01             	sub    $0x1,%ebx
c0103331:	89 d1                	mov    %edx,%ecx
c0103333:	83 e1 02             	and    $0x2,%ecx
c0103336:	85 c9                	test   %ecx,%ecx
c0103338:	74 09                	je     c0103343 <pt_create+0x8d>
c010333a:	66 89 02             	mov    %ax,(%edx)
c010333d:	83 c2 02             	add    $0x2,%edx
c0103340:	83 eb 02             	sub    $0x2,%ebx
c0103343:	89 d9                	mov    %ebx,%ecx
c0103345:	c1 e9 02             	shr    $0x2,%ecx
c0103348:	89 d7                	mov    %edx,%edi
c010334a:	f3 ab                	rep stos %eax,%es:(%edi)
c010334c:	89 fa                	mov    %edi,%edx
c010334e:	89 d9                	mov    %ebx,%ecx
c0103350:	83 e1 02             	and    $0x2,%ecx
c0103353:	85 c9                	test   %ecx,%ecx
c0103355:	74 06                	je     c010335d <pt_create+0xa7>
c0103357:	66 89 02             	mov    %ax,(%edx)
c010335a:	83 c2 02             	add    $0x2,%edx
c010335d:	89 d9                	mov    %ebx,%ecx
c010335f:	83 e1 01             	and    $0x1,%ecx
c0103362:	85 c9                	test   %ecx,%ecx
c0103364:	74 05                	je     c010336b <pt_create+0xb5>
c0103366:	88 02                	mov    %al,(%edx)
c0103368:	83 c2 01             	add    $0x1,%edx
c010336b:	8b 45 f4             	mov    -0xc(%ebp),%eax
c010336e:	83 c4 30             	add    $0x30,%esp
c0103371:	5b                   	pop    %ebx
c0103372:	5f                   	pop    %edi
c0103373:	5d                   	pop    %ebp
c0103374:	c3                   	ret    

c0103375 <pt_destroy>:
c0103375:	55                   	push   %ebp
c0103376:	89 e5                	mov    %esp,%ebp
c0103378:	83 ec 18             	sub    $0x18,%esp
c010337b:	8b 45 08             	mov    0x8(%ebp),%eax
c010337e:	8b 00                	mov    (%eax),%eax
c0103380:	8b 55 0c             	mov    0xc(%ebp),%edx
c0103383:	c1 e2 02             	shl    $0x2,%edx
c0103386:	01 d0                	add    %edx,%eax
c0103388:	8b 00                	mov    (%eax),%eax
c010338a:	89 04 24             	mov    %eax,(%esp)
c010338d:	e8 68 6a 00 00       	call   c0109dfa <pmm_mark_page_as_free>
c0103392:	8b 45 08             	mov    0x8(%ebp),%eax
c0103395:	8b 00                	mov    (%eax),%eax
c0103397:	8b 55 0c             	mov    0xc(%ebp),%edx
c010339a:	c1 e2 02             	shl    $0x2,%edx
c010339d:	01 d0                	add    %edx,%eax
c010339f:	c7 00 00 00 00 00    	movl   $0x0,(%eax)
c01033a5:	c9                   	leave  
c01033a6:	c3                   	ret    

c01033a7 <arch_map>:
c01033a7:	55                   	push   %ebp
c01033a8:	89 e5                	mov    %esp,%ebp
c01033aa:	83 ec 38             	sub    $0x38,%esp
c01033ad:	8b 45 14             	mov    0x14(%ebp),%eax
c01033b0:	88 45 e4             	mov    %al,-0x1c(%ebp)
c01033b3:	8b 45 0c             	mov    0xc(%ebp),%eax
c01033b6:	25 ff 0f 00 00       	and    $0xfff,%eax
c01033bb:	85 c0                	test   %eax,%eax
c01033bd:	75 0c                	jne    c01033cb <arch_map+0x24>
c01033bf:	8b 45 10             	mov    0x10(%ebp),%eax
c01033c2:	25 ff 0f 00 00       	and    $0xfff,%eax
c01033c7:	85 c0                	test   %eax,%eax
c01033c9:	74 24                	je     c01033ef <arch_map+0x48>
c01033cb:	8b 45 10             	mov    0x10(%ebp),%eax
c01033ce:	89 44 24 08          	mov    %eax,0x8(%esp)
c01033d2:	8b 45 0c             	mov    0xc(%ebp),%eax
c01033d5:	89 44 24 04          	mov    %eax,0x4(%esp)
c01033d9:	c7 04 24 a0 bb 10 c0 	movl   $0xc010bba0,(%esp)
c01033e0:	e8 6f 1e 00 00       	call   c0105254 <printf>
c01033e5:	b8 ff ff ff ff       	mov    $0xffffffff,%eax
c01033ea:	e9 dc 00 00 00       	jmp    c01034cb <arch_map+0x124>
c01033ef:	8b 45 10             	mov    0x10(%ebp),%eax
c01033f2:	c1 e8 16             	shr    $0x16,%eax
c01033f5:	89 45 f0             	mov    %eax,-0x10(%ebp)
c01033f8:	8b 45 10             	mov    0x10(%ebp),%eax
c01033fb:	c1 e8 0c             	shr    $0xc,%eax
c01033fe:	25 ff 03 00 00       	and    $0x3ff,%eax
c0103403:	89 45 ec             	mov    %eax,-0x14(%ebp)
c0103406:	c7 45 f4 00 00 00 00 	movl   $0x0,-0xc(%ebp)
c010340d:	8b 45 08             	mov    0x8(%ebp),%eax
c0103410:	8b 00                	mov    (%eax),%eax
c0103412:	8b 55 f0             	mov    -0x10(%ebp),%edx
c0103415:	c1 e2 02             	shl    $0x2,%edx
c0103418:	01 d0                	add    %edx,%eax
c010341a:	8b 00                	mov    (%eax),%eax
c010341c:	89 45 e8             	mov    %eax,-0x18(%ebp)
c010341f:	8b 45 e8             	mov    -0x18(%ebp),%eax
c0103422:	83 e0 01             	and    $0x1,%eax
c0103425:	84 c0                	test   %al,%al
c0103427:	74 25                	je     c010344e <arch_map+0xa7>
c0103429:	0f b6 45 e4          	movzbl -0x1c(%ebp),%eax
c010342d:	83 c8 01             	or     $0x1,%eax
c0103430:	0f b6 d0             	movzbl %al,%edx
c0103433:	8b 45 f0             	mov    -0x10(%ebp),%eax
c0103436:	89 54 24 08          	mov    %edx,0x8(%esp)
c010343a:	89 44 24 04          	mov    %eax,0x4(%esp)
c010343e:	8b 45 08             	mov    0x8(%ebp),%eax
c0103441:	89 04 24             	mov    %eax,(%esp)
c0103444:	e8 e8 fd ff ff       	call   c0103231 <pt_get>
c0103449:	89 45 f4             	mov    %eax,-0xc(%ebp)
c010344c:	eb 23                	jmp    c0103471 <arch_map+0xca>
c010344e:	0f b6 45 e4          	movzbl -0x1c(%ebp),%eax
c0103452:	83 c8 01             	or     $0x1,%eax
c0103455:	0f b6 d0             	movzbl %al,%edx
c0103458:	8b 45 f0             	mov    -0x10(%ebp),%eax
c010345b:	89 54 24 08          	mov    %edx,0x8(%esp)
c010345f:	89 44 24 04          	mov    %eax,0x4(%esp)
c0103463:	8b 45 08             	mov    0x8(%ebp),%eax
c0103466:	89 04 24             	mov    %eax,(%esp)
c0103469:	e8 48 fe ff ff       	call   c01032b6 <pt_create>
c010346e:	89 45 f4             	mov    %eax,-0xc(%ebp)
c0103471:	8b 45 ec             	mov    -0x14(%ebp),%eax
c0103474:	c1 e0 02             	shl    $0x2,%eax
c0103477:	03 45 f4             	add    -0xc(%ebp),%eax
c010347a:	8b 55 0c             	mov    0xc(%ebp),%edx
c010347d:	89 d1                	mov    %edx,%ecx
c010347f:	81 e1 00 f0 ff ff    	and    $0xfffff000,%ecx
c0103485:	0f b6 55 e4          	movzbl -0x1c(%ebp),%edx
c0103489:	09 ca                	or     %ecx,%edx
c010348b:	83 ca 01             	or     $0x1,%edx
c010348e:	89 10                	mov    %edx,(%eax)
c0103490:	a1 00 10 11 c0       	mov    0xc0111000,%eax
c0103495:	85 c0                	test   %eax,%eax
c0103497:	74 2d                	je     c01034c6 <arch_map+0x11f>
c0103499:	a1 00 10 11 c0       	mov    0xc0111000,%eax
c010349e:	8b 00                	mov    (%eax),%eax
c01034a0:	3b 45 08             	cmp    0x8(%ebp),%eax
c01034a3:	75 0d                	jne    c01034b2 <arch_map+0x10b>
c01034a5:	8b 45 10             	mov    0x10(%ebp),%eax
c01034a8:	89 04 24             	mov    %eax,(%esp)
c01034ab:	e8 f8 02 00 00       	call   c01037a8 <paging_flush_tlb>
c01034b0:	eb 14                	jmp    c01034c6 <arch_map+0x11f>
c01034b2:	8b 55 f4             	mov    -0xc(%ebp),%edx
c01034b5:	a1 00 10 11 c0       	mov    0xc0111000,%eax
c01034ba:	89 54 24 04          	mov    %edx,0x4(%esp)
c01034be:	89 04 24             	mov    %eax,(%esp)
c01034c1:	e8 6f f6 ff ff       	call   c0102b35 <vmm_unmap>
c01034c6:	b8 00 00 00 00       	mov    $0x0,%eax
c01034cb:	c9                   	leave  
c01034cc:	c3                   	ret    

c01034cd <arch_unmap>:
c01034cd:	55                   	push   %ebp
c01034ce:	89 e5                	mov    %esp,%ebp
c01034d0:	83 ec 28             	sub    $0x28,%esp
c01034d3:	8b 45 0c             	mov    0xc(%ebp),%eax
c01034d6:	c1 e8 16             	shr    $0x16,%eax
c01034d9:	c7 44 24 08 02 00 00 	movl   $0x2,0x8(%esp)
c01034e0:	00 
c01034e1:	89 44 24 04          	mov    %eax,0x4(%esp)
c01034e5:	8b 45 08             	mov    0x8(%ebp),%eax
c01034e8:	89 04 24             	mov    %eax,(%esp)
c01034eb:	e8 41 fd ff ff       	call   c0103231 <pt_get>
c01034f0:	89 45 ec             	mov    %eax,-0x14(%ebp)
c01034f3:	8b 45 0c             	mov    0xc(%ebp),%eax
c01034f6:	c1 e8 0c             	shr    $0xc,%eax
c01034f9:	25 ff 03 00 00       	and    $0x3ff,%eax
c01034fe:	c1 e0 02             	shl    $0x2,%eax
c0103501:	03 45 ec             	add    -0x14(%ebp),%eax
c0103504:	c7 00 00 00 00 00    	movl   $0x0,(%eax)
c010350a:	c7 45 f4 01 00 00 00 	movl   $0x1,-0xc(%ebp)
c0103511:	c7 45 f0 00 00 00 00 	movl   $0x0,-0x10(%ebp)
c0103518:	eb 1c                	jmp    c0103536 <arch_unmap+0x69>
c010351a:	8b 45 f0             	mov    -0x10(%ebp),%eax
c010351d:	c1 e0 02             	shl    $0x2,%eax
c0103520:	03 45 ec             	add    -0x14(%ebp),%eax
c0103523:	8b 00                	mov    (%eax),%eax
c0103525:	85 c0                	test   %eax,%eax
c0103527:	74 09                	je     c0103532 <arch_unmap+0x65>
c0103529:	c7 45 f4 00 00 00 00 	movl   $0x0,-0xc(%ebp)
c0103530:	eb 0d                	jmp    c010353f <arch_unmap+0x72>
c0103532:	83 45 f0 01          	addl   $0x1,-0x10(%ebp)
c0103536:	81 7d f0 ff 03 00 00 	cmpl   $0x3ff,-0x10(%ebp)
c010353d:	7e db                	jle    c010351a <arch_unmap+0x4d>
c010353f:	83 7d f4 00          	cmpl   $0x0,-0xc(%ebp)
c0103543:	74 15                	je     c010355a <arch_unmap+0x8d>
c0103545:	8b 45 0c             	mov    0xc(%ebp),%eax
c0103548:	c1 e8 16             	shr    $0x16,%eax
c010354b:	89 44 24 04          	mov    %eax,0x4(%esp)
c010354f:	8b 45 08             	mov    0x8(%ebp),%eax
c0103552:	89 04 24             	mov    %eax,(%esp)
c0103555:	e8 1b fe ff ff       	call   c0103375 <pt_destroy>
c010355a:	b8 00 00 00 00       	mov    $0x0,%eax
c010355f:	c9                   	leave  
c0103560:	c3                   	ret    

c0103561 <arch_vaddr_find>:
c0103561:	55                   	push   %ebp
c0103562:	89 e5                	mov    %esp,%ebp
c0103564:	83 ec 48             	sub    $0x48,%esp
c0103567:	c7 45 f4 00 00 00 00 	movl   $0x0,-0xc(%ebp)
c010356e:	c7 45 e4 00 00 00 00 	movl   $0x0,-0x1c(%ebp)
c0103575:	c7 45 f0 00 00 00 00 	movl   $0x0,-0x10(%ebp)
c010357c:	8b 45 10             	mov    0x10(%ebp),%eax
c010357f:	c1 e8 16             	shr    $0x16,%eax
c0103582:	89 45 ec             	mov    %eax,-0x14(%ebp)
c0103585:	8b 45 10             	mov    0x10(%ebp),%eax
c0103588:	c1 e8 0c             	shr    $0xc,%eax
c010358b:	25 ff 03 00 00       	and    $0x3ff,%eax
c0103590:	89 45 e8             	mov    %eax,-0x18(%ebp)
c0103593:	8b 45 14             	mov    0x14(%ebp),%eax
c0103596:	c1 e8 16             	shr    $0x16,%eax
c0103599:	89 45 e0             	mov    %eax,-0x20(%ebp)
c010359c:	8b 45 14             	mov    0x14(%ebp),%eax
c010359f:	c1 e8 0c             	shr    $0xc,%eax
c01035a2:	25 ff 03 00 00       	and    $0x3ff,%eax
c01035a7:	89 45 dc             	mov    %eax,-0x24(%ebp)
c01035aa:	e9 e4 00 00 00       	jmp    c0103693 <arch_vaddr_find+0x132>
c01035af:	8b 45 08             	mov    0x8(%ebp),%eax
c01035b2:	8b 00                	mov    (%eax),%eax
c01035b4:	8b 55 ec             	mov    -0x14(%ebp),%edx
c01035b7:	c1 e2 02             	shl    $0x2,%edx
c01035ba:	01 d0                	add    %edx,%eax
c01035bc:	8b 00                	mov    (%eax),%eax
c01035be:	83 e0 01             	and    $0x1,%eax
c01035c1:	84 c0                	test   %al,%al
c01035c3:	0f 84 97 00 00 00    	je     c0103660 <arch_vaddr_find+0xff>
c01035c9:	8b 45 18             	mov    0x18(%ebp),%eax
c01035cc:	0f b6 d0             	movzbl %al,%edx
c01035cf:	8b 45 ec             	mov    -0x14(%ebp),%eax
c01035d2:	89 54 24 08          	mov    %edx,0x8(%esp)
c01035d6:	89 44 24 04          	mov    %eax,0x4(%esp)
c01035da:	8b 45 08             	mov    0x8(%ebp),%eax
c01035dd:	89 04 24             	mov    %eax,(%esp)
c01035e0:	e8 4c fc ff ff       	call   c0103231 <pt_get>
c01035e5:	89 45 d8             	mov    %eax,-0x28(%ebp)
c01035e8:	8b 45 ec             	mov    -0x14(%ebp),%eax
c01035eb:	3b 45 e0             	cmp    -0x20(%ebp),%eax
c01035ee:	75 05                	jne    c01035f5 <arch_vaddr_find+0x94>
c01035f0:	8b 45 dc             	mov    -0x24(%ebp),%eax
c01035f3:	eb 05                	jmp    c01035fa <arch_vaddr_find+0x99>
c01035f5:	b8 00 04 00 00       	mov    $0x400,%eax
c01035fa:	89 45 d4             	mov    %eax,-0x2c(%ebp)
c01035fd:	eb 50                	jmp    c010364f <arch_vaddr_find+0xee>
c01035ff:	8b 45 e8             	mov    -0x18(%ebp),%eax
c0103602:	c1 e0 02             	shl    $0x2,%eax
c0103605:	03 45 d8             	add    -0x28(%ebp),%eax
c0103608:	8b 00                	mov    (%eax),%eax
c010360a:	83 e0 01             	and    $0x1,%eax
c010360d:	85 c0                	test   %eax,%eax
c010360f:	75 2c                	jne    c010363d <arch_vaddr_find+0xdc>
c0103611:	83 7d f4 00          	cmpl   $0x0,-0xc(%ebp)
c0103615:	75 15                	jne    c010362c <arch_vaddr_find+0xcb>
c0103617:	8b 45 ec             	mov    -0x14(%ebp),%eax
c010361a:	c1 e0 0a             	shl    $0xa,%eax
c010361d:	03 45 e8             	add    -0x18(%ebp),%eax
c0103620:	89 45 e4             	mov    %eax,-0x1c(%ebp)
c0103623:	8b 45 e4             	mov    -0x1c(%ebp),%eax
c0103626:	c1 e0 0c             	shl    $0xc,%eax
c0103629:	89 45 f4             	mov    %eax,-0xc(%ebp)
c010362c:	83 45 f0 01          	addl   $0x1,-0x10(%ebp)
c0103630:	8b 45 f0             	mov    -0x10(%ebp),%eax
c0103633:	3b 45 0c             	cmp    0xc(%ebp),%eax
c0103636:	7c 13                	jl     c010364b <arch_vaddr_find+0xea>
c0103638:	8b 45 f4             	mov    -0xc(%ebp),%eax
c010363b:	eb 67                	jmp    c01036a4 <arch_vaddr_find+0x143>
c010363d:	c7 45 f0 00 00 00 00 	movl   $0x0,-0x10(%ebp)
c0103644:	c7 45 f4 00 00 00 00 	movl   $0x0,-0xc(%ebp)
c010364b:	83 45 e8 01          	addl   $0x1,-0x18(%ebp)
c010364f:	8b 45 e8             	mov    -0x18(%ebp),%eax
c0103652:	3b 45 d4             	cmp    -0x2c(%ebp),%eax
c0103655:	72 a8                	jb     c01035ff <arch_vaddr_find+0x9e>
c0103657:	c7 45 e8 00 00 00 00 	movl   $0x0,-0x18(%ebp)
c010365e:	eb 2f                	jmp    c010368f <arch_vaddr_find+0x12e>
c0103660:	83 7d f4 00          	cmpl   $0x0,-0xc(%ebp)
c0103664:	75 15                	jne    c010367b <arch_vaddr_find+0x11a>
c0103666:	8b 45 ec             	mov    -0x14(%ebp),%eax
c0103669:	c1 e0 0a             	shl    $0xa,%eax
c010366c:	03 45 e8             	add    -0x18(%ebp),%eax
c010366f:	89 45 e4             	mov    %eax,-0x1c(%ebp)
c0103672:	8b 45 e4             	mov    -0x1c(%ebp),%eax
c0103675:	c1 e0 0c             	shl    $0xc,%eax
c0103678:	89 45 f4             	mov    %eax,-0xc(%ebp)
c010367b:	81 45 f0 00 04 00 00 	addl   $0x400,-0x10(%ebp)
c0103682:	8b 45 f0             	mov    -0x10(%ebp),%eax
c0103685:	3b 45 0c             	cmp    0xc(%ebp),%eax
c0103688:	7c 05                	jl     c010368f <arch_vaddr_find+0x12e>
c010368a:	8b 45 f4             	mov    -0xc(%ebp),%eax
c010368d:	eb 15                	jmp    c01036a4 <arch_vaddr_find+0x143>
c010368f:	83 45 ec 01          	addl   $0x1,-0x14(%ebp)
c0103693:	8b 45 ec             	mov    -0x14(%ebp),%eax
c0103696:	3b 45 e0             	cmp    -0x20(%ebp),%eax
c0103699:	0f 86 10 ff ff ff    	jbe    c01035af <arch_vaddr_find+0x4e>
c010369f:	b8 00 00 00 00       	mov    $0x0,%eax
c01036a4:	c9                   	leave  
c01036a5:	c3                   	ret    

c01036a6 <arch_vaddr2paddr>:
c01036a6:	55                   	push   %ebp
c01036a7:	89 e5                	mov    %esp,%ebp
c01036a9:	83 ec 28             	sub    $0x28,%esp
c01036ac:	8b 45 0c             	mov    0xc(%ebp),%eax
c01036af:	c1 e8 16             	shr    $0x16,%eax
c01036b2:	89 45 f4             	mov    %eax,-0xc(%ebp)
c01036b5:	8b 45 0c             	mov    0xc(%ebp),%eax
c01036b8:	c1 e8 0c             	shr    $0xc,%eax
c01036bb:	25 ff 03 00 00       	and    $0x3ff,%eax
c01036c0:	89 45 f0             	mov    %eax,-0x10(%ebp)
c01036c3:	8b 45 f4             	mov    -0xc(%ebp),%eax
c01036c6:	c7 44 24 08 00 00 00 	movl   $0x0,0x8(%esp)
c01036cd:	00 
c01036ce:	89 44 24 04          	mov    %eax,0x4(%esp)
c01036d2:	8b 45 08             	mov    0x8(%ebp),%eax
c01036d5:	89 04 24             	mov    %eax,(%esp)
c01036d8:	e8 54 fb ff ff       	call   c0103231 <pt_get>
c01036dd:	89 45 ec             	mov    %eax,-0x14(%ebp)
c01036e0:	8b 45 f0             	mov    -0x10(%ebp),%eax
c01036e3:	c1 e0 02             	shl    $0x2,%eax
c01036e6:	03 45 ec             	add    -0x14(%ebp),%eax
c01036e9:	8b 00                	mov    (%eax),%eax
c01036eb:	c9                   	leave  
c01036ec:	c3                   	ret    

c01036ed <arch_switch_context>:
c01036ed:	55                   	push   %ebp
c01036ee:	89 e5                	mov    %esp,%ebp
c01036f0:	8b 45 08             	mov    0x8(%ebp),%eax
c01036f3:	8b 40 04             	mov    0x4(%eax),%eax
c01036f6:	0f 22 d8             	mov    %eax,%cr3
c01036f9:	5d                   	pop    %ebp
c01036fa:	c3                   	ret    

c01036fb <page_fault_handler>:
c01036fb:	55                   	push   %ebp
c01036fc:	89 e5                	mov    %esp,%ebp
c01036fe:	53                   	push   %ebx
c01036ff:	81 ec 34 02 00 00    	sub    $0x234,%esp
c0103705:	8b 45 08             	mov    0x8(%ebp),%eax
c0103708:	8b 00                	mov    (%eax),%eax
c010370a:	89 45 f4             	mov    %eax,-0xc(%ebp)
c010370d:	0f 20 d3             	mov    %cr2,%ebx
c0103710:	89 5d f0             	mov    %ebx,-0x10(%ebp)
c0103713:	8b 45 f4             	mov    -0xc(%ebp),%eax
c0103716:	8b 58 34             	mov    0x34(%eax),%ebx
c0103719:	8b 45 f4             	mov    -0xc(%ebp),%eax
c010371c:	8b 40 30             	mov    0x30(%eax),%eax
c010371f:	83 e0 01             	and    $0x1,%eax
c0103722:	84 c0                	test   %al,%al
c0103724:	74 07                	je     c010372d <page_fault_handler+0x32>
c0103726:	b9 c2 bb 10 c0       	mov    $0xc010bbc2,%ecx
c010372b:	eb 05                	jmp    c0103732 <page_fault_handler+0x37>
c010372d:	b9 d0 bb 10 c0       	mov    $0xc010bbd0,%ecx
c0103732:	8b 45 f4             	mov    -0xc(%ebp),%eax
c0103735:	8b 40 30             	mov    0x30(%eax),%eax
c0103738:	83 e0 02             	and    $0x2,%eax
c010373b:	85 c0                	test   %eax,%eax
c010373d:	74 07                	je     c0103746 <page_fault_handler+0x4b>
c010373f:	ba de bb 10 c0       	mov    $0xc010bbde,%edx
c0103744:	eb 05                	jmp    c010374b <page_fault_handler+0x50>
c0103746:	ba e9 bb 10 c0       	mov    $0xc010bbe9,%edx
c010374b:	8b 45 f4             	mov    -0xc(%ebp),%eax
c010374e:	8b 40 30             	mov    0x30(%eax),%eax
c0103751:	83 e0 04             	and    $0x4,%eax
c0103754:	85 c0                	test   %eax,%eax
c0103756:	74 07                	je     c010375f <page_fault_handler+0x64>
c0103758:	b8 f4 bb 10 c0       	mov    $0xc010bbf4,%eax
c010375d:	eb 05                	jmp    c0103764 <page_fault_handler+0x69>
c010375f:	b8 f9 bb 10 c0       	mov    $0xc010bbf9,%eax
c0103764:	89 5c 24 18          	mov    %ebx,0x18(%esp)
c0103768:	89 4c 24 14          	mov    %ecx,0x14(%esp)
c010376c:	8b 4d f0             	mov    -0x10(%ebp),%ecx
c010376f:	89 4c 24 10          	mov    %ecx,0x10(%esp)
c0103773:	89 54 24 0c          	mov    %edx,0xc(%esp)
c0103777:	89 44 24 08          	mov    %eax,0x8(%esp)
c010377b:	c7 44 24 04 00 bc 10 	movl   $0xc010bc00,0x4(%esp)
c0103782:	c0 
c0103783:	8d 85 f0 fd ff ff    	lea    -0x210(%ebp),%eax
c0103789:	89 04 24             	mov    %eax,(%esp)
c010378c:	e8 36 1b 00 00       	call   c01052c7 <sprintf>
c0103791:	8d 85 f0 fd ff ff    	lea    -0x210(%ebp),%eax
c0103797:	89 04 24             	mov    %eax,(%esp)
c010379a:	e8 e1 ee ff ff       	call   c0102680 <panic>
c010379f:	81 c4 34 02 00 00    	add    $0x234,%esp
c01037a5:	5b                   	pop    %ebx
c01037a6:	5d                   	pop    %ebp
c01037a7:	c3                   	ret    

c01037a8 <paging_flush_tlb>:
c01037a8:	55                   	push   %ebp
c01037a9:	89 e5                	mov    %esp,%ebp
c01037ab:	8b 45 08             	mov    0x8(%ebp),%eax
c01037ae:	0f 01 38             	invlpg (%eax)
c01037b1:	5d                   	pop    %ebp
c01037b2:	c3                   	ret    
	...

c01037b4 <pd_dump>:
c01037b4:	55                   	push   %ebp
c01037b5:	89 e5                	mov    %esp,%ebp
c01037b7:	83 ec 48             	sub    $0x48,%esp
c01037ba:	c7 45 e0 00 00 00 00 	movl   $0x0,-0x20(%ebp)
c01037c1:	8b 45 08             	mov    0x8(%ebp),%eax
c01037c4:	8b 00                	mov    (%eax),%eax
c01037c6:	89 45 dc             	mov    %eax,-0x24(%ebp)
c01037c9:	c7 45 f4 00 00 00 00 	movl   $0x0,-0xc(%ebp)
c01037d0:	e9 e8 01 00 00       	jmp    c01039bd <pd_dump+0x209>
c01037d5:	83 7d e0 00          	cmpl   $0x0,-0x20(%ebp)
c01037d9:	74 57                	je     c0103832 <pd_dump+0x7e>
c01037db:	8b 45 f4             	mov    -0xc(%ebp),%eax
c01037de:	c1 e0 02             	shl    $0x2,%eax
c01037e1:	03 45 dc             	add    -0x24(%ebp),%eax
c01037e4:	8b 00                	mov    (%eax),%eax
c01037e6:	83 e0 01             	and    $0x1,%eax
c01037e9:	85 c0                	test   %eax,%eax
c01037eb:	75 45                	jne    c0103832 <pd_dump+0x7e>
c01037ed:	8b 45 e4             	mov    -0x1c(%ebp),%eax
c01037f0:	c1 e0 0c             	shl    $0xc,%eax
c01037f3:	89 c2                	mov    %eax,%edx
c01037f5:	03 55 e8             	add    -0x18(%ebp),%edx
c01037f8:	8b 45 e4             	mov    -0x1c(%ebp),%eax
c01037fb:	c1 e0 0c             	shl    $0xc,%eax
c01037fe:	03 45 ec             	add    -0x14(%ebp),%eax
c0103801:	89 54 24 10          	mov    %edx,0x10(%esp)
c0103805:	8b 55 e8             	mov    -0x18(%ebp),%edx
c0103808:	89 54 24 0c          	mov    %edx,0xc(%esp)
c010380c:	89 44 24 08          	mov    %eax,0x8(%esp)
c0103810:	8b 45 ec             	mov    -0x14(%ebp),%eax
c0103813:	89 44 24 04          	mov    %eax,0x4(%esp)
c0103817:	c7 04 24 44 bc 10 c0 	movl   $0xc010bc44,(%esp)
c010381e:	e8 31 1a 00 00       	call   c0105254 <printf>
c0103823:	c7 45 e0 00 00 00 00 	movl   $0x0,-0x20(%ebp)
c010382a:	eb 06                	jmp    c0103832 <pd_dump+0x7e>
c010382c:	83 45 f4 01          	addl   $0x1,-0xc(%ebp)
c0103830:	eb 01                	jmp    c0103833 <pd_dump+0x7f>
c0103832:	90                   	nop
c0103833:	8b 45 f4             	mov    -0xc(%ebp),%eax
c0103836:	c1 e0 02             	shl    $0x2,%eax
c0103839:	03 45 dc             	add    -0x24(%ebp),%eax
c010383c:	8b 00                	mov    (%eax),%eax
c010383e:	83 e0 01             	and    $0x1,%eax
c0103841:	85 c0                	test   %eax,%eax
c0103843:	74 e7                	je     c010382c <pd_dump+0x78>
c0103845:	c7 44 24 08 00 00 00 	movl   $0x0,0x8(%esp)
c010384c:	00 
c010384d:	8b 45 f4             	mov    -0xc(%ebp),%eax
c0103850:	89 44 24 04          	mov    %eax,0x4(%esp)
c0103854:	8b 45 08             	mov    0x8(%ebp),%eax
c0103857:	89 04 24             	mov    %eax,(%esp)
c010385a:	e8 d2 f9 ff ff       	call   c0103231 <pt_get>
c010385f:	89 45 d8             	mov    %eax,-0x28(%ebp)
c0103862:	c7 45 f0 00 00 00 00 	movl   $0x0,-0x10(%ebp)
c0103869:	e9 3e 01 00 00       	jmp    c01039ac <pd_dump+0x1f8>
c010386e:	83 7d e0 00          	cmpl   $0x0,-0x20(%ebp)
c0103872:	74 57                	je     c01038cb <pd_dump+0x117>
c0103874:	8b 45 f0             	mov    -0x10(%ebp),%eax
c0103877:	c1 e0 02             	shl    $0x2,%eax
c010387a:	03 45 d8             	add    -0x28(%ebp),%eax
c010387d:	8b 00                	mov    (%eax),%eax
c010387f:	83 e0 01             	and    $0x1,%eax
c0103882:	85 c0                	test   %eax,%eax
c0103884:	75 45                	jne    c01038cb <pd_dump+0x117>
c0103886:	8b 45 e4             	mov    -0x1c(%ebp),%eax
c0103889:	c1 e0 0c             	shl    $0xc,%eax
c010388c:	89 c2                	mov    %eax,%edx
c010388e:	03 55 e8             	add    -0x18(%ebp),%edx
c0103891:	8b 45 e4             	mov    -0x1c(%ebp),%eax
c0103894:	c1 e0 0c             	shl    $0xc,%eax
c0103897:	03 45 ec             	add    -0x14(%ebp),%eax
c010389a:	89 54 24 10          	mov    %edx,0x10(%esp)
c010389e:	8b 55 e8             	mov    -0x18(%ebp),%edx
c01038a1:	89 54 24 0c          	mov    %edx,0xc(%esp)
c01038a5:	89 44 24 08          	mov    %eax,0x8(%esp)
c01038a9:	8b 45 ec             	mov    -0x14(%ebp),%eax
c01038ac:	89 44 24 04          	mov    %eax,0x4(%esp)
c01038b0:	c7 04 24 44 bc 10 c0 	movl   $0xc010bc44,(%esp)
c01038b7:	e8 98 19 00 00       	call   c0105254 <printf>
c01038bc:	c7 45 e0 00 00 00 00 	movl   $0x0,-0x20(%ebp)
c01038c3:	eb 06                	jmp    c01038cb <pd_dump+0x117>
c01038c5:	83 45 f0 01          	addl   $0x1,-0x10(%ebp)
c01038c9:	eb 01                	jmp    c01038cc <pd_dump+0x118>
c01038cb:	90                   	nop
c01038cc:	8b 45 f0             	mov    -0x10(%ebp),%eax
c01038cf:	c1 e0 02             	shl    $0x2,%eax
c01038d2:	03 45 d8             	add    -0x28(%ebp),%eax
c01038d5:	8b 00                	mov    (%eax),%eax
c01038d7:	83 e0 01             	and    $0x1,%eax
c01038da:	85 c0                	test   %eax,%eax
c01038dc:	74 e7                	je     c01038c5 <pd_dump+0x111>
c01038de:	83 7d e0 00          	cmpl   $0x0,-0x20(%ebp)
c01038e2:	75 39                	jne    c010391d <pd_dump+0x169>
c01038e4:	c7 45 e0 01 00 00 00 	movl   $0x1,-0x20(%ebp)
c01038eb:	8b 45 f0             	mov    -0x10(%ebp),%eax
c01038ee:	c1 e0 02             	shl    $0x2,%eax
c01038f1:	03 45 d8             	add    -0x28(%ebp),%eax
c01038f4:	8b 00                	mov    (%eax),%eax
c01038f6:	25 00 f0 ff ff       	and    $0xfffff000,%eax
c01038fb:	89 45 ec             	mov    %eax,-0x14(%ebp)
c01038fe:	8b 45 f4             	mov    -0xc(%ebp),%eax
c0103901:	89 c2                	mov    %eax,%edx
c0103903:	c1 e2 16             	shl    $0x16,%edx
c0103906:	8b 45 f0             	mov    -0x10(%ebp),%eax
c0103909:	c1 e0 0c             	shl    $0xc,%eax
c010390c:	09 d0                	or     %edx,%eax
c010390e:	89 45 e8             	mov    %eax,-0x18(%ebp)
c0103911:	c7 45 e4 00 00 00 00 	movl   $0x0,-0x1c(%ebp)
c0103918:	e9 8b 00 00 00       	jmp    c01039a8 <pd_dump+0x1f4>
c010391d:	8b 45 e4             	mov    -0x1c(%ebp),%eax
c0103920:	83 c0 01             	add    $0x1,%eax
c0103923:	c1 e0 0c             	shl    $0xc,%eax
c0103926:	03 45 ec             	add    -0x14(%ebp),%eax
c0103929:	89 c2                	mov    %eax,%edx
c010392b:	8b 45 f0             	mov    -0x10(%ebp),%eax
c010392e:	c1 e0 02             	shl    $0x2,%eax
c0103931:	03 45 d8             	add    -0x28(%ebp),%eax
c0103934:	8b 00                	mov    (%eax),%eax
c0103936:	25 00 f0 ff ff       	and    $0xfffff000,%eax
c010393b:	39 c2                	cmp    %eax,%edx
c010393d:	75 06                	jne    c0103945 <pd_dump+0x191>
c010393f:	83 45 e4 01          	addl   $0x1,-0x1c(%ebp)
c0103943:	eb 63                	jmp    c01039a8 <pd_dump+0x1f4>
c0103945:	8b 45 e4             	mov    -0x1c(%ebp),%eax
c0103948:	c1 e0 0c             	shl    $0xc,%eax
c010394b:	89 c2                	mov    %eax,%edx
c010394d:	03 55 e8             	add    -0x18(%ebp),%edx
c0103950:	8b 45 e4             	mov    -0x1c(%ebp),%eax
c0103953:	c1 e0 0c             	shl    $0xc,%eax
c0103956:	03 45 ec             	add    -0x14(%ebp),%eax
c0103959:	89 54 24 10          	mov    %edx,0x10(%esp)
c010395d:	8b 55 e8             	mov    -0x18(%ebp),%edx
c0103960:	89 54 24 0c          	mov    %edx,0xc(%esp)
c0103964:	89 44 24 08          	mov    %eax,0x8(%esp)
c0103968:	8b 45 ec             	mov    -0x14(%ebp),%eax
c010396b:	89 44 24 04          	mov    %eax,0x4(%esp)
c010396f:	c7 04 24 44 bc 10 c0 	movl   $0xc010bc44,(%esp)
c0103976:	e8 d9 18 00 00       	call   c0105254 <printf>
c010397b:	8b 45 f0             	mov    -0x10(%ebp),%eax
c010397e:	c1 e0 02             	shl    $0x2,%eax
c0103981:	03 45 d8             	add    -0x28(%ebp),%eax
c0103984:	8b 00                	mov    (%eax),%eax
c0103986:	25 00 f0 ff ff       	and    $0xfffff000,%eax
c010398b:	89 45 ec             	mov    %eax,-0x14(%ebp)
c010398e:	8b 45 f4             	mov    -0xc(%ebp),%eax
c0103991:	89 c2                	mov    %eax,%edx
c0103993:	c1 e2 16             	shl    $0x16,%edx
c0103996:	8b 45 f0             	mov    -0x10(%ebp),%eax
c0103999:	c1 e0 0c             	shl    $0xc,%eax
c010399c:	09 d0                	or     %edx,%eax
c010399e:	89 45 e8             	mov    %eax,-0x18(%ebp)
c01039a1:	c7 45 e4 00 00 00 00 	movl   $0x0,-0x1c(%ebp)
c01039a8:	83 45 f0 01          	addl   $0x1,-0x10(%ebp)
c01039ac:	81 7d f0 ff 03 00 00 	cmpl   $0x3ff,-0x10(%ebp)
c01039b3:	0f 8e b5 fe ff ff    	jle    c010386e <pd_dump+0xba>
c01039b9:	83 45 f4 01          	addl   $0x1,-0xc(%ebp)
c01039bd:	81 7d f4 ff 03 00 00 	cmpl   $0x3ff,-0xc(%ebp)
c01039c4:	0f 8e 0b fe ff ff    	jle    c01037d5 <pd_dump+0x21>
c01039ca:	83 7d e0 00          	cmpl   $0x0,-0x20(%ebp)
c01039ce:	74 36                	je     c0103a06 <pd_dump+0x252>
c01039d0:	8b 45 e4             	mov    -0x1c(%ebp),%eax
c01039d3:	c1 e0 0c             	shl    $0xc,%eax
c01039d6:	89 c2                	mov    %eax,%edx
c01039d8:	03 55 e8             	add    -0x18(%ebp),%edx
c01039db:	8b 45 e4             	mov    -0x1c(%ebp),%eax
c01039de:	c1 e0 0c             	shl    $0xc,%eax
c01039e1:	03 45 ec             	add    -0x14(%ebp),%eax
c01039e4:	89 54 24 10          	mov    %edx,0x10(%esp)
c01039e8:	8b 55 e8             	mov    -0x18(%ebp),%edx
c01039eb:	89 54 24 0c          	mov    %edx,0xc(%esp)
c01039ef:	89 44 24 08          	mov    %eax,0x8(%esp)
c01039f3:	8b 45 ec             	mov    -0x14(%ebp),%eax
c01039f6:	89 44 24 04          	mov    %eax,0x4(%esp)
c01039fa:	c7 04 24 44 bc 10 c0 	movl   $0xc010bc44,(%esp)
c0103a01:	e8 4e 18 00 00       	call   c0105254 <printf>
c0103a06:	c9                   	leave  
c0103a07:	c3                   	ret    

c0103a08 <pd_dump2>:
c0103a08:	55                   	push   %ebp
c0103a09:	89 e5                	mov    %esp,%ebp
c0103a0b:	83 ec 58             	sub    $0x58,%esp
c0103a0e:	c7 45 f4 00 00 00 00 	movl   $0x0,-0xc(%ebp)
c0103a15:	c7 45 f0 00 00 00 00 	movl   $0x0,-0x10(%ebp)
c0103a1c:	8b 45 08             	mov    0x8(%ebp),%eax
c0103a1f:	8b 00                	mov    (%eax),%eax
c0103a21:	89 45 e0             	mov    %eax,-0x20(%ebp)
c0103a24:	c7 45 dc 00 00 00 00 	movl   $0x0,-0x24(%ebp)
c0103a2b:	c7 45 ec 00 00 00 00 	movl   $0x0,-0x14(%ebp)
c0103a32:	c7 45 e8 00 00 00 00 	movl   $0x0,-0x18(%ebp)
c0103a39:	c7 45 e4 00 00 00 00 	movl   $0x0,-0x1c(%ebp)
c0103a40:	c7 45 d8 00 00 00 00 	movl   $0x0,-0x28(%ebp)
c0103a47:	c7 45 d4 00 00 00 00 	movl   $0x0,-0x2c(%ebp)
c0103a4e:	c7 45 f4 00 00 00 00 	movl   $0x0,-0xc(%ebp)
c0103a55:	e9 07 02 00 00       	jmp    c0103c61 <pd_dump2+0x259>
c0103a5a:	8b 45 f4             	mov    -0xc(%ebp),%eax
c0103a5d:	c1 e0 02             	shl    $0x2,%eax
c0103a60:	03 45 e0             	add    -0x20(%ebp),%eax
c0103a63:	8b 00                	mov    (%eax),%eax
c0103a65:	83 e0 01             	and    $0x1,%eax
c0103a68:	84 c0                	test   %al,%al
c0103a6a:	0f 84 82 01 00 00    	je     c0103bf2 <pd_dump2+0x1ea>
c0103a70:	c7 44 24 08 01 00 00 	movl   $0x1,0x8(%esp)
c0103a77:	00 
c0103a78:	8b 45 f4             	mov    -0xc(%ebp),%eax
c0103a7b:	89 44 24 04          	mov    %eax,0x4(%esp)
c0103a7f:	8b 45 08             	mov    0x8(%ebp),%eax
c0103a82:	89 04 24             	mov    %eax,(%esp)
c0103a85:	e8 a7 f7 ff ff       	call   c0103231 <pt_get>
c0103a8a:	89 45 dc             	mov    %eax,-0x24(%ebp)
c0103a8d:	c7 45 f0 00 00 00 00 	movl   $0x0,-0x10(%ebp)
c0103a94:	e9 4a 01 00 00       	jmp    c0103be3 <pd_dump2+0x1db>
c0103a99:	8b 45 f0             	mov    -0x10(%ebp),%eax
c0103a9c:	c1 e0 02             	shl    $0x2,%eax
c0103a9f:	03 45 dc             	add    -0x24(%ebp),%eax
c0103aa2:	8b 00                	mov    (%eax),%eax
c0103aa4:	89 45 d8             	mov    %eax,-0x28(%ebp)
c0103aa7:	8b 45 d8             	mov    -0x28(%ebp),%eax
c0103aaa:	83 e0 01             	and    $0x1,%eax
c0103aad:	84 c0                	test   %al,%al
c0103aaf:	0f 84 bf 00 00 00    	je     c0103b74 <pd_dump2+0x16c>
c0103ab5:	8b 45 f0             	mov    -0x10(%ebp),%eax
c0103ab8:	c1 e0 02             	shl    $0x2,%eax
c0103abb:	03 45 dc             	add    -0x24(%ebp),%eax
c0103abe:	8b 00                	mov    (%eax),%eax
c0103ac0:	25 00 f0 ff ff       	and    $0xfffff000,%eax
c0103ac5:	89 45 d4             	mov    %eax,-0x2c(%ebp)
c0103ac8:	83 7d e4 00          	cmpl   $0x0,-0x1c(%ebp)
c0103acc:	75 21                	jne    c0103aef <pd_dump2+0xe7>
c0103ace:	8b 45 f4             	mov    -0xc(%ebp),%eax
c0103ad1:	c1 e0 0a             	shl    $0xa,%eax
c0103ad4:	03 45 f0             	add    -0x10(%ebp),%eax
c0103ad7:	c1 e0 0c             	shl    $0xc,%eax
c0103ada:	89 45 ec             	mov    %eax,-0x14(%ebp)
c0103add:	8b 45 d4             	mov    -0x2c(%ebp),%eax
c0103ae0:	89 45 e8             	mov    %eax,-0x18(%ebp)
c0103ae3:	c7 45 e4 01 00 00 00 	movl   $0x1,-0x1c(%ebp)
c0103aea:	e9 f0 00 00 00       	jmp    c0103bdf <pd_dump2+0x1d7>
c0103aef:	8b 45 e4             	mov    -0x1c(%ebp),%eax
c0103af2:	c1 e0 0c             	shl    $0xc,%eax
c0103af5:	03 45 e8             	add    -0x18(%ebp),%eax
c0103af8:	3b 45 d4             	cmp    -0x2c(%ebp),%eax
c0103afb:	74 71                	je     c0103b6e <pd_dump2+0x166>
c0103afd:	83 7d e4 00          	cmpl   $0x0,-0x1c(%ebp)
c0103b01:	0f 8e d8 00 00 00    	jle    c0103bdf <pd_dump2+0x1d7>
c0103b07:	83 7d e4 01          	cmpl   $0x1,-0x1c(%ebp)
c0103b0b:	75 1c                	jne    c0103b29 <pd_dump2+0x121>
c0103b0d:	8b 45 e8             	mov    -0x18(%ebp),%eax
c0103b10:	89 44 24 08          	mov    %eax,0x8(%esp)
c0103b14:	8b 45 ec             	mov    -0x14(%ebp),%eax
c0103b17:	89 44 24 04          	mov    %eax,0x4(%esp)
c0103b1b:	c7 04 24 68 bc 10 c0 	movl   $0xc010bc68,(%esp)
c0103b22:	e8 2d 17 00 00       	call   c0105254 <printf>
c0103b27:	eb 3c                	jmp    c0103b65 <pd_dump2+0x15d>
c0103b29:	8b 45 e4             	mov    -0x1c(%ebp),%eax
c0103b2c:	83 e8 01             	sub    $0x1,%eax
c0103b2f:	c1 e0 0c             	shl    $0xc,%eax
c0103b32:	89 c2                	mov    %eax,%edx
c0103b34:	03 55 e8             	add    -0x18(%ebp),%edx
c0103b37:	8b 45 e4             	mov    -0x1c(%ebp),%eax
c0103b3a:	83 e8 01             	sub    $0x1,%eax
c0103b3d:	c1 e0 0c             	shl    $0xc,%eax
c0103b40:	03 45 ec             	add    -0x14(%ebp),%eax
c0103b43:	89 54 24 10          	mov    %edx,0x10(%esp)
c0103b47:	8b 55 e8             	mov    -0x18(%ebp),%edx
c0103b4a:	89 54 24 0c          	mov    %edx,0xc(%esp)
c0103b4e:	89 44 24 08          	mov    %eax,0x8(%esp)
c0103b52:	8b 45 ec             	mov    -0x14(%ebp),%eax
c0103b55:	89 44 24 04          	mov    %eax,0x4(%esp)
c0103b59:	c7 04 24 44 bc 10 c0 	movl   $0xc010bc44,(%esp)
c0103b60:	e8 ef 16 00 00       	call   c0105254 <printf>
c0103b65:	c7 45 e4 00 00 00 00 	movl   $0x0,-0x1c(%ebp)
c0103b6c:	eb 71                	jmp    c0103bdf <pd_dump2+0x1d7>
c0103b6e:	83 45 e4 01          	addl   $0x1,-0x1c(%ebp)
c0103b72:	eb 6b                	jmp    c0103bdf <pd_dump2+0x1d7>
c0103b74:	83 7d e4 00          	cmpl   $0x0,-0x1c(%ebp)
c0103b78:	7e 65                	jle    c0103bdf <pd_dump2+0x1d7>
c0103b7a:	83 7d e4 01          	cmpl   $0x1,-0x1c(%ebp)
c0103b7e:	75 1c                	jne    c0103b9c <pd_dump2+0x194>
c0103b80:	8b 45 e8             	mov    -0x18(%ebp),%eax
c0103b83:	89 44 24 08          	mov    %eax,0x8(%esp)
c0103b87:	8b 45 ec             	mov    -0x14(%ebp),%eax
c0103b8a:	89 44 24 04          	mov    %eax,0x4(%esp)
c0103b8e:	c7 04 24 68 bc 10 c0 	movl   $0xc010bc68,(%esp)
c0103b95:	e8 ba 16 00 00       	call   c0105254 <printf>
c0103b9a:	eb 3c                	jmp    c0103bd8 <pd_dump2+0x1d0>
c0103b9c:	8b 45 e4             	mov    -0x1c(%ebp),%eax
c0103b9f:	83 e8 01             	sub    $0x1,%eax
c0103ba2:	c1 e0 0c             	shl    $0xc,%eax
c0103ba5:	89 c2                	mov    %eax,%edx
c0103ba7:	03 55 e8             	add    -0x18(%ebp),%edx
c0103baa:	8b 45 e4             	mov    -0x1c(%ebp),%eax
c0103bad:	83 e8 01             	sub    $0x1,%eax
c0103bb0:	c1 e0 0c             	shl    $0xc,%eax
c0103bb3:	03 45 ec             	add    -0x14(%ebp),%eax
c0103bb6:	89 54 24 10          	mov    %edx,0x10(%esp)
c0103bba:	8b 55 e8             	mov    -0x18(%ebp),%edx
c0103bbd:	89 54 24 0c          	mov    %edx,0xc(%esp)
c0103bc1:	89 44 24 08          	mov    %eax,0x8(%esp)
c0103bc5:	8b 45 ec             	mov    -0x14(%ebp),%eax
c0103bc8:	89 44 24 04          	mov    %eax,0x4(%esp)
c0103bcc:	c7 04 24 44 bc 10 c0 	movl   $0xc010bc44,(%esp)
c0103bd3:	e8 7c 16 00 00       	call   c0105254 <printf>
c0103bd8:	c7 45 e4 00 00 00 00 	movl   $0x0,-0x1c(%ebp)
c0103bdf:	83 45 f0 01          	addl   $0x1,-0x10(%ebp)
c0103be3:	81 7d f0 ff 03 00 00 	cmpl   $0x3ff,-0x10(%ebp)
c0103bea:	0f 8e a9 fe ff ff    	jle    c0103a99 <pd_dump2+0x91>
c0103bf0:	eb 6b                	jmp    c0103c5d <pd_dump2+0x255>
c0103bf2:	83 7d e4 00          	cmpl   $0x0,-0x1c(%ebp)
c0103bf6:	7e 65                	jle    c0103c5d <pd_dump2+0x255>
c0103bf8:	83 7d e4 01          	cmpl   $0x1,-0x1c(%ebp)
c0103bfc:	75 1c                	jne    c0103c1a <pd_dump2+0x212>
c0103bfe:	8b 45 e8             	mov    -0x18(%ebp),%eax
c0103c01:	89 44 24 08          	mov    %eax,0x8(%esp)
c0103c05:	8b 45 ec             	mov    -0x14(%ebp),%eax
c0103c08:	89 44 24 04          	mov    %eax,0x4(%esp)
c0103c0c:	c7 04 24 68 bc 10 c0 	movl   $0xc010bc68,(%esp)
c0103c13:	e8 3c 16 00 00       	call   c0105254 <printf>
c0103c18:	eb 3c                	jmp    c0103c56 <pd_dump2+0x24e>
c0103c1a:	8b 45 e4             	mov    -0x1c(%ebp),%eax
c0103c1d:	83 e8 01             	sub    $0x1,%eax
c0103c20:	c1 e0 0c             	shl    $0xc,%eax
c0103c23:	89 c2                	mov    %eax,%edx
c0103c25:	03 55 e8             	add    -0x18(%ebp),%edx
c0103c28:	8b 45 e4             	mov    -0x1c(%ebp),%eax
c0103c2b:	83 e8 01             	sub    $0x1,%eax
c0103c2e:	c1 e0 0c             	shl    $0xc,%eax
c0103c31:	03 45 ec             	add    -0x14(%ebp),%eax
c0103c34:	89 54 24 10          	mov    %edx,0x10(%esp)
c0103c38:	8b 55 e8             	mov    -0x18(%ebp),%edx
c0103c3b:	89 54 24 0c          	mov    %edx,0xc(%esp)
c0103c3f:	89 44 24 08          	mov    %eax,0x8(%esp)
c0103c43:	8b 45 ec             	mov    -0x14(%ebp),%eax
c0103c46:	89 44 24 04          	mov    %eax,0x4(%esp)
c0103c4a:	c7 04 24 44 bc 10 c0 	movl   $0xc010bc44,(%esp)
c0103c51:	e8 fe 15 00 00       	call   c0105254 <printf>
c0103c56:	c7 45 e4 00 00 00 00 	movl   $0x0,-0x1c(%ebp)
c0103c5d:	83 45 f4 01          	addl   $0x1,-0xc(%ebp)
c0103c61:	81 7d f4 ff 03 00 00 	cmpl   $0x3ff,-0xc(%ebp)
c0103c68:	0f 8e ec fd ff ff    	jle    c0103a5a <pd_dump2+0x52>
c0103c6e:	c9                   	leave  
c0103c6f:	c3                   	ret    

c0103c70 <set_GDT_entry>:
c0103c70:	55                   	push   %ebp
c0103c71:	89 e5                	mov    %esp,%ebp
c0103c73:	83 ec 08             	sub    $0x8,%esp
c0103c76:	8b 55 14             	mov    0x14(%ebp),%edx
c0103c79:	8b 45 18             	mov    0x18(%ebp),%eax
c0103c7c:	88 55 fc             	mov    %dl,-0x4(%ebp)
c0103c7f:	88 45 f8             	mov    %al,-0x8(%ebp)
c0103c82:	8b 45 10             	mov    0x10(%ebp),%eax
c0103c85:	89 c2                	mov    %eax,%edx
c0103c87:	8b 45 08             	mov    0x8(%ebp),%eax
c0103c8a:	66 89 14 c5 20 10 11 	mov    %dx,-0x3feeefe0(,%eax,8)
c0103c91:	c0 
c0103c92:	8b 45 0c             	mov    0xc(%ebp),%eax
c0103c95:	89 c2                	mov    %eax,%edx
c0103c97:	8b 45 08             	mov    0x8(%ebp),%eax
c0103c9a:	66 89 14 c5 22 10 11 	mov    %dx,-0x3feeefde(,%eax,8)
c0103ca1:	c0 
c0103ca2:	8b 45 0c             	mov    0xc(%ebp),%eax
c0103ca5:	c1 e8 10             	shr    $0x10,%eax
c0103ca8:	89 c2                	mov    %eax,%edx
c0103caa:	8b 45 08             	mov    0x8(%ebp),%eax
c0103cad:	88 14 c5 24 10 11 c0 	mov    %dl,-0x3feeefdc(,%eax,8)
c0103cb4:	8b 45 08             	mov    0x8(%ebp),%eax
c0103cb7:	0f b6 55 fc          	movzbl -0x4(%ebp),%edx
c0103cbb:	88 14 c5 25 10 11 c0 	mov    %dl,-0x3feeefdb(,%eax,8)
c0103cc2:	0f b6 45 f8          	movzbl -0x8(%ebp),%eax
c0103cc6:	89 c2                	mov    %eax,%edx
c0103cc8:	c1 e2 04             	shl    $0x4,%edx
c0103ccb:	8b 45 10             	mov    0x10(%ebp),%eax
c0103cce:	c1 e8 10             	shr    $0x10,%eax
c0103cd1:	09 c2                	or     %eax,%edx
c0103cd3:	8b 45 08             	mov    0x8(%ebp),%eax
c0103cd6:	88 14 c5 26 10 11 c0 	mov    %dl,-0x3feeefda(,%eax,8)
c0103cdd:	8b 45 0c             	mov    0xc(%ebp),%eax
c0103ce0:	c1 e8 18             	shr    $0x18,%eax
c0103ce3:	89 c2                	mov    %eax,%edx
c0103ce5:	8b 45 08             	mov    0x8(%ebp),%eax
c0103ce8:	88 14 c5 27 10 11 c0 	mov    %dl,-0x3feeefd9(,%eax,8)
c0103cef:	c9                   	leave  
c0103cf0:	c3                   	ret    

c0103cf1 <load_gdt>:
c0103cf1:	55                   	push   %ebp
c0103cf2:	89 e5                	mov    %esp,%ebp
c0103cf4:	83 ec 04             	sub    $0x4,%esp
c0103cf7:	8b 45 08             	mov    0x8(%ebp),%eax
c0103cfa:	66 89 45 fc          	mov    %ax,-0x4(%ebp)
c0103cfe:	0f b7 45 fc          	movzwl -0x4(%ebp),%eax
c0103d02:	83 c0 01             	add    $0x1,%eax
c0103d05:	c1 e0 03             	shl    $0x3,%eax
c0103d08:	83 e8 01             	sub    $0x1,%eax
c0103d0b:	66 a3 58 10 11 c0    	mov    %ax,0xc0111058
c0103d11:	c7 05 5a 10 11 c0 20 	movl   $0xc0111020,0xc011105a
c0103d18:	10 11 c0 
c0103d1b:	0f 01 15 58 10 11 c0 	lgdtl  0xc0111058
c0103d22:	c9                   	leave  
c0103d23:	c3                   	ret    

c0103d24 <INIT_GDT>:
c0103d24:	55                   	push   %ebp
c0103d25:	89 e5                	mov    %esp,%ebp
c0103d27:	83 ec 14             	sub    $0x14,%esp
c0103d2a:	c7 44 24 10 00 00 00 	movl   $0x0,0x10(%esp)
c0103d31:	00 
c0103d32:	c7 44 24 0c 00 00 00 	movl   $0x0,0xc(%esp)
c0103d39:	00 
c0103d3a:	c7 44 24 08 00 00 00 	movl   $0x0,0x8(%esp)
c0103d41:	00 
c0103d42:	c7 44 24 04 00 00 00 	movl   $0x0,0x4(%esp)
c0103d49:	00 
c0103d4a:	c7 04 24 00 00 00 00 	movl   $0x0,(%esp)
c0103d51:	e8 1a ff ff ff       	call   c0103c70 <set_GDT_entry>
c0103d56:	c7 44 24 10 0c 00 00 	movl   $0xc,0x10(%esp)
c0103d5d:	00 
c0103d5e:	c7 44 24 0c 9a 00 00 	movl   $0x9a,0xc(%esp)
c0103d65:	00 
c0103d66:	c7 44 24 08 ff ff 0f 	movl   $0xfffff,0x8(%esp)
c0103d6d:	00 
c0103d6e:	c7 44 24 04 00 00 00 	movl   $0x0,0x4(%esp)
c0103d75:	00 
c0103d76:	c7 04 24 01 00 00 00 	movl   $0x1,(%esp)
c0103d7d:	e8 ee fe ff ff       	call   c0103c70 <set_GDT_entry>
c0103d82:	c7 44 24 10 0c 00 00 	movl   $0xc,0x10(%esp)
c0103d89:	00 
c0103d8a:	c7 44 24 0c 92 00 00 	movl   $0x92,0xc(%esp)
c0103d91:	00 
c0103d92:	c7 44 24 08 ff ff 0f 	movl   $0xfffff,0x8(%esp)
c0103d99:	00 
c0103d9a:	c7 44 24 04 00 00 00 	movl   $0x0,0x4(%esp)
c0103da1:	00 
c0103da2:	c7 04 24 02 00 00 00 	movl   $0x2,(%esp)
c0103da9:	e8 c2 fe ff ff       	call   c0103c70 <set_GDT_entry>
c0103dae:	c7 44 24 10 0c 00 00 	movl   $0xc,0x10(%esp)
c0103db5:	00 
c0103db6:	c7 44 24 0c fa 00 00 	movl   $0xfa,0xc(%esp)
c0103dbd:	00 
c0103dbe:	c7 44 24 08 ff ff 0f 	movl   $0xfffff,0x8(%esp)
c0103dc5:	00 
c0103dc6:	c7 44 24 04 00 00 00 	movl   $0x0,0x4(%esp)
c0103dcd:	00 
c0103dce:	c7 04 24 03 00 00 00 	movl   $0x3,(%esp)
c0103dd5:	e8 96 fe ff ff       	call   c0103c70 <set_GDT_entry>
c0103dda:	c7 44 24 10 0c 00 00 	movl   $0xc,0x10(%esp)
c0103de1:	00 
c0103de2:	c7 44 24 0c f2 00 00 	movl   $0xf2,0xc(%esp)
c0103de9:	00 
c0103dea:	c7 44 24 08 ff ff 0f 	movl   $0xfffff,0x8(%esp)
c0103df1:	00 
c0103df2:	c7 44 24 04 00 00 00 	movl   $0x0,0x4(%esp)
c0103df9:	00 
c0103dfa:	c7 04 24 04 00 00 00 	movl   $0x4,(%esp)
c0103e01:	e8 6a fe ff ff       	call   c0103c70 <set_GDT_entry>
c0103e06:	c7 04 24 04 00 00 00 	movl   $0x4,(%esp)
c0103e0d:	e8 df fe ff ff       	call   c0103cf1 <load_gdt>
c0103e12:	66 b8 10 00          	mov    $0x10,%ax
c0103e16:	8e d8                	mov    %eax,%ds
c0103e18:	8e c0                	mov    %eax,%es
c0103e1a:	8e e0                	mov    %eax,%fs
c0103e1c:	8e e8                	mov    %eax,%gs
c0103e1e:	8e d0                	mov    %eax,%ss
c0103e20:	ea 27 3e 10 c0 08 00 	ljmp   $0x8,$0xc0103e27

c0103e27 <.1>:
c0103e27:	c9                   	leave  
c0103e28:	c3                   	ret    
c0103e29:	00 00                	add    %al,(%eax)
	...

c0103e2c <cpuid>:
c0103e2c:	55                   	push   %ebp
c0103e2d:	89 e5                	mov    %esp,%ebp
c0103e2f:	56                   	push   %esi
c0103e30:	53                   	push   %ebx
c0103e31:	83 ec 04             	sub    $0x4,%esp
c0103e34:	8b 45 08             	mov    0x8(%ebp),%eax
c0103e37:	89 45 f4             	mov    %eax,-0xc(%ebp)
c0103e3a:	8b 45 f4             	mov    -0xc(%ebp),%eax
c0103e3d:	0f a2                	cpuid  
c0103e3f:	89 c6                	mov    %eax,%esi
c0103e41:	8b 45 0c             	mov    0xc(%ebp),%eax
c0103e44:	89 30                	mov    %esi,(%eax)
c0103e46:	8b 45 0c             	mov    0xc(%ebp),%eax
c0103e49:	89 58 04             	mov    %ebx,0x4(%eax)
c0103e4c:	8b 45 0c             	mov    0xc(%ebp),%eax
c0103e4f:	89 48 08             	mov    %ecx,0x8(%eax)
c0103e52:	8b 45 0c             	mov    0xc(%ebp),%eax
c0103e55:	89 50 0c             	mov    %edx,0xc(%eax)
c0103e58:	83 c4 04             	add    $0x4,%esp
c0103e5b:	5b                   	pop    %ebx
c0103e5c:	5e                   	pop    %esi
c0103e5d:	5d                   	pop    %ebp
c0103e5e:	c3                   	ret    

c0103e5f <identify_cpu>:
c0103e5f:	55                   	push   %ebp
c0103e60:	89 e5                	mov    %esp,%ebp
c0103e62:	57                   	push   %edi
c0103e63:	56                   	push   %esi
c0103e64:	53                   	push   %ebx
c0103e65:	83 ec 4c             	sub    $0x4c,%esp
c0103e68:	9c                   	pushf  
c0103e69:	59                   	pop    %ecx
c0103e6a:	89 c8                	mov    %ecx,%eax
c0103e6c:	35 00 00 20 00       	xor    $0x200000,%eax
c0103e71:	50                   	push   %eax
c0103e72:	9d                   	popf   
c0103e73:	9c                   	pushf  
c0103e74:	58                   	pop    %eax
c0103e75:	89 cb                	mov    %ecx,%ebx
c0103e77:	89 c6                	mov    %eax,%esi
c0103e79:	89 75 e0             	mov    %esi,-0x20(%ebp)
c0103e7c:	89 5d dc             	mov    %ebx,-0x24(%ebp)
c0103e7f:	8b 45 e0             	mov    -0x20(%ebp),%eax
c0103e82:	3b 45 dc             	cmp    -0x24(%ebp),%eax
c0103e85:	75 13                	jne    c0103e9a <identify_cpu+0x3b>
c0103e87:	8b 45 08             	mov    0x8(%ebp),%eax
c0103e8a:	c7 00 00 00 00 00    	movl   $0x0,(%eax)
c0103e90:	b8 01 00 00 00       	mov    $0x1,%eax
c0103e95:	e9 30 04 00 00       	jmp    c01042ca <identify_cpu+0x46b>
c0103e9a:	8b 45 08             	mov    0x8(%ebp),%eax
c0103e9d:	c7 00 01 00 00 00    	movl   $0x1,(%eax)
c0103ea3:	8d 45 cc             	lea    -0x34(%ebp),%eax
c0103ea6:	89 44 24 04          	mov    %eax,0x4(%esp)
c0103eaa:	c7 04 24 00 00 00 00 	movl   $0x0,(%esp)
c0103eb1:	e8 76 ff ff ff       	call   c0103e2c <cpuid>
c0103eb6:	8b 45 08             	mov    0x8(%ebp),%eax
c0103eb9:	83 c0 10             	add    $0x10,%eax
c0103ebc:	c7 44 24 08 04 00 00 	movl   $0x4,0x8(%esp)
c0103ec3:	00 
c0103ec4:	8d 55 cc             	lea    -0x34(%ebp),%edx
c0103ec7:	83 c2 04             	add    $0x4,%edx
c0103eca:	89 54 24 04          	mov    %edx,0x4(%esp)
c0103ece:	89 04 24             	mov    %eax,(%esp)
c0103ed1:	e8 5a 59 00 00       	call   c0109830 <strncpy>
c0103ed6:	8b 45 08             	mov    0x8(%ebp),%eax
c0103ed9:	83 c0 14             	add    $0x14,%eax
c0103edc:	c7 44 24 08 04 00 00 	movl   $0x4,0x8(%esp)
c0103ee3:	00 
c0103ee4:	8d 55 cc             	lea    -0x34(%ebp),%edx
c0103ee7:	83 c2 0c             	add    $0xc,%edx
c0103eea:	89 54 24 04          	mov    %edx,0x4(%esp)
c0103eee:	89 04 24             	mov    %eax,(%esp)
c0103ef1:	e8 3a 59 00 00       	call   c0109830 <strncpy>
c0103ef6:	8b 45 08             	mov    0x8(%ebp),%eax
c0103ef9:	83 c0 18             	add    $0x18,%eax
c0103efc:	c7 44 24 08 04 00 00 	movl   $0x4,0x8(%esp)
c0103f03:	00 
c0103f04:	8d 55 cc             	lea    -0x34(%ebp),%edx
c0103f07:	83 c2 08             	add    $0x8,%edx
c0103f0a:	89 54 24 04          	mov    %edx,0x4(%esp)
c0103f0e:	89 04 24             	mov    %eax,(%esp)
c0103f11:	e8 1a 59 00 00       	call   c0109830 <strncpy>
c0103f16:	c7 45 e4 00 00 00 00 	movl   $0x0,-0x1c(%ebp)
c0103f1d:	eb 04                	jmp    c0103f23 <identify_cpu+0xc4>
c0103f1f:	83 45 e4 01          	addl   $0x1,-0x1c(%ebp)
c0103f23:	8b 45 e4             	mov    -0x1c(%ebp),%eax
c0103f26:	8b 04 85 a0 f0 10 c0 	mov    -0x3fef0f60(,%eax,4),%eax
c0103f2d:	8b 55 08             	mov    0x8(%ebp),%edx
c0103f30:	83 c2 10             	add    $0x10,%edx
c0103f33:	c7 44 24 08 0c 00 00 	movl   $0xc,0x8(%esp)
c0103f3a:	00 
c0103f3b:	89 44 24 04          	mov    %eax,0x4(%esp)
c0103f3f:	89 14 24             	mov    %edx,(%esp)
c0103f42:	e8 41 5a 00 00       	call   c0109988 <strncmp>
c0103f47:	85 c0                	test   %eax,%eax
c0103f49:	74 06                	je     c0103f51 <identify_cpu+0xf2>
c0103f4b:	83 7d e4 0e          	cmpl   $0xe,-0x1c(%ebp)
c0103f4f:	76 ce                	jbe    c0103f1f <identify_cpu+0xc0>
c0103f51:	8b 45 08             	mov    0x8(%ebp),%eax
c0103f54:	8b 55 e4             	mov    -0x1c(%ebp),%edx
c0103f57:	89 50 04             	mov    %edx,0x4(%eax)
c0103f5a:	8b 55 cc             	mov    -0x34(%ebp),%edx
c0103f5d:	8b 45 08             	mov    0x8(%ebp),%eax
c0103f60:	89 50 08             	mov    %edx,0x8(%eax)
c0103f63:	8d 45 cc             	lea    -0x34(%ebp),%eax
c0103f66:	89 44 24 04          	mov    %eax,0x4(%esp)
c0103f6a:	c7 04 24 00 00 00 80 	movl   $0x80000000,(%esp)
c0103f71:	e8 b6 fe ff ff       	call   c0103e2c <cpuid>
c0103f76:	8b 55 cc             	mov    -0x34(%ebp),%edx
c0103f79:	8b 45 08             	mov    0x8(%ebp),%eax
c0103f7c:	89 50 0c             	mov    %edx,0xc(%eax)
c0103f7f:	8d 45 cc             	lea    -0x34(%ebp),%eax
c0103f82:	89 44 24 04          	mov    %eax,0x4(%esp)
c0103f86:	c7 04 24 01 00 00 00 	movl   $0x1,(%esp)
c0103f8d:	e8 9a fe ff ff       	call   c0103e2c <cpuid>
c0103f92:	8b 45 cc             	mov    -0x34(%ebp),%eax
c0103f95:	25 00 00 f0 0f       	and    $0xff00000,%eax
c0103f9a:	c1 e8 10             	shr    $0x10,%eax
c0103f9d:	89 c2                	mov    %eax,%edx
c0103f9f:	8b 45 cc             	mov    -0x34(%ebp),%eax
c0103fa2:	25 00 0f 00 00       	and    $0xf00,%eax
c0103fa7:	c1 e8 08             	shr    $0x8,%eax
c0103faa:	09 c2                	or     %eax,%edx
c0103fac:	8b 45 08             	mov    0x8(%ebp),%eax
c0103faf:	88 50 1d             	mov    %dl,0x1d(%eax)
c0103fb2:	8b 45 cc             	mov    -0x34(%ebp),%eax
c0103fb5:	25 00 00 0f 00       	and    $0xf0000,%eax
c0103fba:	c1 e8 0c             	shr    $0xc,%eax
c0103fbd:	89 c2                	mov    %eax,%edx
c0103fbf:	8b 45 cc             	mov    -0x34(%ebp),%eax
c0103fc2:	25 f0 00 00 00       	and    $0xf0,%eax
c0103fc7:	c1 e8 04             	shr    $0x4,%eax
c0103fca:	09 c2                	or     %eax,%edx
c0103fcc:	8b 45 08             	mov    0x8(%ebp),%eax
c0103fcf:	88 50 1e             	mov    %dl,0x1e(%eax)
c0103fd2:	8b 45 cc             	mov    -0x34(%ebp),%eax
c0103fd5:	89 c2                	mov    %eax,%edx
c0103fd7:	83 e2 0f             	and    $0xf,%edx
c0103fda:	8b 45 08             	mov    0x8(%ebp),%eax
c0103fdd:	88 50 1f             	mov    %dl,0x1f(%eax)
c0103fe0:	8b 45 cc             	mov    -0x34(%ebp),%eax
c0103fe3:	25 00 30 00 00       	and    $0x3000,%eax
c0103fe8:	c1 e8 0c             	shr    $0xc,%eax
c0103feb:	89 c2                	mov    %eax,%edx
c0103fed:	8b 45 08             	mov    0x8(%ebp),%eax
c0103ff0:	88 50 20             	mov    %dl,0x20(%eax)
c0103ff3:	8b 45 d0             	mov    -0x30(%ebp),%eax
c0103ff6:	89 c2                	mov    %eax,%edx
c0103ff8:	8b 45 08             	mov    0x8(%ebp),%eax
c0103ffb:	88 50 21             	mov    %dl,0x21(%eax)
c0103ffe:	8b 45 d0             	mov    -0x30(%ebp),%eax
c0104001:	c1 e8 08             	shr    $0x8,%eax
c0104004:	89 c2                	mov    %eax,%edx
c0104006:	8b 45 08             	mov    0x8(%ebp),%eax
c0104009:	88 50 22             	mov    %dl,0x22(%eax)
c010400c:	8b 45 d0             	mov    -0x30(%ebp),%eax
c010400f:	c1 e8 10             	shr    $0x10,%eax
c0104012:	89 c2                	mov    %eax,%edx
c0104014:	8b 45 08             	mov    0x8(%ebp),%eax
c0104017:	88 50 23             	mov    %dl,0x23(%eax)
c010401a:	8b 45 d0             	mov    -0x30(%ebp),%eax
c010401d:	c1 e8 18             	shr    $0x18,%eax
c0104020:	89 c2                	mov    %eax,%edx
c0104022:	8b 45 08             	mov    0x8(%ebp),%eax
c0104025:	88 50 2e             	mov    %dl,0x2e(%eax)
c0104028:	8b 55 d4             	mov    -0x2c(%ebp),%edx
c010402b:	8b 45 08             	mov    0x8(%ebp),%eax
c010402e:	89 50 68             	mov    %edx,0x68(%eax)
c0104031:	8b 55 d8             	mov    -0x28(%ebp),%edx
c0104034:	8b 45 08             	mov    0x8(%ebp),%eax
c0104037:	89 50 6c             	mov    %edx,0x6c(%eax)
c010403a:	8b 45 08             	mov    0x8(%ebp),%eax
c010403d:	8b 40 0c             	mov    0xc(%eax),%eax
c0104040:	3d 00 00 00 80       	cmp    $0x80000000,%eax
c0104045:	76 39                	jbe    c0104080 <identify_cpu+0x221>
c0104047:	8d 45 cc             	lea    -0x34(%ebp),%eax
c010404a:	89 44 24 04          	mov    %eax,0x4(%esp)
c010404e:	c7 04 24 01 00 00 80 	movl   $0x80000001,(%esp)
c0104055:	e8 d2 fd ff ff       	call   c0103e2c <cpuid>
c010405a:	8b 45 d8             	mov    -0x28(%ebp),%eax
c010405d:	25 00 00 00 20       	and    $0x20000000,%eax
c0104062:	c1 e8 1d             	shr    $0x1d,%eax
c0104065:	85 c0                	test   %eax,%eax
c0104067:	74 17                	je     c0104080 <identify_cpu+0x221>
c0104069:	8b 45 08             	mov    0x8(%ebp),%eax
c010406c:	8b 40 6c             	mov    0x6c(%eax),%eax
c010406f:	83 e0 40             	and    $0x40,%eax
c0104072:	85 c0                	test   %eax,%eax
c0104074:	74 0a                	je     c0104080 <identify_cpu+0x221>
c0104076:	8b 45 08             	mov    0x8(%ebp),%eax
c0104079:	c7 40 24 01 00 00 00 	movl   $0x1,0x24(%eax)
c0104080:	8b 45 08             	mov    0x8(%ebp),%eax
c0104083:	8b 40 6c             	mov    0x6c(%eax),%eax
c0104086:	25 00 00 00 40       	and    $0x40000000,%eax
c010408b:	85 c0                	test   %eax,%eax
c010408d:	74 22                	je     c01040b1 <identify_cpu+0x252>
c010408f:	8b 45 08             	mov    0x8(%ebp),%eax
c0104092:	8b 40 24             	mov    0x24(%eax),%eax
c0104095:	85 c0                	test   %eax,%eax
c0104097:	74 0c                	je     c01040a5 <identify_cpu+0x246>
c0104099:	8b 45 08             	mov    0x8(%ebp),%eax
c010409c:	c7 40 30 00 00 00 40 	movl   $0x40000000,0x30(%eax)
c01040a3:	eb 2c                	jmp    c01040d1 <identify_cpu+0x272>
c01040a5:	8b 45 08             	mov    0x8(%ebp),%eax
c01040a8:	c7 40 30 02 00 00 00 	movl   $0x2,0x30(%eax)
c01040af:	eb 20                	jmp    c01040d1 <identify_cpu+0x272>
c01040b1:	8b 45 08             	mov    0x8(%ebp),%eax
c01040b4:	8b 40 24             	mov    0x24(%eax),%eax
c01040b7:	85 c0                	test   %eax,%eax
c01040b9:	74 0c                	je     c01040c7 <identify_cpu+0x268>
c01040bb:	8b 45 08             	mov    0x8(%ebp),%eax
c01040be:	c7 40 30 01 00 00 00 	movl   $0x1,0x30(%eax)
c01040c5:	eb 0a                	jmp    c01040d1 <identify_cpu+0x272>
c01040c7:	8b 45 08             	mov    0x8(%ebp),%eax
c01040ca:	c7 40 30 00 00 00 00 	movl   $0x0,0x30(%eax)
c01040d1:	8b 45 08             	mov    0x8(%ebp),%eax
c01040d4:	8b 40 6c             	mov    0x6c(%eax),%eax
c01040d7:	25 00 08 00 00       	and    $0x800,%eax
c01040dc:	85 c0                	test   %eax,%eax
c01040de:	74 17                	je     c01040f7 <identify_cpu+0x298>
c01040e0:	8b 45 08             	mov    0x8(%ebp),%eax
c01040e3:	8b 40 04             	mov    0x4(%eax),%eax
c01040e6:	83 f8 02             	cmp    $0x2,%eax
c01040e9:	75 0c                	jne    c01040f7 <identify_cpu+0x298>
c01040eb:	8b 45 08             	mov    0x8(%ebp),%eax
c01040ee:	c7 40 28 01 00 00 00 	movl   $0x1,0x28(%eax)
c01040f5:	eb 50                	jmp    c0104147 <identify_cpu+0x2e8>
c01040f7:	8b 45 08             	mov    0x8(%ebp),%eax
c01040fa:	8b 40 6c             	mov    0x6c(%eax),%eax
c01040fd:	25 00 08 00 00       	and    $0x800,%eax
c0104102:	85 c0                	test   %eax,%eax
c0104104:	74 41                	je     c0104147 <identify_cpu+0x2e8>
c0104106:	8b 45 08             	mov    0x8(%ebp),%eax
c0104109:	8b 40 04             	mov    0x4(%eax),%eax
c010410c:	83 f8 01             	cmp    $0x1,%eax
c010410f:	77 36                	ja     c0104147 <identify_cpu+0x2e8>
c0104111:	8b 45 08             	mov    0x8(%ebp),%eax
c0104114:	8b 40 0c             	mov    0xc(%eax),%eax
c0104117:	3d 00 00 00 80       	cmp    $0x80000000,%eax
c010411c:	76 29                	jbe    c0104147 <identify_cpu+0x2e8>
c010411e:	8d 45 cc             	lea    -0x34(%ebp),%eax
c0104121:	89 44 24 04          	mov    %eax,0x4(%esp)
c0104125:	c7 04 24 01 00 00 80 	movl   $0x80000001,(%esp)
c010412c:	e8 fb fc ff ff       	call   c0103e2c <cpuid>
c0104131:	8b 45 d8             	mov    -0x28(%ebp),%eax
c0104134:	25 00 10 00 00       	and    $0x1000,%eax
c0104139:	85 c0                	test   %eax,%eax
c010413b:	74 0a                	je     c0104147 <identify_cpu+0x2e8>
c010413d:	8b 45 08             	mov    0x8(%ebp),%eax
c0104140:	c7 40 28 02 00 00 00 	movl   $0x2,0x28(%eax)
c0104147:	8b 45 08             	mov    0x8(%ebp),%eax
c010414a:	8b 40 0c             	mov    0xc(%eax),%eax
c010414d:	3d 00 00 00 80       	cmp    $0x80000000,%eax
c0104152:	76 21                	jbe    c0104175 <identify_cpu+0x316>
c0104154:	8d 45 cc             	lea    -0x34(%ebp),%eax
c0104157:	89 44 24 04          	mov    %eax,0x4(%esp)
c010415b:	c7 04 24 01 00 00 80 	movl   $0x80000001,(%esp)
c0104162:	e8 c5 fc ff ff       	call   c0103e2c <cpuid>
c0104167:	8b 45 d0             	mov    -0x30(%ebp),%eax
c010416a:	89 c2                	mov    %eax,%edx
c010416c:	8b 45 08             	mov    0x8(%ebp),%eax
c010416f:	66 89 50 2c          	mov    %dx,0x2c(%eax)
c0104173:	eb 09                	jmp    c010417e <identify_cpu+0x31f>
c0104175:	8b 45 08             	mov    0x8(%ebp),%eax
c0104178:	66 c7 40 2c 3e 00    	movw   $0x3e,0x2c(%eax)
c010417e:	8b 45 08             	mov    0x8(%ebp),%eax
c0104181:	8b 40 0c             	mov    0xc(%eax),%eax
c0104184:	3d 04 00 00 80       	cmp    $0x80000004,%eax
c0104189:	76 59                	jbe    c01041e4 <identify_cpu+0x385>
c010418b:	c7 45 e4 02 00 00 80 	movl   $0x80000002,-0x1c(%ebp)
c0104192:	eb 42                	jmp    c01041d6 <identify_cpu+0x377>
c0104194:	8d 45 cc             	lea    -0x34(%ebp),%eax
c0104197:	89 44 24 04          	mov    %eax,0x4(%esp)
c010419b:	8b 45 e4             	mov    -0x1c(%ebp),%eax
c010419e:	89 04 24             	mov    %eax,(%esp)
c01041a1:	e8 86 fc ff ff       	call   c0103e2c <cpuid>
c01041a6:	8b 45 08             	mov    0x8(%ebp),%eax
c01041a9:	8d 50 34             	lea    0x34(%eax),%edx
c01041ac:	8b 45 e4             	mov    -0x1c(%ebp),%eax
c01041af:	05 fe ff ff 0f       	add    $0xffffffe,%eax
c01041b4:	c1 e0 04             	shl    $0x4,%eax
c01041b7:	01 c2                	add    %eax,%edx
c01041b9:	8d 45 cc             	lea    -0x34(%ebp),%eax
c01041bc:	8b 08                	mov    (%eax),%ecx
c01041be:	89 0a                	mov    %ecx,(%edx)
c01041c0:	8b 48 04             	mov    0x4(%eax),%ecx
c01041c3:	89 4a 04             	mov    %ecx,0x4(%edx)
c01041c6:	8b 48 08             	mov    0x8(%eax),%ecx
c01041c9:	89 4a 08             	mov    %ecx,0x8(%edx)
c01041cc:	8b 40 0c             	mov    0xc(%eax),%eax
c01041cf:	89 42 0c             	mov    %eax,0xc(%edx)
c01041d2:	83 45 e4 01          	addl   $0x1,-0x1c(%ebp)
c01041d6:	81 7d e4 04 00 00 80 	cmpl   $0x80000004,-0x1c(%ebp)
c01041dd:	76 b5                	jbe    c0104194 <identify_cpu+0x335>
c01041df:	e9 e1 00 00 00       	jmp    c01042c5 <identify_cpu+0x466>
c01041e4:	8b 45 08             	mov    0x8(%ebp),%eax
c01041e7:	0f b6 40 1d          	movzbl 0x1d(%eax),%eax
c01041eb:	3c 06                	cmp    $0x6,%al
c01041ed:	75 6d                	jne    c010425c <identify_cpu+0x3fd>
c01041ef:	8b 45 08             	mov    0x8(%ebp),%eax
c01041f2:	0f b6 40 1e          	movzbl 0x1e(%eax),%eax
c01041f6:	3c 03                	cmp    $0x3,%al
c01041f8:	75 62                	jne    c010425c <identify_cpu+0x3fd>
c01041fa:	8b 45 08             	mov    0x8(%ebp),%eax
c01041fd:	0f b6 40 1f          	movzbl 0x1f(%eax),%eax
c0104201:	3c 03                	cmp    $0x3,%al
c0104203:	75 57                	jne    c010425c <identify_cpu+0x3fd>
c0104205:	8b 45 08             	mov    0x8(%ebp),%eax
c0104208:	8d 58 34             	lea    0x34(%eax),%ebx
c010420b:	89 d8                	mov    %ebx,%eax
c010420d:	c7 45 c4 ff ff ff ff 	movl   $0xffffffff,-0x3c(%ebp)
c0104214:	89 c2                	mov    %eax,%edx
c0104216:	b8 00 00 00 00       	mov    $0x0,%eax
c010421b:	8b 4d c4             	mov    -0x3c(%ebp),%ecx
c010421e:	89 d7                	mov    %edx,%edi
c0104220:	f2 ae                	repnz scas %es:(%edi),%al
c0104222:	89 c8                	mov    %ecx,%eax
c0104224:	f7 d0                	not    %eax
c0104226:	83 e8 01             	sub    $0x1,%eax
c0104229:	01 d8                	add    %ebx,%eax
c010422b:	c7 00 51 75 65 6d    	movl   $0x6d657551,(%eax)
c0104231:	66 c7 40 04 75 20    	movw   $0x2075,0x4(%eax)
c0104237:	c6 40 06 00          	movb   $0x0,0x6(%eax)
c010423b:	8b 45 08             	mov    0x8(%ebp),%eax
c010423e:	8b 40 30             	mov    0x30(%eax),%eax
c0104241:	8b 04 85 28 f1 10 c0 	mov    -0x3fef0ed8(,%eax,4),%eax
c0104248:	8b 55 08             	mov    0x8(%ebp),%edx
c010424b:	83 c2 34             	add    $0x34,%edx
c010424e:	89 44 24 04          	mov    %eax,0x4(%esp)
c0104252:	89 14 24             	mov    %edx,(%esp)
c0104255:	e8 3b 56 00 00       	call   c0109895 <strcat>
c010425a:	eb 69                	jmp    c01042c5 <identify_cpu+0x466>
c010425c:	8b 45 08             	mov    0x8(%ebp),%eax
c010425f:	8b 40 04             	mov    0x4(%eax),%eax
c0104262:	8b 04 85 e0 f0 10 c0 	mov    -0x3fef0f20(,%eax,4),%eax
c0104269:	8b 55 08             	mov    0x8(%ebp),%edx
c010426c:	83 c2 34             	add    $0x34,%edx
c010426f:	89 44 24 04          	mov    %eax,0x4(%esp)
c0104273:	89 14 24             	mov    %edx,(%esp)
c0104276:	e8 64 55 00 00       	call   c01097df <strcpy>
c010427b:	8b 45 08             	mov    0x8(%ebp),%eax
c010427e:	8d 58 34             	lea    0x34(%eax),%ebx
c0104281:	89 d8                	mov    %ebx,%eax
c0104283:	c7 45 c4 ff ff ff ff 	movl   $0xffffffff,-0x3c(%ebp)
c010428a:	89 c2                	mov    %eax,%edx
c010428c:	b8 00 00 00 00       	mov    $0x0,%eax
c0104291:	8b 4d c4             	mov    -0x3c(%ebp),%ecx
c0104294:	89 d7                	mov    %edx,%edi
c0104296:	f2 ae                	repnz scas %es:(%edi),%al
c0104298:	89 c8                	mov    %ecx,%eax
c010429a:	f7 d0                	not    %eax
c010429c:	83 e8 01             	sub    $0x1,%eax
c010429f:	01 d8                	add    %ebx,%eax
c01042a1:	66 c7 00 20 00       	movw   $0x20,(%eax)
c01042a6:	8b 45 08             	mov    0x8(%ebp),%eax
c01042a9:	8b 40 30             	mov    0x30(%eax),%eax
c01042ac:	8b 04 85 28 f1 10 c0 	mov    -0x3fef0ed8(,%eax,4),%eax
c01042b3:	8b 55 08             	mov    0x8(%ebp),%edx
c01042b6:	83 c2 34             	add    $0x34,%edx
c01042b9:	89 44 24 04          	mov    %eax,0x4(%esp)
c01042bd:	89 14 24             	mov    %edx,(%esp)
c01042c0:	e8 d0 55 00 00       	call   c0109895 <strcat>
c01042c5:	b8 00 00 00 00       	mov    $0x0,%eax
c01042ca:	83 c4 4c             	add    $0x4c,%esp
c01042cd:	5b                   	pop    %ebx
c01042ce:	5e                   	pop    %esi
c01042cf:	5f                   	pop    %edi
c01042d0:	5d                   	pop    %ebp
c01042d1:	c3                   	ret    

c01042d2 <CPU_info>:
c01042d2:	55                   	push   %ebp
c01042d3:	89 e5                	mov    %esp,%ebp
c01042d5:	83 ec 18             	sub    $0x18,%esp
c01042d8:	8b 45 08             	mov    0x8(%ebp),%eax
c01042db:	8b 00                	mov    (%eax),%eax
c01042dd:	83 f8 01             	cmp    $0x1,%eax
c01042e0:	0f 85 34 01 00 00    	jne    c010441a <CPU_info+0x148>
c01042e6:	8b 45 08             	mov    0x8(%ebp),%eax
c01042e9:	8b 40 04             	mov    0x4(%eax),%eax
c01042ec:	8b 04 85 e0 f0 10 c0 	mov    -0x3fef0f20(,%eax,4),%eax
c01042f3:	89 44 24 04          	mov    %eax,0x4(%esp)
c01042f7:	c7 04 24 c1 bd 10 c0 	movl   $0xc010bdc1,(%esp)
c01042fe:	e8 51 0f 00 00       	call   c0105254 <printf>
c0104303:	8b 45 08             	mov    0x8(%ebp),%eax
c0104306:	8b 40 30             	mov    0x30(%eax),%eax
c0104309:	8b 04 85 28 f1 10 c0 	mov    -0x3fef0ed8(,%eax,4),%eax
c0104310:	89 44 24 04          	mov    %eax,0x4(%esp)
c0104314:	c7 04 24 d6 bd 10 c0 	movl   $0xc010bdd6,(%esp)
c010431b:	e8 34 0f 00 00       	call   c0105254 <printf>
c0104320:	8b 45 08             	mov    0x8(%ebp),%eax
c0104323:	83 c0 34             	add    $0x34,%eax
c0104326:	89 44 24 04          	mov    %eax,0x4(%esp)
c010432a:	c7 04 24 e8 bd 10 c0 	movl   $0xc010bde8,(%esp)
c0104331:	e8 1e 0f 00 00       	call   c0105254 <printf>
c0104336:	8b 45 08             	mov    0x8(%ebp),%eax
c0104339:	0f b6 40 1f          	movzbl 0x1f(%eax),%eax
c010433d:	0f b6 c8             	movzbl %al,%ecx
c0104340:	8b 45 08             	mov    0x8(%ebp),%eax
c0104343:	0f b6 40 1e          	movzbl 0x1e(%eax),%eax
c0104347:	0f b6 d0             	movzbl %al,%edx
c010434a:	8b 45 08             	mov    0x8(%ebp),%eax
c010434d:	0f b6 40 1d          	movzbl 0x1d(%eax),%eax
c0104351:	0f b6 c0             	movzbl %al,%eax
c0104354:	89 4c 24 0c          	mov    %ecx,0xc(%esp)
c0104358:	89 54 24 08          	mov    %edx,0x8(%esp)
c010435c:	89 44 24 04          	mov    %eax,0x4(%esp)
c0104360:	c7 04 24 f8 bd 10 c0 	movl   $0xc010bdf8,(%esp)
c0104367:	e8 e8 0e 00 00       	call   c0105254 <printf>
c010436c:	8b 45 08             	mov    0x8(%ebp),%eax
c010436f:	0f b6 40 23          	movzbl 0x23(%eax),%eax
c0104373:	0f b6 c0             	movzbl %al,%eax
c0104376:	89 44 24 04          	mov    %eax,0x4(%esp)
c010437a:	c7 04 24 1d be 10 c0 	movl   $0xc010be1d,(%esp)
c0104381:	e8 ce 0e 00 00       	call   c0105254 <printf>
c0104386:	8b 45 08             	mov    0x8(%ebp),%eax
c0104389:	8b 50 6c             	mov    0x6c(%eax),%edx
c010438c:	8b 45 08             	mov    0x8(%ebp),%eax
c010438f:	8b 40 68             	mov    0x68(%eax),%eax
c0104392:	89 54 24 08          	mov    %edx,0x8(%esp)
c0104396:	89 44 24 04          	mov    %eax,0x4(%esp)
c010439a:	c7 04 24 2f be 10 c0 	movl   $0xc010be2f,(%esp)
c01043a1:	e8 ae 0e 00 00       	call   c0105254 <printf>
c01043a6:	8b 45 08             	mov    0x8(%ebp),%eax
c01043a9:	8b 40 28             	mov    0x28(%eax),%eax
c01043ac:	8b 04 85 1c f1 10 c0 	mov    -0x3fef0ee4(,%eax,4),%eax
c01043b3:	89 44 24 04          	mov    %eax,0x4(%esp)
c01043b7:	c7 04 24 47 be 10 c0 	movl   $0xc010be47,(%esp)
c01043be:	e8 91 0e 00 00       	call   c0105254 <printf>
c01043c3:	8b 45 08             	mov    0x8(%ebp),%eax
c01043c6:	8b 40 6c             	mov    0x6c(%eax),%eax
c01043c9:	25 00 00 08 00       	and    $0x80000,%eax
c01043ce:	85 c0                	test   %eax,%eax
c01043d0:	74 1d                	je     c01043ef <CPU_info+0x11d>
c01043d2:	8b 45 08             	mov    0x8(%ebp),%eax
c01043d5:	0f b6 40 22          	movzbl 0x22(%eax),%eax
c01043d9:	0f b6 c0             	movzbl %al,%eax
c01043dc:	c1 e0 03             	shl    $0x3,%eax
c01043df:	89 44 24 04          	mov    %eax,0x4(%esp)
c01043e3:	c7 04 24 5c be 10 c0 	movl   $0xc010be5c,(%esp)
c01043ea:	e8 65 0e 00 00       	call   c0105254 <printf>
c01043ef:	8b 45 08             	mov    0x8(%ebp),%eax
c01043f2:	8b 40 6c             	mov    0x6c(%eax),%eax
c01043f5:	25 00 00 40 00       	and    $0x400000,%eax
c01043fa:	85 c0                	test   %eax,%eax
c01043fc:	74 28                	je     c0104426 <CPU_info+0x154>
c01043fe:	8b 45 08             	mov    0x8(%ebp),%eax
c0104401:	0f b6 40 2e          	movzbl 0x2e(%eax),%eax
c0104405:	0f b6 c0             	movzbl %al,%eax
c0104408:	89 44 24 04          	mov    %eax,0x4(%esp)
c010440c:	c7 04 24 6f be 10 c0 	movl   $0xc010be6f,(%esp)
c0104413:	e8 3c 0e 00 00       	call   c0105254 <printf>
c0104418:	eb 0c                	jmp    c0104426 <CPU_info+0x154>
c010441a:	c7 04 24 7c be 10 c0 	movl   $0xc010be7c,(%esp)
c0104421:	e8 41 1a 00 00       	call   c0105e67 <puts>
c0104426:	c9                   	leave  
c0104427:	c3                   	ret    

c0104428 <INIT_CPUID>:
c0104428:	55                   	push   %ebp
c0104429:	89 e5                	mov    %esp,%ebp
c010442b:	83 ec 18             	sub    $0x18,%esp
c010442e:	c7 04 24 20 30 11 c0 	movl   $0xc0113020,(%esp)
c0104435:	e8 25 fa ff ff       	call   c0103e5f <identify_cpu>
c010443a:	c7 04 24 20 30 11 c0 	movl   $0xc0113020,(%esp)
c0104441:	e8 8c fe ff ff       	call   c01042d2 <CPU_info>
c0104446:	c9                   	leave  
c0104447:	c3                   	ret    

c0104448 <itoa_ex>:
c0104448:	55                   	push   %ebp
c0104449:	89 e5                	mov    %esp,%ebp
c010444b:	83 ec 48             	sub    $0x48,%esp
c010444e:	8b 45 0c             	mov    0xc(%ebp),%eax
c0104451:	89 45 e8             	mov    %eax,-0x18(%ebp)
c0104454:	c7 45 f4 00 00 00 00 	movl   $0x0,-0xc(%ebp)
c010445b:	c7 45 f0 00 00 00 00 	movl   $0x0,-0x10(%ebp)
c0104462:	c7 45 e4 00 00 00 00 	movl   $0x0,-0x1c(%ebp)
c0104469:	c7 45 ec 9f be 10 c0 	movl   $0xc010be9f,-0x14(%ebp)
c0104470:	8b 45 14             	mov    0x14(%ebp),%eax
c0104473:	83 e0 20             	and    $0x20,%eax
c0104476:	85 c0                	test   %eax,%eax
c0104478:	74 07                	je     c0104481 <itoa_ex+0x39>
c010447a:	c7 45 ec b0 be 10 c0 	movl   $0xc010beb0,-0x14(%ebp)
c0104481:	8b 45 08             	mov    0x8(%ebp),%eax
c0104484:	89 45 f0             	mov    %eax,-0x10(%ebp)
c0104487:	8b 55 10             	mov    0x10(%ebp),%edx
c010448a:	89 55 d4             	mov    %edx,-0x2c(%ebp)
c010448d:	8b 45 f0             	mov    -0x10(%ebp),%eax
c0104490:	ba 00 00 00 00       	mov    $0x0,%edx
c0104495:	f7 75 d4             	divl   -0x2c(%ebp)
c0104498:	89 45 f0             	mov    %eax,-0x10(%ebp)
c010449b:	83 45 f4 01          	addl   $0x1,-0xc(%ebp)
c010449f:	83 7d f0 00          	cmpl   $0x0,-0x10(%ebp)
c01044a3:	75 e2                	jne    c0104487 <itoa_ex+0x3f>
c01044a5:	8b 45 f4             	mov    -0xc(%ebp),%eax
c01044a8:	89 45 e0             	mov    %eax,-0x20(%ebp)
c01044ab:	8b 45 14             	mov    0x14(%ebp),%eax
c01044ae:	83 e0 10             	and    $0x10,%eax
c01044b1:	85 c0                	test   %eax,%eax
c01044b3:	75 27                	jne    c01044dc <itoa_ex+0x94>
c01044b5:	8b 45 14             	mov    0x14(%ebp),%eax
c01044b8:	83 e0 01             	and    $0x1,%eax
c01044bb:	85 c0                	test   %eax,%eax
c01044bd:	75 1d                	jne    c01044dc <itoa_ex+0x94>
c01044bf:	eb 0a                	jmp    c01044cb <itoa_ex+0x83>
c01044c1:	8b 45 0c             	mov    0xc(%ebp),%eax
c01044c4:	c6 00 20             	movb   $0x20,(%eax)
c01044c7:	83 45 0c 01          	addl   $0x1,0xc(%ebp)
c01044cb:	8b 45 18             	mov    0x18(%ebp),%eax
c01044ce:	3b 45 e0             	cmp    -0x20(%ebp),%eax
c01044d1:	0f 97 c0             	seta   %al
c01044d4:	83 6d 18 01          	subl   $0x1,0x18(%ebp)
c01044d8:	84 c0                	test   %al,%al
c01044da:	75 e5                	jne    c01044c1 <itoa_ex+0x79>
c01044dc:	83 7d e4 00          	cmpl   $0x0,-0x1c(%ebp)
c01044e0:	74 0c                	je     c01044ee <itoa_ex+0xa6>
c01044e2:	8b 45 0c             	mov    0xc(%ebp),%eax
c01044e5:	c6 00 2d             	movb   $0x2d,(%eax)
c01044e8:	83 45 0c 01          	addl   $0x1,0xc(%ebp)
c01044ec:	eb 14                	jmp    c0104502 <itoa_ex+0xba>
c01044ee:	8b 45 14             	mov    0x14(%ebp),%eax
c01044f1:	83 e0 04             	and    $0x4,%eax
c01044f4:	85 c0                	test   %eax,%eax
c01044f6:	74 0a                	je     c0104502 <itoa_ex+0xba>
c01044f8:	8b 45 0c             	mov    0xc(%ebp),%eax
c01044fb:	c6 00 2b             	movb   $0x2b,(%eax)
c01044fe:	83 45 0c 01          	addl   $0x1,0xc(%ebp)
c0104502:	8b 45 14             	mov    0x14(%ebp),%eax
c0104505:	83 e0 40             	and    $0x40,%eax
c0104508:	85 c0                	test   %eax,%eax
c010450a:	74 18                	je     c0104524 <itoa_ex+0xdc>
c010450c:	8b 45 0c             	mov    0xc(%ebp),%eax
c010450f:	c6 00 30             	movb   $0x30,(%eax)
c0104512:	83 45 0c 01          	addl   $0x1,0xc(%ebp)
c0104516:	8b 45 0c             	mov    0xc(%ebp),%eax
c0104519:	c6 00 78             	movb   $0x78,(%eax)
c010451c:	83 45 0c 01          	addl   $0x1,0xc(%ebp)
c0104520:	83 6d 18 02          	subl   $0x2,0x18(%ebp)
c0104524:	8b 45 14             	mov    0x14(%ebp),%eax
c0104527:	83 e0 10             	and    $0x10,%eax
c010452a:	85 c0                	test   %eax,%eax
c010452c:	75 27                	jne    c0104555 <itoa_ex+0x10d>
c010452e:	8b 45 14             	mov    0x14(%ebp),%eax
c0104531:	83 e0 01             	and    $0x1,%eax
c0104534:	84 c0                	test   %al,%al
c0104536:	74 1d                	je     c0104555 <itoa_ex+0x10d>
c0104538:	eb 0a                	jmp    c0104544 <itoa_ex+0xfc>
c010453a:	8b 45 0c             	mov    0xc(%ebp),%eax
c010453d:	c6 00 30             	movb   $0x30,(%eax)
c0104540:	83 45 0c 01          	addl   $0x1,0xc(%ebp)
c0104544:	8b 45 18             	mov    0x18(%ebp),%eax
c0104547:	3b 45 e0             	cmp    -0x20(%ebp),%eax
c010454a:	0f 97 c0             	seta   %al
c010454d:	83 6d 18 01          	subl   $0x1,0x18(%ebp)
c0104551:	84 c0                	test   %al,%al
c0104553:	75 e5                	jne    c010453a <itoa_ex+0xf2>
c0104555:	83 6d f4 01          	subl   $0x1,-0xc(%ebp)
c0104559:	8b 45 f4             	mov    -0xc(%ebp),%eax
c010455c:	89 44 24 04          	mov    %eax,0x4(%esp)
c0104560:	8b 45 10             	mov    0x10(%ebp),%eax
c0104563:	89 04 24             	mov    %eax,(%esp)
c0104566:	e8 ca de ff ff       	call   c0102435 <powi>
c010456b:	89 45 dc             	mov    %eax,-0x24(%ebp)
c010456e:	8b 55 dc             	mov    -0x24(%ebp),%edx
c0104571:	89 55 d4             	mov    %edx,-0x2c(%ebp)
c0104574:	8b 45 08             	mov    0x8(%ebp),%eax
c0104577:	ba 00 00 00 00       	mov    $0x0,%edx
c010457c:	f7 75 d4             	divl   -0x2c(%ebp)
c010457f:	89 45 d8             	mov    %eax,-0x28(%ebp)
c0104582:	8b 45 d8             	mov    -0x28(%ebp),%eax
c0104585:	03 45 ec             	add    -0x14(%ebp),%eax
c0104588:	0f b6 10             	movzbl (%eax),%edx
c010458b:	8b 45 0c             	mov    0xc(%ebp),%eax
c010458e:	88 10                	mov    %dl,(%eax)
c0104590:	83 45 0c 01          	addl   $0x1,0xc(%ebp)
c0104594:	8b 45 d8             	mov    -0x28(%ebp),%eax
c0104597:	0f af 45 dc          	imul   -0x24(%ebp),%eax
c010459b:	29 45 08             	sub    %eax,0x8(%ebp)
c010459e:	83 7d f4 00          	cmpl   $0x0,-0xc(%ebp)
c01045a2:	75 b1                	jne    c0104555 <itoa_ex+0x10d>
c01045a4:	eb 0a                	jmp    c01045b0 <itoa_ex+0x168>
c01045a6:	8b 45 0c             	mov    0xc(%ebp),%eax
c01045a9:	c6 00 20             	movb   $0x20,(%eax)
c01045ac:	83 45 0c 01          	addl   $0x1,0xc(%ebp)
c01045b0:	8b 45 18             	mov    0x18(%ebp),%eax
c01045b3:	3b 45 e0             	cmp    -0x20(%ebp),%eax
c01045b6:	0f 97 c0             	seta   %al
c01045b9:	83 6d 18 01          	subl   $0x1,0x18(%ebp)
c01045bd:	84 c0                	test   %al,%al
c01045bf:	75 e5                	jne    c01045a6 <itoa_ex+0x15e>
c01045c1:	8b 45 0c             	mov    0xc(%ebp),%eax
c01045c4:	c6 00 00             	movb   $0x0,(%eax)
c01045c7:	83 45 0c 01          	addl   $0x1,0xc(%ebp)
c01045cb:	8b 45 e8             	mov    -0x18(%ebp),%eax
c01045ce:	c9                   	leave  
c01045cf:	c3                   	ret    

c01045d0 <itoa>:
c01045d0:	55                   	push   %ebp
c01045d1:	89 e5                	mov    %esp,%ebp
c01045d3:	83 ec 28             	sub    $0x28,%esp
c01045d6:	c7 44 24 10 01 00 00 	movl   $0x1,0x10(%esp)
c01045dd:	00 
c01045de:	c7 44 24 0c 00 00 00 	movl   $0x0,0xc(%esp)
c01045e5:	00 
c01045e6:	8b 45 10             	mov    0x10(%ebp),%eax
c01045e9:	89 44 24 08          	mov    %eax,0x8(%esp)
c01045ed:	8b 45 0c             	mov    0xc(%ebp),%eax
c01045f0:	89 44 24 04          	mov    %eax,0x4(%esp)
c01045f4:	8b 45 08             	mov    0x8(%ebp),%eax
c01045f7:	89 04 24             	mov    %eax,(%esp)
c01045fa:	e8 49 fe ff ff       	call   c0104448 <itoa_ex>
c01045ff:	c9                   	leave  
c0104600:	c3                   	ret    

c0104601 <atoi>:
c0104601:	55                   	push   %ebp
c0104602:	89 e5                	mov    %esp,%ebp
c0104604:	83 ec 28             	sub    $0x28,%esp
c0104607:	c7 45 f4 00 00 00 00 	movl   $0x0,-0xc(%ebp)
c010460e:	c7 45 f0 00 00 00 00 	movl   $0x0,-0x10(%ebp)
c0104615:	eb 04                	jmp    c010461b <atoi+0x1a>
c0104617:	83 45 f0 01          	addl   $0x1,-0x10(%ebp)
c010461b:	8b 45 08             	mov    0x8(%ebp),%eax
c010461e:	0f b6 00             	movzbl (%eax),%eax
c0104621:	0f be c0             	movsbl %al,%eax
c0104624:	83 e8 30             	sub    $0x30,%eax
c0104627:	83 f8 09             	cmp    $0x9,%eax
c010462a:	0f 96 c0             	setbe  %al
c010462d:	83 45 08 01          	addl   $0x1,0x8(%ebp)
c0104631:	84 c0                	test   %al,%al
c0104633:	75 e2                	jne    c0104617 <atoi+0x16>
c0104635:	8b 45 f0             	mov    -0x10(%ebp),%eax
c0104638:	f7 d0                	not    %eax
c010463a:	01 45 08             	add    %eax,0x8(%ebp)
c010463d:	eb 2d                	jmp    c010466c <atoi+0x6b>
c010463f:	83 6d f0 01          	subl   $0x1,-0x10(%ebp)
c0104643:	8b 45 f0             	mov    -0x10(%ebp),%eax
c0104646:	89 44 24 04          	mov    %eax,0x4(%esp)
c010464a:	c7 04 24 0a 00 00 00 	movl   $0xa,(%esp)
c0104651:	e8 df dd ff ff       	call   c0102435 <powi>
c0104656:	8b 55 08             	mov    0x8(%ebp),%edx
c0104659:	0f b6 12             	movzbl (%edx),%edx
c010465c:	0f be d2             	movsbl %dl,%edx
c010465f:	83 ea 30             	sub    $0x30,%edx
c0104662:	0f af c2             	imul   %edx,%eax
c0104665:	01 45 f4             	add    %eax,-0xc(%ebp)
c0104668:	83 45 08 01          	addl   $0x1,0x8(%ebp)
c010466c:	83 7d f0 00          	cmpl   $0x0,-0x10(%ebp)
c0104670:	7f cd                	jg     c010463f <atoi+0x3e>
c0104672:	8b 45 f4             	mov    -0xc(%ebp),%eax
c0104675:	c9                   	leave  
c0104676:	c3                   	ret    
	...

c0104678 <INIT_VFS>:
c0104678:	55                   	push   %ebp
c0104679:	89 e5                	mov    %esp,%ebp
c010467b:	83 ec 28             	sub    $0x28,%esp
c010467e:	c7 04 24 54 00 00 00 	movl   $0x54,(%esp)
c0104685:	e8 da 10 00 00       	call   c0105764 <malloc>
c010468a:	a3 60 10 11 c0       	mov    %eax,0xc0111060
c010468f:	a1 60 10 11 c0       	mov    0xc0111060,%eax
c0104694:	c7 40 10 00 00 00 00 	movl   $0x0,0x10(%eax)
c010469b:	a1 60 10 11 c0       	mov    0xc0111060,%eax
c01046a0:	c7 40 0c ff 01 00 00 	movl   $0x1ff,0xc(%eax)
c01046a7:	c7 05 64 10 11 c0 01 	movl   $0x1,0xc0111064
c01046ae:	00 00 00 
c01046b1:	a1 60 10 11 c0       	mov    0xc0111060,%eax
c01046b6:	c7 00 c1 be 10 c0    	movl   $0xc010bec1,(%eax)
c01046bc:	a1 60 10 11 c0       	mov    0xc0111060,%eax
c01046c1:	c7 40 08 00 00 00 00 	movl   $0x0,0x8(%eax)
c01046c8:	a1 60 10 11 c0       	mov    0xc0111060,%eax
c01046cd:	c7 40 50 00 00 00 00 	movl   $0x0,0x50(%eax)
c01046d4:	a1 60 10 11 c0       	mov    0xc0111060,%eax
c01046d9:	89 44 24 08          	mov    %eax,0x8(%esp)
c01046dd:	c7 44 24 04 ff 01 00 	movl   $0x1ff,0x4(%esp)
c01046e4:	00 
c01046e5:	c7 04 24 c6 be 10 c0 	movl   $0xc010bec6,(%esp)
c01046ec:	e8 42 00 00 00       	call   c0104733 <vfs_create_inode>
c01046f1:	89 45 f4             	mov    %eax,-0xc(%ebp)
c01046f4:	c7 44 24 0c 0d 00 00 	movl   $0xd,0xc(%esp)
c01046fb:	00 
c01046fc:	c7 44 24 08 ce be 10 	movl   $0xc010bece,0x8(%esp)
c0104703:	c0 
c0104704:	c7 44 24 04 00 00 00 	movl   $0x0,0x4(%esp)
c010470b:	00 
c010470c:	8b 45 f4             	mov    -0xc(%ebp),%eax
c010470f:	89 04 24             	mov    %eax,(%esp)
c0104712:	e8 39 01 00 00       	call   c0104850 <vfs_write>
c0104717:	c9                   	leave  
c0104718:	c3                   	ret    

c0104719 <set_vfs_uid>:
c0104719:	55                   	push   %ebp
c010471a:	89 e5                	mov    %esp,%ebp
c010471c:	8b 45 08             	mov    0x8(%ebp),%eax
c010471f:	a3 68 10 11 c0       	mov    %eax,0xc0111068
c0104724:	5d                   	pop    %ebp
c0104725:	c3                   	ret    

c0104726 <set_vfs_gid>:
c0104726:	55                   	push   %ebp
c0104727:	89 e5                	mov    %esp,%ebp
c0104729:	8b 45 08             	mov    0x8(%ebp),%eax
c010472c:	a3 6c 10 11 c0       	mov    %eax,0xc011106c
c0104731:	5d                   	pop    %ebp
c0104732:	c3                   	ret    

c0104733 <vfs_create_inode>:
c0104733:	55                   	push   %ebp
c0104734:	89 e5                	mov    %esp,%ebp
c0104736:	83 ec 28             	sub    $0x28,%esp
c0104739:	c7 04 24 54 00 00 00 	movl   $0x54,(%esp)
c0104740:	e8 1f 10 00 00       	call   c0105764 <malloc>
c0104745:	89 45 f4             	mov    %eax,-0xc(%ebp)
c0104748:	8b 45 f4             	mov    -0xc(%ebp),%eax
c010474b:	8b 55 08             	mov    0x8(%ebp),%edx
c010474e:	89 10                	mov    %edx,(%eax)
c0104750:	8b 45 f4             	mov    -0xc(%ebp),%eax
c0104753:	c7 40 08 00 00 00 00 	movl   $0x0,0x8(%eax)
c010475a:	8b 45 f4             	mov    -0xc(%ebp),%eax
c010475d:	c7 40 04 00 00 00 00 	movl   $0x0,0x4(%eax)
c0104764:	83 7d 10 00          	cmpl   $0x0,0x10(%ebp)
c0104768:	74 3b                	je     c01047a5 <vfs_create_inode+0x72>
c010476a:	8b 45 f4             	mov    -0xc(%ebp),%eax
c010476d:	8b 55 10             	mov    0x10(%ebp),%edx
c0104770:	89 50 50             	mov    %edx,0x50(%eax)
c0104773:	8b 45 f4             	mov    -0xc(%ebp),%eax
c0104776:	89 04 24             	mov    %eax,(%esp)
c0104779:	e8 a4 00 00 00       	call   c0104822 <vfs_create_dir_entry>
c010477e:	89 45 f0             	mov    %eax,-0x10(%ebp)
c0104781:	8b 45 10             	mov    0x10(%ebp),%eax
c0104784:	8b 40 08             	mov    0x8(%eax),%eax
c0104787:	c7 44 24 0c 08 00 00 	movl   $0x8,0xc(%esp)
c010478e:	00 
c010478f:	8b 55 f0             	mov    -0x10(%ebp),%edx
c0104792:	89 54 24 08          	mov    %edx,0x8(%esp)
c0104796:	89 44 24 04          	mov    %eax,0x4(%esp)
c010479a:	8b 45 10             	mov    0x10(%ebp),%eax
c010479d:	89 04 24             	mov    %eax,(%esp)
c01047a0:	e8 ab 00 00 00       	call   c0104850 <vfs_write>
c01047a5:	8b 45 f4             	mov    -0xc(%ebp),%eax
c01047a8:	8b 55 0c             	mov    0xc(%ebp),%edx
c01047ab:	89 50 0c             	mov    %edx,0xc(%eax)
c01047ae:	a1 64 10 11 c0       	mov    0xc0111064,%eax
c01047b3:	8b 55 f4             	mov    -0xc(%ebp),%edx
c01047b6:	89 42 10             	mov    %eax,0x10(%edx)
c01047b9:	83 c0 01             	add    $0x1,%eax
c01047bc:	a3 64 10 11 c0       	mov    %eax,0xc0111064
c01047c1:	8b 15 68 10 11 c0    	mov    0xc0111068,%edx
c01047c7:	8b 45 f4             	mov    -0xc(%ebp),%eax
c01047ca:	89 50 18             	mov    %edx,0x18(%eax)
c01047cd:	8b 15 6c 10 11 c0    	mov    0xc011106c,%edx
c01047d3:	8b 45 f4             	mov    -0xc(%ebp),%eax
c01047d6:	89 50 1c             	mov    %edx,0x1c(%eax)
c01047d9:	e8 63 2e 00 00       	call   c0107641 <get_time>
c01047de:	8b 55 f4             	mov    -0xc(%ebp),%edx
c01047e1:	8b 08                	mov    (%eax),%ecx
c01047e3:	89 4a 24             	mov    %ecx,0x24(%edx)
c01047e6:	8b 48 04             	mov    0x4(%eax),%ecx
c01047e9:	89 4a 28             	mov    %ecx,0x28(%edx)
c01047ec:	0f b7 48 08          	movzwl 0x8(%eax),%ecx
c01047f0:	66 89 4a 2c          	mov    %cx,0x2c(%edx)
c01047f4:	0f b6 40 0a          	movzbl 0xa(%eax),%eax
c01047f8:	88 42 2e             	mov    %al,0x2e(%edx)
c01047fb:	e8 41 2e 00 00       	call   c0107641 <get_time>
c0104800:	8b 55 f4             	mov    -0xc(%ebp),%edx
c0104803:	8b 08                	mov    (%eax),%ecx
c0104805:	89 4a 2f             	mov    %ecx,0x2f(%edx)
c0104808:	8b 48 04             	mov    0x4(%eax),%ecx
c010480b:	89 4a 33             	mov    %ecx,0x33(%edx)
c010480e:	0f b7 48 08          	movzwl 0x8(%eax),%ecx
c0104812:	66 89 4a 37          	mov    %cx,0x37(%edx)
c0104816:	0f b6 40 0a          	movzbl 0xa(%eax),%eax
c010481a:	88 42 39             	mov    %al,0x39(%edx)
c010481d:	8b 45 f4             	mov    -0xc(%ebp),%eax
c0104820:	c9                   	leave  
c0104821:	c3                   	ret    

c0104822 <vfs_create_dir_entry>:
c0104822:	55                   	push   %ebp
c0104823:	89 e5                	mov    %esp,%ebp
c0104825:	83 ec 28             	sub    $0x28,%esp
c0104828:	c7 04 24 08 00 00 00 	movl   $0x8,(%esp)
c010482f:	e8 30 0f 00 00       	call   c0105764 <malloc>
c0104834:	89 45 f4             	mov    %eax,-0xc(%ebp)
c0104837:	8b 45 08             	mov    0x8(%ebp),%eax
c010483a:	8b 50 10             	mov    0x10(%eax),%edx
c010483d:	8b 45 f4             	mov    -0xc(%ebp),%eax
c0104840:	89 10                	mov    %edx,(%eax)
c0104842:	8b 45 f4             	mov    -0xc(%ebp),%eax
c0104845:	8b 55 08             	mov    0x8(%ebp),%edx
c0104848:	89 50 04             	mov    %edx,0x4(%eax)
c010484b:	8b 45 f4             	mov    -0xc(%ebp),%eax
c010484e:	c9                   	leave  
c010484f:	c3                   	ret    

c0104850 <vfs_write>:
c0104850:	55                   	push   %ebp
c0104851:	89 e5                	mov    %esp,%ebp
c0104853:	83 ec 38             	sub    $0x38,%esp
c0104856:	c7 45 f4 00 00 00 00 	movl   $0x0,-0xc(%ebp)
c010485d:	8b 45 08             	mov    0x8(%ebp),%eax
c0104860:	8b 50 18             	mov    0x18(%eax),%edx
c0104863:	a1 68 10 11 c0       	mov    0xc0111068,%eax
c0104868:	39 c2                	cmp    %eax,%edx
c010486a:	75 16                	jne    c0104882 <vfs_write+0x32>
c010486c:	8b 45 08             	mov    0x8(%ebp),%eax
c010486f:	8b 40 0c             	mov    0xc(%eax),%eax
c0104872:	83 e0 06             	and    $0x6,%eax
c0104875:	85 c0                	test   %eax,%eax
c0104877:	74 09                	je     c0104882 <vfs_write+0x32>
c0104879:	c7 45 f4 01 00 00 00 	movl   $0x1,-0xc(%ebp)
c0104880:	eb 3b                	jmp    c01048bd <vfs_write+0x6d>
c0104882:	8b 45 08             	mov    0x8(%ebp),%eax
c0104885:	8b 50 1c             	mov    0x1c(%eax),%edx
c0104888:	a1 6c 10 11 c0       	mov    0xc011106c,%eax
c010488d:	39 c2                	cmp    %eax,%edx
c010488f:	75 16                	jne    c01048a7 <vfs_write+0x57>
c0104891:	8b 45 08             	mov    0x8(%ebp),%eax
c0104894:	8b 40 0c             	mov    0xc(%eax),%eax
c0104897:	83 e0 14             	and    $0x14,%eax
c010489a:	85 c0                	test   %eax,%eax
c010489c:	74 09                	je     c01048a7 <vfs_write+0x57>
c010489e:	c7 45 f4 01 00 00 00 	movl   $0x1,-0xc(%ebp)
c01048a5:	eb 16                	jmp    c01048bd <vfs_write+0x6d>
c01048a7:	8b 45 08             	mov    0x8(%ebp),%eax
c01048aa:	8b 40 0c             	mov    0xc(%eax),%eax
c01048ad:	25 84 00 00 00       	and    $0x84,%eax
c01048b2:	85 c0                	test   %eax,%eax
c01048b4:	74 07                	je     c01048bd <vfs_write+0x6d>
c01048b6:	c7 45 f4 01 00 00 00 	movl   $0x1,-0xc(%ebp)
c01048bd:	83 7d f4 00          	cmpl   $0x0,-0xc(%ebp)
c01048c1:	0f 84 de 00 00 00    	je     c01049a5 <vfs_write+0x155>
c01048c7:	8b 45 08             	mov    0x8(%ebp),%eax
c01048ca:	8b 40 08             	mov    0x8(%eax),%eax
c01048cd:	89 45 f0             	mov    %eax,-0x10(%ebp)
c01048d0:	8b 45 14             	mov    0x14(%ebp),%eax
c01048d3:	8b 55 0c             	mov    0xc(%ebp),%edx
c01048d6:	01 d0                	add    %edx,%eax
c01048d8:	89 c2                	mov    %eax,%edx
c01048da:	8b 45 08             	mov    0x8(%ebp),%eax
c01048dd:	8b 40 08             	mov    0x8(%eax),%eax
c01048e0:	39 c2                	cmp    %eax,%edx
c01048e2:	76 1e                	jbe    c0104902 <vfs_write+0xb2>
c01048e4:	8b 45 14             	mov    0x14(%ebp),%eax
c01048e7:	8b 55 0c             	mov    0xc(%ebp),%edx
c01048ea:	01 d0                	add    %edx,%eax
c01048ec:	89 c2                	mov    %eax,%edx
c01048ee:	8b 45 08             	mov    0x8(%ebp),%eax
c01048f1:	89 50 08             	mov    %edx,0x8(%eax)
c01048f4:	8b 45 08             	mov    0x8(%ebp),%eax
c01048f7:	8b 40 08             	mov    0x8(%eax),%eax
c01048fa:	89 c2                	mov    %eax,%edx
c01048fc:	8b 45 08             	mov    0x8(%ebp),%eax
c01048ff:	89 50 20             	mov    %edx,0x20(%eax)
c0104902:	8b 45 08             	mov    0x8(%ebp),%eax
c0104905:	8b 40 04             	mov    0x4(%eax),%eax
c0104908:	85 c0                	test   %eax,%eax
c010490a:	75 18                	jne    c0104924 <vfs_write+0xd4>
c010490c:	8b 45 08             	mov    0x8(%ebp),%eax
c010490f:	8b 40 08             	mov    0x8(%eax),%eax
c0104912:	89 04 24             	mov    %eax,(%esp)
c0104915:	e8 4a 0e 00 00       	call   c0105764 <malloc>
c010491a:	89 c2                	mov    %eax,%edx
c010491c:	8b 45 08             	mov    0x8(%ebp),%eax
c010491f:	89 50 04             	mov    %edx,0x4(%eax)
c0104922:	eb 4f                	jmp    c0104973 <vfs_write+0x123>
c0104924:	8b 45 08             	mov    0x8(%ebp),%eax
c0104927:	8b 40 08             	mov    0x8(%eax),%eax
c010492a:	05 ff 0f 00 00       	add    $0xfff,%eax
c010492f:	25 00 f0 ff ff       	and    $0xfffff000,%eax
c0104934:	c1 e8 0c             	shr    $0xc,%eax
c0104937:	89 45 ec             	mov    %eax,-0x14(%ebp)
c010493a:	8b 45 f0             	mov    -0x10(%ebp),%eax
c010493d:	05 ff 0f 00 00       	add    $0xfff,%eax
c0104942:	25 00 f0 ff ff       	and    $0xfffff000,%eax
c0104947:	c1 e8 0c             	shr    $0xc,%eax
c010494a:	89 45 e8             	mov    %eax,-0x18(%ebp)
c010494d:	8b 45 ec             	mov    -0x14(%ebp),%eax
c0104950:	3b 45 e8             	cmp    -0x18(%ebp),%eax
c0104953:	7e 1e                	jle    c0104973 <vfs_write+0x123>
c0104955:	8b 45 08             	mov    0x8(%ebp),%eax
c0104958:	8b 50 08             	mov    0x8(%eax),%edx
c010495b:	8b 45 08             	mov    0x8(%ebp),%eax
c010495e:	8b 40 04             	mov    0x4(%eax),%eax
c0104961:	89 54 24 04          	mov    %edx,0x4(%esp)
c0104965:	89 04 24             	mov    %eax,(%esp)
c0104968:	e8 68 0e 00 00       	call   c01057d5 <realloc>
c010496d:	8b 55 08             	mov    0x8(%ebp),%edx
c0104970:	89 42 04             	mov    %eax,0x4(%edx)
c0104973:	8b 45 08             	mov    0x8(%ebp),%eax
c0104976:	8b 50 04             	mov    0x4(%eax),%edx
c0104979:	8b 45 0c             	mov    0xc(%ebp),%eax
c010497c:	01 d0                	add    %edx,%eax
c010497e:	89 45 e4             	mov    %eax,-0x1c(%ebp)
c0104981:	8b 45 10             	mov    0x10(%ebp),%eax
c0104984:	89 45 e0             	mov    %eax,-0x20(%ebp)
c0104987:	8b 4d 14             	mov    0x14(%ebp),%ecx
c010498a:	8b 45 e4             	mov    -0x1c(%ebp),%eax
c010498d:	8b 55 e0             	mov    -0x20(%ebp),%edx
c0104990:	89 4c 24 08          	mov    %ecx,0x8(%esp)
c0104994:	89 54 24 04          	mov    %edx,0x4(%esp)
c0104998:	89 04 24             	mov    %eax,(%esp)
c010499b:	e8 fe 51 00 00       	call   c0109b9e <memcpy>
c01049a0:	8b 45 14             	mov    0x14(%ebp),%eax
c01049a3:	eb 1b                	jmp    c01049c0 <vfs_write+0x170>
c01049a5:	8b 45 08             	mov    0x8(%ebp),%eax
c01049a8:	8b 40 10             	mov    0x10(%eax),%eax
c01049ab:	89 44 24 04          	mov    %eax,0x4(%esp)
c01049af:	c7 04 24 db be 10 c0 	movl   $0xc010bedb,(%esp)
c01049b6:	e8 99 08 00 00       	call   c0105254 <printf>
c01049bb:	b8 00 00 00 00       	mov    $0x0,%eax
c01049c0:	c9                   	leave  
c01049c1:	c3                   	ret    

c01049c2 <vfs_read>:
c01049c2:	55                   	push   %ebp
c01049c3:	89 e5                	mov    %esp,%ebp
c01049c5:	8b 45 08             	mov    0x8(%ebp),%eax
c01049c8:	8b 40 04             	mov    0x4(%eax),%eax
c01049cb:	03 45 0c             	add    0xc(%ebp),%eax
c01049ce:	5d                   	pop    %ebp
c01049cf:	c3                   	ret    

c01049d0 <vfs_stat>:
c01049d0:	55                   	push   %ebp
c01049d1:	89 e5                	mov    %esp,%ebp
c01049d3:	83 ec 10             	sub    $0x10,%esp
c01049d6:	8b 45 08             	mov    0x8(%ebp),%eax
c01049d9:	83 c0 0c             	add    $0xc,%eax
c01049dc:	89 45 fc             	mov    %eax,-0x4(%ebp)
c01049df:	8b 45 0c             	mov    0xc(%ebp),%eax
c01049e2:	89 45 f8             	mov    %eax,-0x8(%ebp)
c01049e5:	c7 45 f4 00 00 00 00 	movl   $0x0,-0xc(%ebp)
c01049ec:	eb 13                	jmp    c0104a01 <vfs_stat+0x31>
c01049ee:	8b 45 fc             	mov    -0x4(%ebp),%eax
c01049f1:	0f b6 10             	movzbl (%eax),%edx
c01049f4:	8b 45 f8             	mov    -0x8(%ebp),%eax
c01049f7:	88 10                	mov    %dl,(%eax)
c01049f9:	83 45 f8 01          	addl   $0x1,-0x8(%ebp)
c01049fd:	83 45 fc 01          	addl   $0x1,-0x4(%ebp)
c0104a01:	8b 45 f4             	mov    -0xc(%ebp),%eax
c0104a04:	83 f8 43             	cmp    $0x43,%eax
c0104a07:	0f 96 c0             	setbe  %al
c0104a0a:	83 45 f4 01          	addl   $0x1,-0xc(%ebp)
c0104a0e:	84 c0                	test   %al,%al
c0104a10:	75 dc                	jne    c01049ee <vfs_stat+0x1e>
c0104a12:	b8 00 00 00 00       	mov    $0x0,%eax
c0104a17:	c9                   	leave  
c0104a18:	c3                   	ret    

c0104a19 <vfs_access>:
c0104a19:	55                   	push   %ebp
c0104a1a:	89 e5                	mov    %esp,%ebp
c0104a1c:	8b 45 08             	mov    0x8(%ebp),%eax
c0104a1f:	8b 50 18             	mov    0x18(%eax),%edx
c0104a22:	a1 68 10 11 c0       	mov    0xc0111068,%eax
c0104a27:	39 c2                	cmp    %eax,%edx
c0104a29:	75 6b                	jne    c0104a96 <vfs_access+0x7d>
c0104a2b:	8b 45 0c             	mov    0xc(%ebp),%eax
c0104a2e:	83 e0 01             	and    $0x1,%eax
c0104a31:	84 c0                	test   %al,%al
c0104a33:	74 17                	je     c0104a4c <vfs_access+0x33>
c0104a35:	8b 45 08             	mov    0x8(%ebp),%eax
c0104a38:	8b 40 0c             	mov    0xc(%eax),%eax
c0104a3b:	83 e0 05             	and    $0x5,%eax
c0104a3e:	85 c0                	test   %eax,%eax
c0104a40:	75 0a                	jne    c0104a4c <vfs_access+0x33>
c0104a42:	b8 ff ff ff ff       	mov    $0xffffffff,%eax
c0104a47:	e9 1c 01 00 00       	jmp    c0104b68 <vfs_access+0x14f>
c0104a4c:	8b 45 0c             	mov    0xc(%ebp),%eax
c0104a4f:	83 e0 02             	and    $0x2,%eax
c0104a52:	85 c0                	test   %eax,%eax
c0104a54:	74 17                	je     c0104a6d <vfs_access+0x54>
c0104a56:	8b 45 08             	mov    0x8(%ebp),%eax
c0104a59:	8b 40 0c             	mov    0xc(%eax),%eax
c0104a5c:	83 e0 06             	and    $0x6,%eax
c0104a5f:	85 c0                	test   %eax,%eax
c0104a61:	75 0a                	jne    c0104a6d <vfs_access+0x54>
c0104a63:	b8 ff ff ff ff       	mov    $0xffffffff,%eax
c0104a68:	e9 fb 00 00 00       	jmp    c0104b68 <vfs_access+0x14f>
c0104a6d:	8b 45 0c             	mov    0xc(%ebp),%eax
c0104a70:	83 e0 04             	and    $0x4,%eax
c0104a73:	85 c0                	test   %eax,%eax
c0104a75:	0f 84 e8 00 00 00    	je     c0104b63 <vfs_access+0x14a>
c0104a7b:	8b 45 08             	mov    0x8(%ebp),%eax
c0104a7e:	8b 40 0c             	mov    0xc(%eax),%eax
c0104a81:	83 e0 08             	and    $0x8,%eax
c0104a84:	85 c0                	test   %eax,%eax
c0104a86:	0f 85 d7 00 00 00    	jne    c0104b63 <vfs_access+0x14a>
c0104a8c:	b8 ff ff ff ff       	mov    $0xffffffff,%eax
c0104a91:	e9 d2 00 00 00       	jmp    c0104b68 <vfs_access+0x14f>
c0104a96:	8b 45 08             	mov    0x8(%ebp),%eax
c0104a99:	8b 50 1c             	mov    0x1c(%eax),%edx
c0104a9c:	a1 6c 10 11 c0       	mov    0xc011106c,%eax
c0104aa1:	39 c2                	cmp    %eax,%edx
c0104aa3:	75 60                	jne    c0104b05 <vfs_access+0xec>
c0104aa5:	8b 45 0c             	mov    0xc(%ebp),%eax
c0104aa8:	83 e0 01             	and    $0x1,%eax
c0104aab:	84 c0                	test   %al,%al
c0104aad:	74 17                	je     c0104ac6 <vfs_access+0xad>
c0104aaf:	8b 45 08             	mov    0x8(%ebp),%eax
c0104ab2:	8b 40 0c             	mov    0xc(%eax),%eax
c0104ab5:	83 e0 0c             	and    $0xc,%eax
c0104ab8:	85 c0                	test   %eax,%eax
c0104aba:	75 0a                	jne    c0104ac6 <vfs_access+0xad>
c0104abc:	b8 ff ff ff ff       	mov    $0xffffffff,%eax
c0104ac1:	e9 a2 00 00 00       	jmp    c0104b68 <vfs_access+0x14f>
c0104ac6:	8b 45 0c             	mov    0xc(%ebp),%eax
c0104ac9:	83 e0 02             	and    $0x2,%eax
c0104acc:	85 c0                	test   %eax,%eax
c0104ace:	74 17                	je     c0104ae7 <vfs_access+0xce>
c0104ad0:	8b 45 08             	mov    0x8(%ebp),%eax
c0104ad3:	8b 40 0c             	mov    0xc(%eax),%eax
c0104ad6:	83 e0 14             	and    $0x14,%eax
c0104ad9:	85 c0                	test   %eax,%eax
c0104adb:	75 0a                	jne    c0104ae7 <vfs_access+0xce>
c0104add:	b8 ff ff ff ff       	mov    $0xffffffff,%eax
c0104ae2:	e9 81 00 00 00       	jmp    c0104b68 <vfs_access+0x14f>
c0104ae7:	8b 45 0c             	mov    0xc(%ebp),%eax
c0104aea:	83 e0 04             	and    $0x4,%eax
c0104aed:	85 c0                	test   %eax,%eax
c0104aef:	74 72                	je     c0104b63 <vfs_access+0x14a>
c0104af1:	8b 45 08             	mov    0x8(%ebp),%eax
c0104af4:	8b 40 0c             	mov    0xc(%eax),%eax
c0104af7:	83 e0 24             	and    $0x24,%eax
c0104afa:	85 c0                	test   %eax,%eax
c0104afc:	75 65                	jne    c0104b63 <vfs_access+0x14a>
c0104afe:	b8 ff ff ff ff       	mov    $0xffffffff,%eax
c0104b03:	eb 63                	jmp    c0104b68 <vfs_access+0x14f>
c0104b05:	8b 45 0c             	mov    0xc(%ebp),%eax
c0104b08:	83 e0 01             	and    $0x1,%eax
c0104b0b:	84 c0                	test   %al,%al
c0104b0d:	74 14                	je     c0104b23 <vfs_access+0x10a>
c0104b0f:	8b 45 08             	mov    0x8(%ebp),%eax
c0104b12:	8b 40 0c             	mov    0xc(%eax),%eax
c0104b15:	83 e0 44             	and    $0x44,%eax
c0104b18:	85 c0                	test   %eax,%eax
c0104b1a:	75 07                	jne    c0104b23 <vfs_access+0x10a>
c0104b1c:	b8 ff ff ff ff       	mov    $0xffffffff,%eax
c0104b21:	eb 45                	jmp    c0104b68 <vfs_access+0x14f>
c0104b23:	8b 45 0c             	mov    0xc(%ebp),%eax
c0104b26:	83 e0 02             	and    $0x2,%eax
c0104b29:	85 c0                	test   %eax,%eax
c0104b2b:	74 16                	je     c0104b43 <vfs_access+0x12a>
c0104b2d:	8b 45 08             	mov    0x8(%ebp),%eax
c0104b30:	8b 40 0c             	mov    0xc(%eax),%eax
c0104b33:	25 84 00 00 00       	and    $0x84,%eax
c0104b38:	85 c0                	test   %eax,%eax
c0104b3a:	75 07                	jne    c0104b43 <vfs_access+0x12a>
c0104b3c:	b8 ff ff ff ff       	mov    $0xffffffff,%eax
c0104b41:	eb 25                	jmp    c0104b68 <vfs_access+0x14f>
c0104b43:	8b 45 0c             	mov    0xc(%ebp),%eax
c0104b46:	83 e0 04             	and    $0x4,%eax
c0104b49:	85 c0                	test   %eax,%eax
c0104b4b:	74 16                	je     c0104b63 <vfs_access+0x14a>
c0104b4d:	8b 45 08             	mov    0x8(%ebp),%eax
c0104b50:	8b 40 0c             	mov    0xc(%eax),%eax
c0104b53:	25 04 01 00 00       	and    $0x104,%eax
c0104b58:	85 c0                	test   %eax,%eax
c0104b5a:	75 07                	jne    c0104b63 <vfs_access+0x14a>
c0104b5c:	b8 ff ff ff ff       	mov    $0xffffffff,%eax
c0104b61:	eb 05                	jmp    c0104b68 <vfs_access+0x14f>
c0104b63:	b8 00 00 00 00       	mov    $0x0,%eax
c0104b68:	5d                   	pop    %ebp
c0104b69:	c3                   	ret    

c0104b6a <vfs_lookup_path>:
c0104b6a:	55                   	push   %ebp
c0104b6b:	89 e5                	mov    %esp,%ebp
c0104b6d:	57                   	push   %edi
c0104b6e:	83 ec 44             	sub    $0x44,%esp
c0104b71:	a1 60 10 11 c0       	mov    0xc0111060,%eax
c0104b76:	89 45 f4             	mov    %eax,-0xc(%ebp)
c0104b79:	8b 45 08             	mov    0x8(%ebp),%eax
c0104b7c:	0f b6 00             	movzbl (%eax),%eax
c0104b7f:	3c 2f                	cmp    $0x2f,%al
c0104b81:	74 10                	je     c0104b93 <vfs_lookup_path+0x29>
c0104b83:	a1 dc 32 11 c0       	mov    0xc01132dc,%eax
c0104b88:	8b 40 04             	mov    0x4(%eax),%eax
c0104b8b:	8b 40 10             	mov    0x10(%eax),%eax
c0104b8e:	89 45 f4             	mov    %eax,-0xc(%ebp)
c0104b91:	eb 04                	jmp    c0104b97 <vfs_lookup_path+0x2d>
c0104b93:	83 45 08 01          	addl   $0x1,0x8(%ebp)
c0104b97:	8b 45 08             	mov    0x8(%ebp),%eax
c0104b9a:	c7 45 d4 ff ff ff ff 	movl   $0xffffffff,-0x2c(%ebp)
c0104ba1:	89 c2                	mov    %eax,%edx
c0104ba3:	b8 00 00 00 00       	mov    $0x0,%eax
c0104ba8:	8b 4d d4             	mov    -0x2c(%ebp),%ecx
c0104bab:	89 d7                	mov    %edx,%edi
c0104bad:	f2 ae                	repnz scas %es:(%edi),%al
c0104baf:	89 c8                	mov    %ecx,%eax
c0104bb1:	f7 d0                	not    %eax
c0104bb3:	83 e8 01             	sub    $0x1,%eax
c0104bb6:	89 45 e4             	mov    %eax,-0x1c(%ebp)
c0104bb9:	8b 45 e4             	mov    -0x1c(%ebp),%eax
c0104bbc:	83 e8 01             	sub    $0x1,%eax
c0104bbf:	03 45 08             	add    0x8(%ebp),%eax
c0104bc2:	0f b6 00             	movzbl (%eax),%eax
c0104bc5:	3c 2f                	cmp    $0x2f,%al
c0104bc7:	75 0c                	jne    c0104bd5 <vfs_lookup_path+0x6b>
c0104bc9:	8b 45 e4             	mov    -0x1c(%ebp),%eax
c0104bcc:	83 e8 01             	sub    $0x1,%eax
c0104bcf:	03 45 08             	add    0x8(%ebp),%eax
c0104bd2:	c6 00 00             	movb   $0x0,(%eax)
c0104bd5:	66 c7 45 da 2f 00    	movw   $0x2f,-0x26(%ebp)
c0104bdb:	8d 45 da             	lea    -0x26(%ebp),%eax
c0104bde:	89 44 24 04          	mov    %eax,0x4(%esp)
c0104be2:	8b 45 08             	mov    0x8(%ebp),%eax
c0104be5:	89 04 24             	mov    %eax,(%esp)
c0104be8:	e8 bd 4e 00 00       	call   c0109aaa <strtok>
c0104bed:	89 45 f0             	mov    %eax,-0x10(%ebp)
c0104bf0:	e9 98 00 00 00       	jmp    c0104c8d <vfs_lookup_path+0x123>
c0104bf5:	8b 45 f4             	mov    -0xc(%ebp),%eax
c0104bf8:	8b 40 08             	mov    0x8(%eax),%eax
c0104bfb:	c1 e8 03             	shr    $0x3,%eax
c0104bfe:	89 45 e0             	mov    %eax,-0x20(%ebp)
c0104c01:	c7 44 24 04 00 00 00 	movl   $0x0,0x4(%esp)
c0104c08:	00 
c0104c09:	8b 45 f4             	mov    -0xc(%ebp),%eax
c0104c0c:	89 04 24             	mov    %eax,(%esp)
c0104c0f:	e8 ae fd ff ff       	call   c01049c2 <vfs_read>
c0104c14:	89 45 dc             	mov    %eax,-0x24(%ebp)
c0104c17:	c7 45 ec 00 00 00 00 	movl   $0x0,-0x14(%ebp)
c0104c1e:	c7 45 e8 00 00 00 00 	movl   $0x0,-0x18(%ebp)
c0104c25:	eb 3b                	jmp    c0104c62 <vfs_lookup_path+0xf8>
c0104c27:	8b 45 e8             	mov    -0x18(%ebp),%eax
c0104c2a:	c1 e0 03             	shl    $0x3,%eax
c0104c2d:	03 45 dc             	add    -0x24(%ebp),%eax
c0104c30:	8b 40 04             	mov    0x4(%eax),%eax
c0104c33:	8b 00                	mov    (%eax),%eax
c0104c35:	89 44 24 04          	mov    %eax,0x4(%esp)
c0104c39:	8b 45 f0             	mov    -0x10(%ebp),%eax
c0104c3c:	89 04 24             	mov    %eax,(%esp)
c0104c3f:	e8 b8 4c 00 00       	call   c01098fc <strcmp>
c0104c44:	85 c0                	test   %eax,%eax
c0104c46:	74 16                	je     c0104c5e <vfs_lookup_path+0xf4>
c0104c48:	8b 45 e8             	mov    -0x18(%ebp),%eax
c0104c4b:	c1 e0 03             	shl    $0x3,%eax
c0104c4e:	03 45 dc             	add    -0x24(%ebp),%eax
c0104c51:	8b 40 04             	mov    0x4(%eax),%eax
c0104c54:	89 45 f4             	mov    %eax,-0xc(%ebp)
c0104c57:	c7 45 ec 01 00 00 00 	movl   $0x1,-0x14(%ebp)
c0104c5e:	83 45 e8 01          	addl   $0x1,-0x18(%ebp)
c0104c62:	8b 45 e8             	mov    -0x18(%ebp),%eax
c0104c65:	3b 45 e0             	cmp    -0x20(%ebp),%eax
c0104c68:	7c bd                	jl     c0104c27 <vfs_lookup_path+0xbd>
c0104c6a:	83 7d ec 00          	cmpl   $0x0,-0x14(%ebp)
c0104c6e:	75 07                	jne    c0104c77 <vfs_lookup_path+0x10d>
c0104c70:	b8 00 00 00 00       	mov    $0x0,%eax
c0104c75:	eb 23                	jmp    c0104c9a <vfs_lookup_path+0x130>
c0104c77:	8d 45 da             	lea    -0x26(%ebp),%eax
c0104c7a:	89 44 24 04          	mov    %eax,0x4(%esp)
c0104c7e:	c7 04 24 00 00 00 00 	movl   $0x0,(%esp)
c0104c85:	e8 20 4e 00 00       	call   c0109aaa <strtok>
c0104c8a:	89 45 f0             	mov    %eax,-0x10(%ebp)
c0104c8d:	83 7d f0 00          	cmpl   $0x0,-0x10(%ebp)
c0104c91:	0f 85 5e ff ff ff    	jne    c0104bf5 <vfs_lookup_path+0x8b>
c0104c97:	8b 45 f4             	mov    -0xc(%ebp),%eax
c0104c9a:	83 c4 44             	add    $0x44,%esp
c0104c9d:	5f                   	pop    %edi
c0104c9e:	5d                   	pop    %ebp
c0104c9f:	c3                   	ret    

c0104ca0 <get_fd>:
c0104ca0:	55                   	push   %ebp
c0104ca1:	89 e5                	mov    %esp,%ebp
c0104ca3:	83 ec 28             	sub    $0x28,%esp
c0104ca6:	c7 45 ec 00 00 00 00 	movl   $0x0,-0x14(%ebp)
c0104cad:	a1 dc 32 11 c0       	mov    0xc01132dc,%eax
c0104cb2:	8b 40 04             	mov    0x4(%eax),%eax
c0104cb5:	8b 40 14             	mov    0x14(%eax),%eax
c0104cb8:	8b 00                	mov    (%eax),%eax
c0104cba:	8b 00                	mov    (%eax),%eax
c0104cbc:	89 45 f4             	mov    %eax,-0xc(%ebp)
c0104cbf:	c7 45 f0 00 00 00 00 	movl   $0x0,-0x10(%ebp)
c0104cc6:	eb 26                	jmp    c0104cee <get_fd+0x4e>
c0104cc8:	8b 45 f4             	mov    -0xc(%ebp),%eax
c0104ccb:	8b 40 08             	mov    0x8(%eax),%eax
c0104cce:	89 45 ec             	mov    %eax,-0x14(%ebp)
c0104cd1:	8b 45 ec             	mov    -0x14(%ebp),%eax
c0104cd4:	8b 10                	mov    (%eax),%edx
c0104cd6:	8b 45 08             	mov    0x8(%ebp),%eax
c0104cd9:	39 c2                	cmp    %eax,%edx
c0104cdb:	75 05                	jne    c0104ce2 <get_fd+0x42>
c0104cdd:	8b 45 ec             	mov    -0x14(%ebp),%eax
c0104ce0:	eb 29                	jmp    c0104d0b <get_fd+0x6b>
c0104ce2:	8b 45 f4             	mov    -0xc(%ebp),%eax
c0104ce5:	8b 00                	mov    (%eax),%eax
c0104ce7:	89 45 f4             	mov    %eax,-0xc(%ebp)
c0104cea:	83 45 f0 01          	addl   $0x1,-0x10(%ebp)
c0104cee:	a1 dc 32 11 c0       	mov    0xc01132dc,%eax
c0104cf3:	8b 40 04             	mov    0x4(%eax),%eax
c0104cf6:	8b 40 14             	mov    0x14(%eax),%eax
c0104cf9:	89 04 24             	mov    %eax,(%esp)
c0104cfc:	e8 16 5b 00 00       	call   c010a817 <list_length>
c0104d01:	3b 45 f0             	cmp    -0x10(%ebp),%eax
c0104d04:	7f c2                	jg     c0104cc8 <get_fd+0x28>
c0104d06:	b8 00 00 00 00       	mov    $0x0,%eax
c0104d0b:	c9                   	leave  
c0104d0c:	c3                   	ret    

c0104d0d <open>:
c0104d0d:	55                   	push   %ebp
c0104d0e:	89 e5                	mov    %esp,%ebp
c0104d10:	57                   	push   %edi
c0104d11:	83 ec 44             	sub    $0x44,%esp
c0104d14:	8b 45 08             	mov    0x8(%ebp),%eax
c0104d17:	8b 00                	mov    (%eax),%eax
c0104d19:	8b 40 1c             	mov    0x1c(%eax),%eax
c0104d1c:	89 45 f0             	mov    %eax,-0x10(%ebp)
c0104d1f:	8b 45 08             	mov    0x8(%ebp),%eax
c0104d22:	8b 00                	mov    (%eax),%eax
c0104d24:	8b 40 24             	mov    0x24(%eax),%eax
c0104d27:	89 45 ec             	mov    %eax,-0x14(%ebp)
c0104d2a:	8b 45 08             	mov    0x8(%ebp),%eax
c0104d2d:	8b 00                	mov    (%eax),%eax
c0104d2f:	8b 40 20             	mov    0x20(%eax),%eax
c0104d32:	89 45 e8             	mov    %eax,-0x18(%ebp)
c0104d35:	8b 45 f0             	mov    -0x10(%ebp),%eax
c0104d38:	89 04 24             	mov    %eax,(%esp)
c0104d3b:	e8 2a fe ff ff       	call   c0104b6a <vfs_lookup_path>
c0104d40:	89 45 f4             	mov    %eax,-0xc(%ebp)
c0104d43:	83 7d f4 00          	cmpl   $0x0,-0xc(%ebp)
c0104d47:	75 77                	jne    c0104dc0 <open+0xb3>
c0104d49:	8b 45 ec             	mov    -0x14(%ebp),%eax
c0104d4c:	83 e0 20             	and    $0x20,%eax
c0104d4f:	85 c0                	test   %eax,%eax
c0104d51:	74 5c                	je     c0104daf <open+0xa2>
c0104d53:	8b 45 f0             	mov    -0x10(%ebp),%eax
c0104d56:	c7 45 d4 ff ff ff ff 	movl   $0xffffffff,-0x2c(%ebp)
c0104d5d:	89 c2                	mov    %eax,%edx
c0104d5f:	b8 00 00 00 00       	mov    $0x0,%eax
c0104d64:	8b 4d d4             	mov    -0x2c(%ebp),%ecx
c0104d67:	89 d7                	mov    %edx,%edi
c0104d69:	f2 ae                	repnz scas %es:(%edi),%al
c0104d6b:	89 c8                	mov    %ecx,%eax
c0104d6d:	f7 d0                	not    %eax
c0104d6f:	83 e8 01             	sub    $0x1,%eax
c0104d72:	89 04 24             	mov    %eax,(%esp)
c0104d75:	e8 ea 09 00 00       	call   c0105764 <malloc>
c0104d7a:	89 45 e4             	mov    %eax,-0x1c(%ebp)
c0104d7d:	8b 45 f0             	mov    -0x10(%ebp),%eax
c0104d80:	89 44 24 04          	mov    %eax,0x4(%esp)
c0104d84:	8b 45 e4             	mov    -0x1c(%ebp),%eax
c0104d87:	89 04 24             	mov    %eax,(%esp)
c0104d8a:	e8 50 4a 00 00       	call   c01097df <strcpy>
c0104d8f:	a1 60 10 11 c0       	mov    0xc0111060,%eax
c0104d94:	89 44 24 08          	mov    %eax,0x8(%esp)
c0104d98:	8b 45 e8             	mov    -0x18(%ebp),%eax
c0104d9b:	89 44 24 04          	mov    %eax,0x4(%esp)
c0104d9f:	8b 45 e4             	mov    -0x1c(%ebp),%eax
c0104da2:	89 04 24             	mov    %eax,(%esp)
c0104da5:	e8 89 f9 ff ff       	call   c0104733 <vfs_create_inode>
c0104daa:	89 45 f4             	mov    %eax,-0xc(%ebp)
c0104dad:	eb 2c                	jmp    c0104ddb <open+0xce>
c0104daf:	8b 45 08             	mov    0x8(%ebp),%eax
c0104db2:	8b 00                	mov    (%eax),%eax
c0104db4:	c7 40 28 ff ff ff ff 	movl   $0xffffffff,0x28(%eax)
c0104dbb:	e9 ba 00 00 00       	jmp    c0104e7a <open+0x16d>
c0104dc0:	8b 45 ec             	mov    -0x14(%ebp),%eax
c0104dc3:	83 e0 40             	and    $0x40,%eax
c0104dc6:	85 c0                	test   %eax,%eax
c0104dc8:	74 11                	je     c0104ddb <open+0xce>
c0104dca:	8b 45 08             	mov    0x8(%ebp),%eax
c0104dcd:	8b 00                	mov    (%eax),%eax
c0104dcf:	c7 40 28 fe ff ff ff 	movl   $0xfffffffe,0x28(%eax)
c0104dd6:	e9 9f 00 00 00       	jmp    c0104e7a <open+0x16d>
c0104ddb:	8b 45 ec             	mov    -0x14(%ebp),%eax
c0104dde:	83 e0 10             	and    $0x10,%eax
c0104de1:	85 c0                	test   %eax,%eax
c0104de3:	74 20                	je     c0104e05 <open+0xf8>
c0104de5:	8b 45 f4             	mov    -0xc(%ebp),%eax
c0104de8:	8b 50 08             	mov    0x8(%eax),%edx
c0104deb:	8b 45 f4             	mov    -0xc(%ebp),%eax
c0104dee:	8b 40 04             	mov    0x4(%eax),%eax
c0104df1:	89 54 24 08          	mov    %edx,0x8(%esp)
c0104df5:	c7 44 24 04 00 00 00 	movl   $0x0,0x4(%esp)
c0104dfc:	00 
c0104dfd:	89 04 24             	mov    %eax,(%esp)
c0104e00:	e8 5c 4f 00 00       	call   c0109d61 <memset>
c0104e05:	c7 04 24 14 00 00 00 	movl   $0x14,(%esp)
c0104e0c:	e8 53 09 00 00       	call   c0105764 <malloc>
c0104e11:	89 45 e0             	mov    %eax,-0x20(%ebp)
c0104e14:	a1 dc 32 11 c0       	mov    0xc01132dc,%eax
c0104e19:	8b 40 04             	mov    0x4(%eax),%eax
c0104e1c:	8b 40 14             	mov    0x14(%eax),%eax
c0104e1f:	89 04 24             	mov    %eax,(%esp)
c0104e22:	e8 f0 59 00 00       	call   c010a817 <list_length>
c0104e27:	89 c2                	mov    %eax,%edx
c0104e29:	8b 45 e0             	mov    -0x20(%ebp),%eax
c0104e2c:	89 10                	mov    %edx,(%eax)
c0104e2e:	8b 45 e0             	mov    -0x20(%ebp),%eax
c0104e31:	8b 55 e8             	mov    -0x18(%ebp),%edx
c0104e34:	89 50 08             	mov    %edx,0x8(%eax)
c0104e37:	8b 45 e0             	mov    -0x20(%ebp),%eax
c0104e3a:	8b 55 ec             	mov    -0x14(%ebp),%edx
c0104e3d:	89 50 0c             	mov    %edx,0xc(%eax)
c0104e40:	8b 45 e0             	mov    -0x20(%ebp),%eax
c0104e43:	c7 40 10 00 00 00 00 	movl   $0x0,0x10(%eax)
c0104e4a:	8b 45 e0             	mov    -0x20(%ebp),%eax
c0104e4d:	8b 55 f4             	mov    -0xc(%ebp),%edx
c0104e50:	89 50 04             	mov    %edx,0x4(%eax)
c0104e53:	a1 dc 32 11 c0       	mov    0xc01132dc,%eax
c0104e58:	8b 40 04             	mov    0x4(%eax),%eax
c0104e5b:	8b 40 14             	mov    0x14(%eax),%eax
c0104e5e:	8b 55 e0             	mov    -0x20(%ebp),%edx
c0104e61:	89 54 24 04          	mov    %edx,0x4(%esp)
c0104e65:	89 04 24             	mov    %eax,(%esp)
c0104e68:	e8 a9 57 00 00       	call   c010a616 <list_push_back>
c0104e6d:	8b 45 08             	mov    0x8(%ebp),%eax
c0104e70:	8b 00                	mov    (%eax),%eax
c0104e72:	8b 55 e0             	mov    -0x20(%ebp),%edx
c0104e75:	8b 12                	mov    (%edx),%edx
c0104e77:	89 50 28             	mov    %edx,0x28(%eax)
c0104e7a:	83 c4 44             	add    $0x44,%esp
c0104e7d:	5f                   	pop    %edi
c0104e7e:	5d                   	pop    %ebp
c0104e7f:	c3                   	ret    

c0104e80 <pipe>:
c0104e80:	55                   	push   %ebp
c0104e81:	89 e5                	mov    %esp,%ebp
c0104e83:	83 ec 28             	sub    $0x28,%esp
c0104e86:	8b 45 08             	mov    0x8(%ebp),%eax
c0104e89:	8b 00                	mov    (%eax),%eax
c0104e8b:	8b 40 1c             	mov    0x1c(%eax),%eax
c0104e8e:	89 45 f4             	mov    %eax,-0xc(%ebp)
c0104e91:	8b 45 f4             	mov    -0xc(%ebp),%eax
c0104e94:	8b 00                	mov    (%eax),%eax
c0104e96:	89 04 24             	mov    %eax,(%esp)
c0104e99:	e8 02 fe ff ff       	call   c0104ca0 <get_fd>
c0104e9e:	85 c0                	test   %eax,%eax
c0104ea0:	0f 84 00 01 00 00    	je     c0104fa6 <pipe+0x126>
c0104ea6:	8b 45 f4             	mov    -0xc(%ebp),%eax
c0104ea9:	83 c0 04             	add    $0x4,%eax
c0104eac:	8b 00                	mov    (%eax),%eax
c0104eae:	89 04 24             	mov    %eax,(%esp)
c0104eb1:	e8 ea fd ff ff       	call   c0104ca0 <get_fd>
c0104eb6:	85 c0                	test   %eax,%eax
c0104eb8:	0f 84 e8 00 00 00    	je     c0104fa6 <pipe+0x126>
c0104ebe:	c7 44 24 08 00 00 00 	movl   $0x0,0x8(%esp)
c0104ec5:	00 
c0104ec6:	c7 44 24 04 00 00 00 	movl   $0x0,0x4(%esp)
c0104ecd:	00 
c0104ece:	c7 04 24 f9 be 10 c0 	movl   $0xc010bef9,(%esp)
c0104ed5:	e8 59 f8 ff ff       	call   c0104733 <vfs_create_inode>
c0104eda:	89 45 f0             	mov    %eax,-0x10(%ebp)
c0104edd:	c7 04 24 14 00 00 00 	movl   $0x14,(%esp)
c0104ee4:	e8 7b 08 00 00       	call   c0105764 <malloc>
c0104ee9:	89 45 ec             	mov    %eax,-0x14(%ebp)
c0104eec:	8b 45 f4             	mov    -0xc(%ebp),%eax
c0104eef:	8b 00                	mov    (%eax),%eax
c0104ef1:	89 c2                	mov    %eax,%edx
c0104ef3:	8b 45 ec             	mov    -0x14(%ebp),%eax
c0104ef6:	89 10                	mov    %edx,(%eax)
c0104ef8:	8b 45 ec             	mov    -0x14(%ebp),%eax
c0104efb:	c7 40 08 ff 07 00 00 	movl   $0x7ff,0x8(%eax)
c0104f02:	8b 45 ec             	mov    -0x14(%ebp),%eax
c0104f05:	c7 40 0c 01 00 00 00 	movl   $0x1,0xc(%eax)
c0104f0c:	8b 45 ec             	mov    -0x14(%ebp),%eax
c0104f0f:	c7 40 10 00 00 00 00 	movl   $0x0,0x10(%eax)
c0104f16:	8b 45 ec             	mov    -0x14(%ebp),%eax
c0104f19:	8b 55 f0             	mov    -0x10(%ebp),%edx
c0104f1c:	89 50 04             	mov    %edx,0x4(%eax)
c0104f1f:	a1 dc 32 11 c0       	mov    0xc01132dc,%eax
c0104f24:	8b 40 04             	mov    0x4(%eax),%eax
c0104f27:	8b 40 14             	mov    0x14(%eax),%eax
c0104f2a:	8b 55 ec             	mov    -0x14(%ebp),%edx
c0104f2d:	89 54 24 04          	mov    %edx,0x4(%esp)
c0104f31:	89 04 24             	mov    %eax,(%esp)
c0104f34:	e8 dd 56 00 00       	call   c010a616 <list_push_back>
c0104f39:	c7 04 24 14 00 00 00 	movl   $0x14,(%esp)
c0104f40:	e8 1f 08 00 00       	call   c0105764 <malloc>
c0104f45:	89 45 e8             	mov    %eax,-0x18(%ebp)
c0104f48:	8b 45 f4             	mov    -0xc(%ebp),%eax
c0104f4b:	83 c0 04             	add    $0x4,%eax
c0104f4e:	8b 00                	mov    (%eax),%eax
c0104f50:	89 c2                	mov    %eax,%edx
c0104f52:	8b 45 e8             	mov    -0x18(%ebp),%eax
c0104f55:	89 10                	mov    %edx,(%eax)
c0104f57:	8b 45 e8             	mov    -0x18(%ebp),%eax
c0104f5a:	c7 40 08 ff 07 00 00 	movl   $0x7ff,0x8(%eax)
c0104f61:	8b 45 e8             	mov    -0x18(%ebp),%eax
c0104f64:	c7 40 0c 02 00 00 00 	movl   $0x2,0xc(%eax)
c0104f6b:	8b 45 e8             	mov    -0x18(%ebp),%eax
c0104f6e:	c7 40 10 00 00 00 00 	movl   $0x0,0x10(%eax)
c0104f75:	8b 45 e8             	mov    -0x18(%ebp),%eax
c0104f78:	8b 55 f0             	mov    -0x10(%ebp),%edx
c0104f7b:	89 50 04             	mov    %edx,0x4(%eax)
c0104f7e:	a1 dc 32 11 c0       	mov    0xc01132dc,%eax
c0104f83:	8b 40 04             	mov    0x4(%eax),%eax
c0104f86:	8b 40 14             	mov    0x14(%eax),%eax
c0104f89:	8b 55 e8             	mov    -0x18(%ebp),%edx
c0104f8c:	89 54 24 04          	mov    %edx,0x4(%esp)
c0104f90:	89 04 24             	mov    %eax,(%esp)
c0104f93:	e8 7e 56 00 00       	call   c010a616 <list_push_back>
c0104f98:	8b 45 08             	mov    0x8(%ebp),%eax
c0104f9b:	8b 00                	mov    (%eax),%eax
c0104f9d:	c7 40 28 00 00 00 00 	movl   $0x0,0x28(%eax)
c0104fa4:	eb 0c                	jmp    c0104fb2 <pipe+0x132>
c0104fa6:	8b 45 08             	mov    0x8(%ebp),%eax
c0104fa9:	8b 00                	mov    (%eax),%eax
c0104fab:	c7 40 28 ff ff ff ff 	movl   $0xffffffff,0x28(%eax)
c0104fb2:	c9                   	leave  
c0104fb3:	c3                   	ret    

c0104fb4 <close>:
c0104fb4:	55                   	push   %ebp
c0104fb5:	89 e5                	mov    %esp,%ebp
c0104fb7:	83 ec 28             	sub    $0x28,%esp
c0104fba:	8b 45 08             	mov    0x8(%ebp),%eax
c0104fbd:	8b 00                	mov    (%eax),%eax
c0104fbf:	8b 40 1c             	mov    0x1c(%eax),%eax
c0104fc2:	89 45 ec             	mov    %eax,-0x14(%ebp)
c0104fc5:	a1 dc 32 11 c0       	mov    0xc01132dc,%eax
c0104fca:	8b 40 04             	mov    0x4(%eax),%eax
c0104fcd:	8b 40 14             	mov    0x14(%eax),%eax
c0104fd0:	8b 00                	mov    (%eax),%eax
c0104fd2:	8b 00                	mov    (%eax),%eax
c0104fd4:	89 45 f4             	mov    %eax,-0xc(%ebp)
c0104fd7:	c7 45 f0 00 00 00 00 	movl   $0x0,-0x10(%ebp)
c0104fde:	eb 3a                	jmp    c010501a <close+0x66>
c0104fe0:	8b 45 f4             	mov    -0xc(%ebp),%eax
c0104fe3:	8b 40 08             	mov    0x8(%eax),%eax
c0104fe6:	89 45 e8             	mov    %eax,-0x18(%ebp)
c0104fe9:	8b 45 e8             	mov    -0x18(%ebp),%eax
c0104fec:	8b 10                	mov    (%eax),%edx
c0104fee:	8b 45 ec             	mov    -0x14(%ebp),%eax
c0104ff1:	39 c2                	cmp    %eax,%edx
c0104ff3:	75 19                	jne    c010500e <close+0x5a>
c0104ff5:	8b 45 f4             	mov    -0xc(%ebp),%eax
c0104ff8:	89 04 24             	mov    %eax,(%esp)
c0104ffb:	e8 95 57 00 00       	call   c010a795 <list_remove_node>
c0105000:	8b 45 08             	mov    0x8(%ebp),%eax
c0105003:	8b 00                	mov    (%eax),%eax
c0105005:	c7 40 28 00 00 00 00 	movl   $0x0,0x28(%eax)
c010500c:	eb 08                	jmp    c0105016 <close+0x62>
c010500e:	8b 45 f4             	mov    -0xc(%ebp),%eax
c0105011:	8b 00                	mov    (%eax),%eax
c0105013:	89 45 f4             	mov    %eax,-0xc(%ebp)
c0105016:	83 45 f0 01          	addl   $0x1,-0x10(%ebp)
c010501a:	a1 dc 32 11 c0       	mov    0xc01132dc,%eax
c010501f:	8b 40 04             	mov    0x4(%eax),%eax
c0105022:	8b 40 14             	mov    0x14(%eax),%eax
c0105025:	89 04 24             	mov    %eax,(%esp)
c0105028:	e8 ea 57 00 00       	call   c010a817 <list_length>
c010502d:	3b 45 f0             	cmp    -0x10(%ebp),%eax
c0105030:	7f ae                	jg     c0104fe0 <close+0x2c>
c0105032:	8b 45 08             	mov    0x8(%ebp),%eax
c0105035:	8b 00                	mov    (%eax),%eax
c0105037:	c7 40 28 ff ff ff ff 	movl   $0xffffffff,0x28(%eax)
c010503e:	c9                   	leave  
c010503f:	c3                   	ret    

c0105040 <read>:
c0105040:	55                   	push   %ebp
c0105041:	89 e5                	mov    %esp,%ebp
c0105043:	83 ec 38             	sub    $0x38,%esp
c0105046:	8b 45 08             	mov    0x8(%ebp),%eax
c0105049:	8b 00                	mov    (%eax),%eax
c010504b:	8b 40 1c             	mov    0x1c(%eax),%eax
c010504e:	89 45 f4             	mov    %eax,-0xc(%ebp)
c0105051:	8b 45 08             	mov    0x8(%ebp),%eax
c0105054:	8b 00                	mov    (%eax),%eax
c0105056:	8b 40 24             	mov    0x24(%eax),%eax
c0105059:	89 45 f0             	mov    %eax,-0x10(%ebp)
c010505c:	8b 45 08             	mov    0x8(%ebp),%eax
c010505f:	8b 00                	mov    (%eax),%eax
c0105061:	8b 40 20             	mov    0x20(%eax),%eax
c0105064:	89 45 ec             	mov    %eax,-0x14(%ebp)
c0105067:	8b 45 f4             	mov    -0xc(%ebp),%eax
c010506a:	89 04 24             	mov    %eax,(%esp)
c010506d:	e8 2e fc ff ff       	call   c0104ca0 <get_fd>
c0105072:	89 45 e8             	mov    %eax,-0x18(%ebp)
c0105075:	83 7d e8 00          	cmpl   $0x0,-0x18(%ebp)
c0105079:	75 11                	jne    c010508c <read+0x4c>
c010507b:	8b 45 08             	mov    0x8(%ebp),%eax
c010507e:	8b 00                	mov    (%eax),%eax
c0105080:	c7 40 28 ff ff ff ff 	movl   $0xffffffff,0x28(%eax)
c0105087:	e9 92 00 00 00       	jmp    c010511e <read+0xde>
c010508c:	8b 45 e8             	mov    -0x18(%ebp),%eax
c010508f:	8b 40 0c             	mov    0xc(%eax),%eax
c0105092:	83 e0 01             	and    $0x1,%eax
c0105095:	84 c0                	test   %al,%al
c0105097:	75 0d                	jne    c01050a6 <read+0x66>
c0105099:	8b 45 e8             	mov    -0x18(%ebp),%eax
c010509c:	8b 40 0c             	mov    0xc(%eax),%eax
c010509f:	83 e0 04             	and    $0x4,%eax
c01050a2:	85 c0                	test   %eax,%eax
c01050a4:	74 6c                	je     c0105112 <read+0xd2>
c01050a6:	8b 45 e8             	mov    -0x18(%ebp),%eax
c01050a9:	8b 40 04             	mov    0x4(%eax),%eax
c01050ac:	89 45 e4             	mov    %eax,-0x1c(%ebp)
c01050af:	8b 45 e8             	mov    -0x18(%ebp),%eax
c01050b2:	8b 40 10             	mov    0x10(%eax),%eax
c01050b5:	89 44 24 04          	mov    %eax,0x4(%esp)
c01050b9:	8b 45 e4             	mov    -0x1c(%ebp),%eax
c01050bc:	89 04 24             	mov    %eax,(%esp)
c01050bf:	e8 fe f8 ff ff       	call   c01049c2 <vfs_read>
c01050c4:	89 45 e0             	mov    %eax,-0x20(%ebp)
c01050c7:	83 7d e0 00          	cmpl   $0x0,-0x20(%ebp)
c01050cb:	74 37                	je     c0105104 <read+0xc4>
c01050cd:	8b 45 f0             	mov    -0x10(%ebp),%eax
c01050d0:	8b 55 e0             	mov    -0x20(%ebp),%edx
c01050d3:	8b 4d ec             	mov    -0x14(%ebp),%ecx
c01050d6:	89 4c 24 08          	mov    %ecx,0x8(%esp)
c01050da:	89 54 24 04          	mov    %edx,0x4(%esp)
c01050de:	89 04 24             	mov    %eax,(%esp)
c01050e1:	e8 b8 4a 00 00       	call   c0109b9e <memcpy>
c01050e6:	8b 45 e8             	mov    -0x18(%ebp),%eax
c01050e9:	8b 40 10             	mov    0x10(%eax),%eax
c01050ec:	03 45 ec             	add    -0x14(%ebp),%eax
c01050ef:	89 c2                	mov    %eax,%edx
c01050f1:	8b 45 e8             	mov    -0x18(%ebp),%eax
c01050f4:	89 50 10             	mov    %edx,0x10(%eax)
c01050f7:	8b 45 08             	mov    0x8(%ebp),%eax
c01050fa:	8b 00                	mov    (%eax),%eax
c01050fc:	8b 55 ec             	mov    -0x14(%ebp),%edx
c01050ff:	89 50 28             	mov    %edx,0x28(%eax)
c0105102:	eb 1a                	jmp    c010511e <read+0xde>
c0105104:	8b 45 08             	mov    0x8(%ebp),%eax
c0105107:	8b 00                	mov    (%eax),%eax
c0105109:	c7 40 28 fe ff ff ff 	movl   $0xfffffffe,0x28(%eax)
c0105110:	eb 0c                	jmp    c010511e <read+0xde>
c0105112:	8b 45 08             	mov    0x8(%ebp),%eax
c0105115:	8b 00                	mov    (%eax),%eax
c0105117:	c7 40 28 fd ff ff ff 	movl   $0xfffffffd,0x28(%eax)
c010511e:	c9                   	leave  
c010511f:	c3                   	ret    

c0105120 <write>:
c0105120:	55                   	push   %ebp
c0105121:	89 e5                	mov    %esp,%ebp
c0105123:	83 ec 38             	sub    $0x38,%esp
c0105126:	8b 45 08             	mov    0x8(%ebp),%eax
c0105129:	8b 00                	mov    (%eax),%eax
c010512b:	8b 40 1c             	mov    0x1c(%eax),%eax
c010512e:	89 45 f0             	mov    %eax,-0x10(%ebp)
c0105131:	8b 45 08             	mov    0x8(%ebp),%eax
c0105134:	8b 00                	mov    (%eax),%eax
c0105136:	8b 40 24             	mov    0x24(%eax),%eax
c0105139:	89 45 ec             	mov    %eax,-0x14(%ebp)
c010513c:	8b 45 08             	mov    0x8(%ebp),%eax
c010513f:	8b 00                	mov    (%eax),%eax
c0105141:	8b 40 20             	mov    0x20(%eax),%eax
c0105144:	89 45 e8             	mov    %eax,-0x18(%ebp)
c0105147:	83 7d f0 02          	cmpl   $0x2,-0x10(%ebp)
c010514b:	7f 3a                	jg     c0105187 <write+0x67>
c010514d:	c7 45 f4 00 00 00 00 	movl   $0x0,-0xc(%ebp)
c0105154:	eb 18                	jmp    c010516e <write+0x4e>
c0105156:	8b 45 f4             	mov    -0xc(%ebp),%eax
c0105159:	03 45 ec             	add    -0x14(%ebp),%eax
c010515c:	0f b6 00             	movzbl (%eax),%eax
c010515f:	0f be c0             	movsbl %al,%eax
c0105162:	89 04 24             	mov    %eax,(%esp)
c0105165:	e8 9e 0b 00 00       	call   c0105d08 <putchar>
c010516a:	83 45 f4 01          	addl   $0x1,-0xc(%ebp)
c010516e:	8b 45 f4             	mov    -0xc(%ebp),%eax
c0105171:	3b 45 e8             	cmp    -0x18(%ebp),%eax
c0105174:	72 e0                	jb     c0105156 <write+0x36>
c0105176:	8b 45 08             	mov    0x8(%ebp),%eax
c0105179:	8b 00                	mov    (%eax),%eax
c010517b:	c7 40 28 00 00 00 00 	movl   $0x0,0x28(%eax)
c0105182:	e9 c9 00 00 00       	jmp    c0105250 <write+0x130>
c0105187:	8b 45 f0             	mov    -0x10(%ebp),%eax
c010518a:	89 04 24             	mov    %eax,(%esp)
c010518d:	e8 0e fb ff ff       	call   c0104ca0 <get_fd>
c0105192:	89 45 e4             	mov    %eax,-0x1c(%ebp)
c0105195:	83 7d e4 00          	cmpl   $0x0,-0x1c(%ebp)
c0105199:	75 11                	jne    c01051ac <write+0x8c>
c010519b:	8b 45 08             	mov    0x8(%ebp),%eax
c010519e:	8b 00                	mov    (%eax),%eax
c01051a0:	c7 40 28 ff ff ff ff 	movl   $0xffffffff,0x28(%eax)
c01051a7:	e9 a4 00 00 00       	jmp    c0105250 <write+0x130>
c01051ac:	8b 45 e4             	mov    -0x1c(%ebp),%eax
c01051af:	8b 40 0c             	mov    0xc(%eax),%eax
c01051b2:	83 e0 02             	and    $0x2,%eax
c01051b5:	85 c0                	test   %eax,%eax
c01051b7:	75 0d                	jne    c01051c6 <write+0xa6>
c01051b9:	8b 45 e4             	mov    -0x1c(%ebp),%eax
c01051bc:	8b 40 0c             	mov    0xc(%eax),%eax
c01051bf:	83 e0 04             	and    $0x4,%eax
c01051c2:	85 c0                	test   %eax,%eax
c01051c4:	74 7b                	je     c0105241 <write+0x121>
c01051c6:	8b 45 e4             	mov    -0x1c(%ebp),%eax
c01051c9:	8b 40 0c             	mov    0xc(%eax),%eax
c01051cc:	83 e0 08             	and    $0x8,%eax
c01051cf:	85 c0                	test   %eax,%eax
c01051d1:	75 1b                	jne    c01051ee <write+0xce>
c01051d3:	8b 45 e4             	mov    -0x1c(%ebp),%eax
c01051d6:	c7 40 10 00 00 00 00 	movl   $0x0,0x10(%eax)
c01051dd:	8b 45 e4             	mov    -0x1c(%ebp),%eax
c01051e0:	8b 40 0c             	mov    0xc(%eax),%eax
c01051e3:	89 c2                	mov    %eax,%edx
c01051e5:	83 ca 08             	or     $0x8,%edx
c01051e8:	8b 45 e4             	mov    -0x1c(%ebp),%eax
c01051eb:	89 50 0c             	mov    %edx,0xc(%eax)
c01051ee:	8b 45 e4             	mov    -0x1c(%ebp),%eax
c01051f1:	8b 40 04             	mov    0x4(%eax),%eax
c01051f4:	89 45 e0             	mov    %eax,-0x20(%ebp)
c01051f7:	8b 55 e8             	mov    -0x18(%ebp),%edx
c01051fa:	8b 45 e4             	mov    -0x1c(%ebp),%eax
c01051fd:	8b 40 10             	mov    0x10(%eax),%eax
c0105200:	89 54 24 0c          	mov    %edx,0xc(%esp)
c0105204:	8b 55 ec             	mov    -0x14(%ebp),%edx
c0105207:	89 54 24 08          	mov    %edx,0x8(%esp)
c010520b:	89 44 24 04          	mov    %eax,0x4(%esp)
c010520f:	8b 45 e0             	mov    -0x20(%ebp),%eax
c0105212:	89 04 24             	mov    %eax,(%esp)
c0105215:	e8 36 f6 ff ff       	call   c0104850 <vfs_write>
c010521a:	89 45 dc             	mov    %eax,-0x24(%ebp)
c010521d:	8b 45 08             	mov    0x8(%ebp),%eax
c0105220:	8b 00                	mov    (%eax),%eax
c0105222:	8b 55 dc             	mov    -0x24(%ebp),%edx
c0105225:	89 50 28             	mov    %edx,0x28(%eax)
c0105228:	83 7d dc 00          	cmpl   $0x0,-0x24(%ebp)
c010522c:	7e 21                	jle    c010524f <write+0x12f>
c010522e:	8b 45 e4             	mov    -0x1c(%ebp),%eax
c0105231:	8b 40 10             	mov    0x10(%eax),%eax
c0105234:	03 45 e8             	add    -0x18(%ebp),%eax
c0105237:	89 c2                	mov    %eax,%edx
c0105239:	8b 45 e4             	mov    -0x1c(%ebp),%eax
c010523c:	89 50 10             	mov    %edx,0x10(%eax)
c010523f:	eb 0e                	jmp    c010524f <write+0x12f>
c0105241:	8b 45 08             	mov    0x8(%ebp),%eax
c0105244:	8b 00                	mov    (%eax),%eax
c0105246:	c7 40 28 fd ff ff ff 	movl   $0xfffffffd,0x28(%eax)
c010524d:	eb 01                	jmp    c0105250 <write+0x130>
c010524f:	90                   	nop
c0105250:	c9                   	leave  
c0105251:	c3                   	ret    
	...

c0105254 <printf>:
c0105254:	55                   	push   %ebp
c0105255:	89 e5                	mov    %esp,%ebp
c0105257:	57                   	push   %edi
c0105258:	53                   	push   %ebx
c0105259:	81 ec 20 04 00 00    	sub    $0x420,%esp
c010525f:	8d 85 f4 fb ff ff    	lea    -0x40c(%ebp),%eax
c0105265:	89 c3                	mov    %eax,%ebx
c0105267:	b8 00 00 00 00       	mov    $0x0,%eax
c010526c:	ba 00 01 00 00       	mov    $0x100,%edx
c0105271:	89 df                	mov    %ebx,%edi
c0105273:	89 d1                	mov    %edx,%ecx
c0105275:	f3 ab                	rep stos %eax,%es:(%edi)
c0105277:	8d 55 0c             	lea    0xc(%ebp),%edx
c010527a:	8d 85 f0 fb ff ff    	lea    -0x410(%ebp),%eax
c0105280:	89 10                	mov    %edx,(%eax)
c0105282:	8b 85 f0 fb ff ff    	mov    -0x410(%ebp),%eax
c0105288:	89 44 24 08          	mov    %eax,0x8(%esp)
c010528c:	8b 45 08             	mov    0x8(%ebp),%eax
c010528f:	89 44 24 04          	mov    %eax,0x4(%esp)
c0105293:	8d 85 f4 fb ff ff    	lea    -0x40c(%ebp),%eax
c0105299:	89 04 24             	mov    %eax,(%esp)
c010529c:	e8 55 00 00 00       	call   c01052f6 <vsprintf>
c01052a1:	89 45 f4             	mov    %eax,-0xc(%ebp)
c01052a4:	c7 44 24 04 01 00 00 	movl   $0x1,0x4(%esp)
c01052ab:	00 
c01052ac:	8d 85 f4 fb ff ff    	lea    -0x40c(%ebp),%eax
c01052b2:	89 04 24             	mov    %eax,(%esp)
c01052b5:	e8 f0 0b 00 00       	call   c0105eaa <fputs>
c01052ba:	8b 45 f4             	mov    -0xc(%ebp),%eax
c01052bd:	81 c4 20 04 00 00    	add    $0x420,%esp
c01052c3:	5b                   	pop    %ebx
c01052c4:	5f                   	pop    %edi
c01052c5:	5d                   	pop    %ebp
c01052c6:	c3                   	ret    

c01052c7 <sprintf>:
c01052c7:	55                   	push   %ebp
c01052c8:	89 e5                	mov    %esp,%ebp
c01052ca:	83 ec 28             	sub    $0x28,%esp
c01052cd:	8d 55 10             	lea    0x10(%ebp),%edx
c01052d0:	8d 45 f0             	lea    -0x10(%ebp),%eax
c01052d3:	89 10                	mov    %edx,(%eax)
c01052d5:	8b 45 f0             	mov    -0x10(%ebp),%eax
c01052d8:	89 44 24 08          	mov    %eax,0x8(%esp)
c01052dc:	8b 45 0c             	mov    0xc(%ebp),%eax
c01052df:	89 44 24 04          	mov    %eax,0x4(%esp)
c01052e3:	8b 45 08             	mov    0x8(%ebp),%eax
c01052e6:	89 04 24             	mov    %eax,(%esp)
c01052e9:	e8 08 00 00 00       	call   c01052f6 <vsprintf>
c01052ee:	89 45 f4             	mov    %eax,-0xc(%ebp)
c01052f1:	8b 45 f4             	mov    -0xc(%ebp),%eax
c01052f4:	c9                   	leave  
c01052f5:	c3                   	ret    

c01052f6 <vsprintf>:
c01052f6:	55                   	push   %ebp
c01052f7:	89 e5                	mov    %esp,%ebp
c01052f9:	83 ec 58             	sub    $0x58,%esp
c01052fc:	8b 45 08             	mov    0x8(%ebp),%eax
c01052ff:	89 45 f4             	mov    %eax,-0xc(%ebp)
c0105302:	e9 25 04 00 00       	jmp    c010572c <vsprintf+0x436>
c0105307:	8b 45 0c             	mov    0xc(%ebp),%eax
c010530a:	0f b6 00             	movzbl (%eax),%eax
c010530d:	3c 25                	cmp    $0x25,%al
c010530f:	74 14                	je     c0105325 <vsprintf+0x2f>
c0105311:	8b 45 0c             	mov    0xc(%ebp),%eax
c0105314:	0f b6 10             	movzbl (%eax),%edx
c0105317:	8b 45 08             	mov    0x8(%ebp),%eax
c010531a:	88 10                	mov    %dl,(%eax)
c010531c:	83 45 08 01          	addl   $0x1,0x8(%ebp)
c0105320:	e9 03 04 00 00       	jmp    c0105728 <vsprintf+0x432>
c0105325:	c7 45 e4 00 00 00 00 	movl   $0x0,-0x1c(%ebp)
c010532c:	83 45 0c 01          	addl   $0x1,0xc(%ebp)
c0105330:	8b 45 0c             	mov    0xc(%ebp),%eax
c0105333:	0f b6 00             	movzbl (%eax),%eax
c0105336:	0f be c0             	movsbl %al,%eax
c0105339:	83 e8 20             	sub    $0x20,%eax
c010533c:	83 f8 10             	cmp    $0x10,%eax
c010533f:	77 27                	ja     c0105368 <vsprintf+0x72>
c0105341:	8b 04 85 04 bf 10 c0 	mov    -0x3fef40fc(,%eax,4),%eax
c0105348:	ff e0                	jmp    *%eax
c010534a:	83 4d e4 01          	orl    $0x1,-0x1c(%ebp)
c010534e:	eb dc                	jmp    c010532c <vsprintf+0x36>
c0105350:	83 4d e4 04          	orl    $0x4,-0x1c(%ebp)
c0105354:	eb d6                	jmp    c010532c <vsprintf+0x36>
c0105356:	83 4d e4 08          	orl    $0x8,-0x1c(%ebp)
c010535a:	eb d0                	jmp    c010532c <vsprintf+0x36>
c010535c:	83 4d e4 10          	orl    $0x10,-0x1c(%ebp)
c0105360:	eb ca                	jmp    c010532c <vsprintf+0x36>
c0105362:	83 4d e4 40          	orl    $0x40,-0x1c(%ebp)
c0105366:	eb c4                	jmp    c010532c <vsprintf+0x36>
c0105368:	c7 45 e0 01 00 00 00 	movl   $0x1,-0x20(%ebp)
c010536f:	8b 45 0c             	mov    0xc(%ebp),%eax
c0105372:	0f b6 00             	movzbl (%eax),%eax
c0105375:	0f be c0             	movsbl %al,%eax
c0105378:	83 e8 30             	sub    $0x30,%eax
c010537b:	83 f8 09             	cmp    $0x9,%eax
c010537e:	77 25                	ja     c01053a5 <vsprintf+0xaf>
c0105380:	8b 45 0c             	mov    0xc(%ebp),%eax
c0105383:	89 04 24             	mov    %eax,(%esp)
c0105386:	e8 76 f2 ff ff       	call   c0104601 <atoi>
c010538b:	89 45 e0             	mov    %eax,-0x20(%ebp)
c010538e:	83 45 0c 01          	addl   $0x1,0xc(%ebp)
c0105392:	8b 45 0c             	mov    0xc(%ebp),%eax
c0105395:	0f b6 00             	movzbl (%eax),%eax
c0105398:	0f be c0             	movsbl %al,%eax
c010539b:	83 e8 30             	sub    $0x30,%eax
c010539e:	83 f8 09             	cmp    $0x9,%eax
c01053a1:	76 eb                	jbe    c010538e <vsprintf+0x98>
c01053a3:	eb 29                	jmp    c01053ce <vsprintf+0xd8>
c01053a5:	8b 45 0c             	mov    0xc(%ebp),%eax
c01053a8:	0f b6 00             	movzbl (%eax),%eax
c01053ab:	3c 2a                	cmp    $0x2a,%al
c01053ad:	75 1f                	jne    c01053ce <vsprintf+0xd8>
c01053af:	83 45 0c 01          	addl   $0x1,0xc(%ebp)
c01053b3:	8b 45 10             	mov    0x10(%ebp),%eax
c01053b6:	8d 50 04             	lea    0x4(%eax),%edx
c01053b9:	89 55 10             	mov    %edx,0x10(%ebp)
c01053bc:	8b 00                	mov    (%eax),%eax
c01053be:	89 45 e0             	mov    %eax,-0x20(%ebp)
c01053c1:	83 7d e0 00          	cmpl   $0x0,-0x20(%ebp)
c01053c5:	79 07                	jns    c01053ce <vsprintf+0xd8>
c01053c7:	f7 5d e0             	negl   -0x20(%ebp)
c01053ca:	83 4d e4 10          	orl    $0x10,-0x1c(%ebp)
c01053ce:	c7 45 dc ff ff ff ff 	movl   $0xffffffff,-0x24(%ebp)
c01053d5:	8b 45 0c             	mov    0xc(%ebp),%eax
c01053d8:	0f b6 00             	movzbl (%eax),%eax
c01053db:	3c 2e                	cmp    $0x2e,%al
c01053dd:	75 63                	jne    c0105442 <vsprintf+0x14c>
c01053df:	83 45 0c 01          	addl   $0x1,0xc(%ebp)
c01053e3:	8b 45 0c             	mov    0xc(%ebp),%eax
c01053e6:	0f b6 00             	movzbl (%eax),%eax
c01053e9:	0f be c0             	movsbl %al,%eax
c01053ec:	83 e8 30             	sub    $0x30,%eax
c01053ef:	83 f8 09             	cmp    $0x9,%eax
c01053f2:	77 25                	ja     c0105419 <vsprintf+0x123>
c01053f4:	8b 45 0c             	mov    0xc(%ebp),%eax
c01053f7:	89 04 24             	mov    %eax,(%esp)
c01053fa:	e8 02 f2 ff ff       	call   c0104601 <atoi>
c01053ff:	89 45 dc             	mov    %eax,-0x24(%ebp)
c0105402:	83 45 0c 01          	addl   $0x1,0xc(%ebp)
c0105406:	8b 45 0c             	mov    0xc(%ebp),%eax
c0105409:	0f b6 00             	movzbl (%eax),%eax
c010540c:	0f be c0             	movsbl %al,%eax
c010540f:	83 e8 30             	sub    $0x30,%eax
c0105412:	83 f8 09             	cmp    $0x9,%eax
c0105415:	76 eb                	jbe    c0105402 <vsprintf+0x10c>
c0105417:	eb 1c                	jmp    c0105435 <vsprintf+0x13f>
c0105419:	8b 45 0c             	mov    0xc(%ebp),%eax
c010541c:	0f b6 00             	movzbl (%eax),%eax
c010541f:	3c 2a                	cmp    $0x2a,%al
c0105421:	75 12                	jne    c0105435 <vsprintf+0x13f>
c0105423:	83 45 0c 01          	addl   $0x1,0xc(%ebp)
c0105427:	8b 45 10             	mov    0x10(%ebp),%eax
c010542a:	8d 50 04             	lea    0x4(%eax),%edx
c010542d:	89 55 10             	mov    %edx,0x10(%ebp)
c0105430:	8b 00                	mov    (%eax),%eax
c0105432:	89 45 dc             	mov    %eax,-0x24(%ebp)
c0105435:	83 7d dc 00          	cmpl   $0x0,-0x24(%ebp)
c0105439:	79 07                	jns    c0105442 <vsprintf+0x14c>
c010543b:	c7 45 dc 00 00 00 00 	movl   $0x0,-0x24(%ebp)
c0105442:	c7 45 d8 ff ff ff ff 	movl   $0xffffffff,-0x28(%ebp)
c0105449:	8b 45 0c             	mov    0xc(%ebp),%eax
c010544c:	0f b6 00             	movzbl (%eax),%eax
c010544f:	0f be c0             	movsbl %al,%eax
c0105452:	89 44 24 04          	mov    %eax,0x4(%esp)
c0105456:	c7 04 24 00 bf 10 c0 	movl   $0xc010bf00,(%esp)
c010545d:	e8 b7 45 00 00       	call   c0109a19 <strchr>
c0105462:	85 c0                	test   %eax,%eax
c0105464:	74 10                	je     c0105476 <vsprintf+0x180>
c0105466:	8b 45 0c             	mov    0xc(%ebp),%eax
c0105469:	0f b6 00             	movzbl (%eax),%eax
c010546c:	0f be c0             	movsbl %al,%eax
c010546f:	89 45 d8             	mov    %eax,-0x28(%ebp)
c0105472:	83 45 0c 01          	addl   $0x1,0xc(%ebp)
c0105476:	c7 45 d4 0a 00 00 00 	movl   $0xa,-0x2c(%ebp)
c010547d:	8b 45 0c             	mov    0xc(%ebp),%eax
c0105480:	0f b6 00             	movzbl (%eax),%eax
c0105483:	0f be c0             	movsbl %al,%eax
c0105486:	83 e8 25             	sub    $0x25,%eax
c0105489:	83 f8 53             	cmp    $0x53,%eax
c010548c:	0f 87 c7 01 00 00    	ja     c0105659 <vsprintf+0x363>
c0105492:	8b 04 85 48 bf 10 c0 	mov    -0x3fef40b8(,%eax,4),%eax
c0105499:	ff e0                	jmp    *%eax
c010549b:	c7 45 d0 01 00 00 00 	movl   $0x1,-0x30(%ebp)
c01054a2:	8b 45 e4             	mov    -0x1c(%ebp),%eax
c01054a5:	83 e0 10             	and    $0x10,%eax
c01054a8:	85 c0                	test   %eax,%eax
c01054aa:	75 1d                	jne    c01054c9 <vsprintf+0x1d3>
c01054ac:	eb 0a                	jmp    c01054b8 <vsprintf+0x1c2>
c01054ae:	8b 45 08             	mov    0x8(%ebp),%eax
c01054b1:	c6 00 20             	movb   $0x20,(%eax)
c01054b4:	83 45 08 01          	addl   $0x1,0x8(%ebp)
c01054b8:	8b 45 e0             	mov    -0x20(%ebp),%eax
c01054bb:	3b 45 d0             	cmp    -0x30(%ebp),%eax
c01054be:	0f 9f c0             	setg   %al
c01054c1:	83 6d e0 01          	subl   $0x1,-0x20(%ebp)
c01054c5:	84 c0                	test   %al,%al
c01054c7:	75 e5                	jne    c01054ae <vsprintf+0x1b8>
c01054c9:	8b 45 10             	mov    0x10(%ebp),%eax
c01054cc:	8d 50 04             	lea    0x4(%eax),%edx
c01054cf:	89 55 10             	mov    %edx,0x10(%ebp)
c01054d2:	8b 00                	mov    (%eax),%eax
c01054d4:	89 c2                	mov    %eax,%edx
c01054d6:	8b 45 08             	mov    0x8(%ebp),%eax
c01054d9:	88 10                	mov    %dl,(%eax)
c01054db:	83 45 08 01          	addl   $0x1,0x8(%ebp)
c01054df:	eb 0a                	jmp    c01054eb <vsprintf+0x1f5>
c01054e1:	8b 45 08             	mov    0x8(%ebp),%eax
c01054e4:	c6 00 20             	movb   $0x20,(%eax)
c01054e7:	83 45 08 01          	addl   $0x1,0x8(%ebp)
c01054eb:	8b 45 e0             	mov    -0x20(%ebp),%eax
c01054ee:	3b 45 d0             	cmp    -0x30(%ebp),%eax
c01054f1:	0f 9f c0             	setg   %al
c01054f4:	83 6d e0 01          	subl   $0x1,-0x20(%ebp)
c01054f8:	84 c0                	test   %al,%al
c01054fa:	75 e5                	jne    c01054e1 <vsprintf+0x1eb>
c01054fc:	e9 27 02 00 00       	jmp    c0105728 <vsprintf+0x432>
c0105501:	8b 45 10             	mov    0x10(%ebp),%eax
c0105504:	8d 50 04             	lea    0x4(%eax),%edx
c0105507:	89 55 10             	mov    %edx,0x10(%ebp)
c010550a:	8b 00                	mov    (%eax),%eax
c010550c:	89 45 f0             	mov    %eax,-0x10(%ebp)
c010550f:	8b 45 dc             	mov    -0x24(%ebp),%eax
c0105512:	89 44 24 04          	mov    %eax,0x4(%esp)
c0105516:	8b 45 f0             	mov    -0x10(%ebp),%eax
c0105519:	89 04 24             	mov    %eax,(%esp)
c010551c:	e8 63 42 00 00       	call   c0109784 <strnlen>
c0105521:	89 45 d0             	mov    %eax,-0x30(%ebp)
c0105524:	8b 45 e4             	mov    -0x1c(%ebp),%eax
c0105527:	83 e0 10             	and    $0x10,%eax
c010552a:	85 c0                	test   %eax,%eax
c010552c:	75 1d                	jne    c010554b <vsprintf+0x255>
c010552e:	eb 0a                	jmp    c010553a <vsprintf+0x244>
c0105530:	8b 45 08             	mov    0x8(%ebp),%eax
c0105533:	c6 00 20             	movb   $0x20,(%eax)
c0105536:	83 45 08 01          	addl   $0x1,0x8(%ebp)
c010553a:	8b 45 e0             	mov    -0x20(%ebp),%eax
c010553d:	3b 45 d0             	cmp    -0x30(%ebp),%eax
c0105540:	0f 9f c0             	setg   %al
c0105543:	83 6d e0 01          	subl   $0x1,-0x20(%ebp)
c0105547:	84 c0                	test   %al,%al
c0105549:	75 e5                	jne    c0105530 <vsprintf+0x23a>
c010554b:	c7 45 ec 00 00 00 00 	movl   $0x0,-0x14(%ebp)
c0105552:	eb 17                	jmp    c010556b <vsprintf+0x275>
c0105554:	8b 45 f0             	mov    -0x10(%ebp),%eax
c0105557:	0f b6 10             	movzbl (%eax),%edx
c010555a:	8b 45 08             	mov    0x8(%ebp),%eax
c010555d:	88 10                	mov    %dl,(%eax)
c010555f:	83 45 08 01          	addl   $0x1,0x8(%ebp)
c0105563:	83 45 f0 01          	addl   $0x1,-0x10(%ebp)
c0105567:	83 45 ec 01          	addl   $0x1,-0x14(%ebp)
c010556b:	8b 45 ec             	mov    -0x14(%ebp),%eax
c010556e:	3b 45 d0             	cmp    -0x30(%ebp),%eax
c0105571:	7c e1                	jl     c0105554 <vsprintf+0x25e>
c0105573:	eb 0a                	jmp    c010557f <vsprintf+0x289>
c0105575:	8b 45 08             	mov    0x8(%ebp),%eax
c0105578:	c6 00 20             	movb   $0x20,(%eax)
c010557b:	83 45 08 01          	addl   $0x1,0x8(%ebp)
c010557f:	8b 45 e0             	mov    -0x20(%ebp),%eax
c0105582:	3b 45 d0             	cmp    -0x30(%ebp),%eax
c0105585:	0f 9f c0             	setg   %al
c0105588:	83 6d e0 01          	subl   $0x1,-0x20(%ebp)
c010558c:	84 c0                	test   %al,%al
c010558e:	75 e5                	jne    c0105575 <vsprintf+0x27f>
c0105590:	e9 93 01 00 00       	jmp    c0105728 <vsprintf+0x432>
c0105595:	83 7d e0 ff          	cmpl   $0xffffffff,-0x20(%ebp)
c0105599:	75 0b                	jne    c01055a6 <vsprintf+0x2b0>
c010559b:	c7 45 e0 08 00 00 00 	movl   $0x8,-0x20(%ebp)
c01055a2:	83 4d e4 01          	orl    $0x1,-0x1c(%ebp)
c01055a6:	83 4d e4 40          	orl    $0x40,-0x1c(%ebp)
c01055aa:	8b 45 10             	mov    0x10(%ebp),%eax
c01055ad:	8d 50 04             	lea    0x4(%eax),%edx
c01055b0:	89 55 10             	mov    %edx,0x10(%ebp)
c01055b3:	8b 00                	mov    (%eax),%eax
c01055b5:	8b 55 e0             	mov    -0x20(%ebp),%edx
c01055b8:	89 54 24 10          	mov    %edx,0x10(%esp)
c01055bc:	8b 55 e4             	mov    -0x1c(%ebp),%edx
c01055bf:	89 54 24 0c          	mov    %edx,0xc(%esp)
c01055c3:	c7 44 24 08 10 00 00 	movl   $0x10,0x8(%esp)
c01055ca:	00 
c01055cb:	8b 55 08             	mov    0x8(%ebp),%edx
c01055ce:	89 54 24 04          	mov    %edx,0x4(%esp)
c01055d2:	89 04 24             	mov    %eax,(%esp)
c01055d5:	e8 6e ee ff ff       	call   c0104448 <itoa_ex>
c01055da:	83 45 08 01          	addl   $0x1,0x8(%ebp)
c01055de:	8b 45 08             	mov    0x8(%ebp),%eax
c01055e1:	0f b6 00             	movzbl (%eax),%eax
c01055e4:	84 c0                	test   %al,%al
c01055e6:	75 f2                	jne    c01055da <vsprintf+0x2e4>
c01055e8:	e9 3b 01 00 00       	jmp    c0105728 <vsprintf+0x432>
c01055ed:	83 7d d8 6c          	cmpl   $0x6c,-0x28(%ebp)
c01055f1:	75 20                	jne    c0105613 <vsprintf+0x31d>
c01055f3:	8b 45 10             	mov    0x10(%ebp),%eax
c01055f6:	8d 50 04             	lea    0x4(%eax),%edx
c01055f9:	89 55 10             	mov    %edx,0x10(%ebp)
c01055fc:	8b 00                	mov    (%eax),%eax
c01055fe:	89 45 cc             	mov    %eax,-0x34(%ebp)
c0105601:	8b 55 08             	mov    0x8(%ebp),%edx
c0105604:	8b 45 f4             	mov    -0xc(%ebp),%eax
c0105607:	29 c2                	sub    %eax,%edx
c0105609:	8b 45 cc             	mov    -0x34(%ebp),%eax
c010560c:	89 10                	mov    %edx,(%eax)
c010560e:	e9 15 01 00 00       	jmp    c0105728 <vsprintf+0x432>
c0105613:	8b 45 10             	mov    0x10(%ebp),%eax
c0105616:	8d 50 04             	lea    0x4(%eax),%edx
c0105619:	89 55 10             	mov    %edx,0x10(%ebp)
c010561c:	8b 00                	mov    (%eax),%eax
c010561e:	89 45 c8             	mov    %eax,-0x38(%ebp)
c0105621:	8b 55 08             	mov    0x8(%ebp),%edx
c0105624:	8b 45 f4             	mov    -0xc(%ebp),%eax
c0105627:	29 c2                	sub    %eax,%edx
c0105629:	8b 45 c8             	mov    -0x38(%ebp),%eax
c010562c:	89 10                	mov    %edx,(%eax)
c010562e:	e9 f5 00 00 00       	jmp    c0105728 <vsprintf+0x432>
c0105633:	8b 45 08             	mov    0x8(%ebp),%eax
c0105636:	c6 00 25             	movb   $0x25,(%eax)
c0105639:	83 45 08 01          	addl   $0x1,0x8(%ebp)
c010563d:	c7 45 d4 08 00 00 00 	movl   $0x8,-0x2c(%ebp)
c0105644:	eb 45                	jmp    c010568b <vsprintf+0x395>
c0105646:	83 4d e4 02          	orl    $0x2,-0x1c(%ebp)
c010564a:	eb 3e                	jmp    c010568a <vsprintf+0x394>
c010564c:	83 4d e4 20          	orl    $0x20,-0x1c(%ebp)
c0105650:	c7 45 d4 10 00 00 00 	movl   $0x10,-0x2c(%ebp)
c0105657:	eb 32                	jmp    c010568b <vsprintf+0x395>
c0105659:	8b 45 f4             	mov    -0xc(%ebp),%eax
c010565c:	c6 00 25             	movb   $0x25,(%eax)
c010565f:	83 45 f4 01          	addl   $0x1,-0xc(%ebp)
c0105663:	8b 45 0c             	mov    0xc(%ebp),%eax
c0105666:	0f b6 00             	movzbl (%eax),%eax
c0105669:	84 c0                	test   %al,%al
c010566b:	74 14                	je     c0105681 <vsprintf+0x38b>
c010566d:	8b 45 0c             	mov    0xc(%ebp),%eax
c0105670:	0f b6 10             	movzbl (%eax),%edx
c0105673:	8b 45 f4             	mov    -0xc(%ebp),%eax
c0105676:	88 10                	mov    %dl,(%eax)
c0105678:	83 45 f4 01          	addl   $0x1,-0xc(%ebp)
c010567c:	e9 a7 00 00 00       	jmp    c0105728 <vsprintf+0x432>
c0105681:	83 6d 0c 01          	subl   $0x1,0xc(%ebp)
c0105685:	e9 9e 00 00 00       	jmp    c0105728 <vsprintf+0x432>
c010568a:	90                   	nop
c010568b:	83 7d d8 6c          	cmpl   $0x6c,-0x28(%ebp)
c010568f:	75 10                	jne    c01056a1 <vsprintf+0x3ab>
c0105691:	8b 45 10             	mov    0x10(%ebp),%eax
c0105694:	8d 50 04             	lea    0x4(%eax),%edx
c0105697:	89 55 10             	mov    %edx,0x10(%ebp)
c010569a:	8b 00                	mov    (%eax),%eax
c010569c:	89 45 e8             	mov    %eax,-0x18(%ebp)
c010569f:	eb 52                	jmp    c01056f3 <vsprintf+0x3fd>
c01056a1:	83 7d d8 68          	cmpl   $0x68,-0x28(%ebp)
c01056a5:	75 24                	jne    c01056cb <vsprintf+0x3d5>
c01056a7:	8b 45 10             	mov    0x10(%ebp),%eax
c01056aa:	8d 50 04             	lea    0x4(%eax),%edx
c01056ad:	89 55 10             	mov    %edx,0x10(%ebp)
c01056b0:	8b 00                	mov    (%eax),%eax
c01056b2:	0f b7 c0             	movzwl %ax,%eax
c01056b5:	89 45 e8             	mov    %eax,-0x18(%ebp)
c01056b8:	8b 45 e4             	mov    -0x1c(%ebp),%eax
c01056bb:	83 e0 02             	and    $0x2,%eax
c01056be:	85 c0                	test   %eax,%eax
c01056c0:	74 31                	je     c01056f3 <vsprintf+0x3fd>
c01056c2:	8b 45 e8             	mov    -0x18(%ebp),%eax
c01056c5:	98                   	cwtl   
c01056c6:	89 45 e8             	mov    %eax,-0x18(%ebp)
c01056c9:	eb 28                	jmp    c01056f3 <vsprintf+0x3fd>
c01056cb:	8b 45 e4             	mov    -0x1c(%ebp),%eax
c01056ce:	83 e0 02             	and    $0x2,%eax
c01056d1:	85 c0                	test   %eax,%eax
c01056d3:	74 10                	je     c01056e5 <vsprintf+0x3ef>
c01056d5:	8b 45 10             	mov    0x10(%ebp),%eax
c01056d8:	8d 50 04             	lea    0x4(%eax),%edx
c01056db:	89 55 10             	mov    %edx,0x10(%ebp)
c01056de:	8b 00                	mov    (%eax),%eax
c01056e0:	89 45 e8             	mov    %eax,-0x18(%ebp)
c01056e3:	eb 0e                	jmp    c01056f3 <vsprintf+0x3fd>
c01056e5:	8b 45 10             	mov    0x10(%ebp),%eax
c01056e8:	8d 50 04             	lea    0x4(%eax),%edx
c01056eb:	89 55 10             	mov    %edx,0x10(%ebp)
c01056ee:	8b 00                	mov    (%eax),%eax
c01056f0:	89 45 e8             	mov    %eax,-0x18(%ebp)
c01056f3:	8b 45 e8             	mov    -0x18(%ebp),%eax
c01056f6:	8b 55 e0             	mov    -0x20(%ebp),%edx
c01056f9:	89 54 24 10          	mov    %edx,0x10(%esp)
c01056fd:	8b 55 e4             	mov    -0x1c(%ebp),%edx
c0105700:	89 54 24 0c          	mov    %edx,0xc(%esp)
c0105704:	8b 55 d4             	mov    -0x2c(%ebp),%edx
c0105707:	89 54 24 08          	mov    %edx,0x8(%esp)
c010570b:	8b 55 08             	mov    0x8(%ebp),%edx
c010570e:	89 54 24 04          	mov    %edx,0x4(%esp)
c0105712:	89 04 24             	mov    %eax,(%esp)
c0105715:	e8 2e ed ff ff       	call   c0104448 <itoa_ex>
c010571a:	83 45 08 01          	addl   $0x1,0x8(%ebp)
c010571e:	8b 45 08             	mov    0x8(%ebp),%eax
c0105721:	0f b6 00             	movzbl (%eax),%eax
c0105724:	84 c0                	test   %al,%al
c0105726:	75 f2                	jne    c010571a <vsprintf+0x424>
c0105728:	83 45 0c 01          	addl   $0x1,0xc(%ebp)
c010572c:	8b 45 0c             	mov    0xc(%ebp),%eax
c010572f:	0f b6 00             	movzbl (%eax),%eax
c0105732:	84 c0                	test   %al,%al
c0105734:	0f 85 cd fb ff ff    	jne    c0105307 <vsprintf+0x11>
c010573a:	8b 45 08             	mov    0x8(%ebp),%eax
c010573d:	c6 00 00             	movb   $0x0,(%eax)
c0105740:	8b 55 08             	mov    0x8(%ebp),%edx
c0105743:	8b 45 f4             	mov    -0xc(%ebp),%eax
c0105746:	89 d1                	mov    %edx,%ecx
c0105748:	29 c1                	sub    %eax,%ecx
c010574a:	89 c8                	mov    %ecx,%eax
c010574c:	c9                   	leave  
c010574d:	c3                   	ret    
	...

c0105750 <INIT_HEAP>:
c0105750:	55                   	push   %ebp
c0105751:	89 e5                	mov    %esp,%ebp
c0105753:	83 ec 18             	sub    $0x18,%esp
c0105756:	c7 04 24 90 30 11 c0 	movl   $0xc0113090,(%esp)
c010575d:	e8 c3 00 00 00       	call   c0105825 <heap_init>
c0105762:	c9                   	leave  
c0105763:	c3                   	ret    

c0105764 <malloc>:
c0105764:	55                   	push   %ebp
c0105765:	89 e5                	mov    %esp,%ebp
c0105767:	83 ec 18             	sub    $0x18,%esp
c010576a:	8b 45 08             	mov    0x8(%ebp),%eax
c010576d:	89 44 24 04          	mov    %eax,0x4(%esp)
c0105771:	c7 04 24 90 30 11 c0 	movl   $0xc0113090,(%esp)
c0105778:	e8 48 02 00 00       	call   c01059c5 <heap_alloc>
c010577d:	c9                   	leave  
c010577e:	c3                   	ret    

c010577f <free>:
c010577f:	55                   	push   %ebp
c0105780:	89 e5                	mov    %esp,%ebp
c0105782:	83 ec 18             	sub    $0x18,%esp
c0105785:	8b 45 08             	mov    0x8(%ebp),%eax
c0105788:	89 44 24 04          	mov    %eax,0x4(%esp)
c010578c:	c7 04 24 90 30 11 c0 	movl   $0xc0113090,(%esp)
c0105793:	e8 fc 02 00 00       	call   c0105a94 <heap_free>
c0105798:	c9                   	leave  
c0105799:	c3                   	ret    

c010579a <calloc>:
c010579a:	55                   	push   %ebp
c010579b:	89 e5                	mov    %esp,%ebp
c010579d:	83 ec 28             	sub    $0x28,%esp
c01057a0:	8b 45 0c             	mov    0xc(%ebp),%eax
c01057a3:	89 44 24 04          	mov    %eax,0x4(%esp)
c01057a7:	c7 04 24 90 30 11 c0 	movl   $0xc0113090,(%esp)
c01057ae:	e8 12 02 00 00       	call   c01059c5 <heap_alloc>
c01057b3:	89 45 f4             	mov    %eax,-0xc(%ebp)
c01057b6:	8b 45 f4             	mov    -0xc(%ebp),%eax
c01057b9:	8b 55 0c             	mov    0xc(%ebp),%edx
c01057bc:	89 54 24 08          	mov    %edx,0x8(%esp)
c01057c0:	c7 44 24 04 00 00 00 	movl   $0x0,0x4(%esp)
c01057c7:	00 
c01057c8:	89 04 24             	mov    %eax,(%esp)
c01057cb:	e8 91 45 00 00       	call   c0109d61 <memset>
c01057d0:	8b 45 f4             	mov    -0xc(%ebp),%eax
c01057d3:	c9                   	leave  
c01057d4:	c3                   	ret    

c01057d5 <realloc>:
c01057d5:	55                   	push   %ebp
c01057d6:	89 e5                	mov    %esp,%ebp
c01057d8:	83 ec 28             	sub    $0x28,%esp
c01057db:	8b 45 0c             	mov    0xc(%ebp),%eax
c01057de:	89 44 24 04          	mov    %eax,0x4(%esp)
c01057e2:	c7 04 24 90 30 11 c0 	movl   $0xc0113090,(%esp)
c01057e9:	e8 d7 01 00 00       	call   c01059c5 <heap_alloc>
c01057ee:	89 45 f4             	mov    %eax,-0xc(%ebp)
c01057f1:	8b 45 08             	mov    0x8(%ebp),%eax
c01057f4:	83 e8 10             	sub    $0x10,%eax
c01057f7:	89 45 f0             	mov    %eax,-0x10(%ebp)
c01057fa:	8b 45 f0             	mov    -0x10(%ebp),%eax
c01057fd:	8b 00                	mov    (%eax),%eax
c01057ff:	89 44 24 08          	mov    %eax,0x8(%esp)
c0105803:	8b 45 08             	mov    0x8(%ebp),%eax
c0105806:	89 44 24 04          	mov    %eax,0x4(%esp)
c010580a:	8b 45 f4             	mov    -0xc(%ebp),%eax
c010580d:	89 04 24             	mov    %eax,(%esp)
c0105810:	e8 ca 43 00 00       	call   c0109bdf <memmove>
c0105815:	8b 45 08             	mov    0x8(%ebp),%eax
c0105818:	89 04 24             	mov    %eax,(%esp)
c010581b:	e8 5f ff ff ff       	call   c010577f <free>
c0105820:	8b 45 f4             	mov    -0xc(%ebp),%eax
c0105823:	c9                   	leave  
c0105824:	c3                   	ret    

c0105825 <heap_init>:
c0105825:	55                   	push   %ebp
c0105826:	89 e5                	mov    %esp,%ebp
c0105828:	83 ec 28             	sub    $0x28,%esp
c010582b:	e8 e4 48 00 00       	call   c010a114 <pmm_alloc_page>
c0105830:	8b 15 00 10 11 c0    	mov    0xc0111000,%edx
c0105836:	c7 44 24 08 02 00 00 	movl   $0x2,0x8(%esp)
c010583d:	00 
c010583e:	89 44 24 04          	mov    %eax,0x4(%esp)
c0105842:	89 14 24             	mov    %edx,(%esp)
c0105845:	e8 98 d3 ff ff       	call   c0102be2 <vmm_automap_kernel>
c010584a:	89 45 f4             	mov    %eax,-0xc(%ebp)
c010584d:	8b 45 f4             	mov    -0xc(%ebp),%eax
c0105850:	89 45 f0             	mov    %eax,-0x10(%ebp)
c0105853:	8b 45 f0             	mov    -0x10(%ebp),%eax
c0105856:	c7 00 f0 0f 00 00    	movl   $0xff0,(%eax)
c010585c:	8b 45 f4             	mov    -0xc(%ebp),%eax
c010585f:	8d 50 10             	lea    0x10(%eax),%edx
c0105862:	8b 45 f0             	mov    -0x10(%ebp),%eax
c0105865:	89 50 04             	mov    %edx,0x4(%eax)
c0105868:	8b 45 f0             	mov    -0x10(%ebp),%eax
c010586b:	c7 40 08 01 00 00 00 	movl   $0x1,0x8(%eax)
c0105872:	8b 45 f0             	mov    -0x10(%ebp),%eax
c0105875:	c7 40 0c 00 00 00 00 	movl   $0x0,0xc(%eax)
c010587c:	8b 45 08             	mov    0x8(%ebp),%eax
c010587f:	c7 00 01 00 00 00    	movl   $0x1,(%eax)
c0105885:	8b 45 08             	mov    0x8(%ebp),%eax
c0105888:	8b 55 f0             	mov    -0x10(%ebp),%edx
c010588b:	89 50 04             	mov    %edx,0x4(%eax)
c010588e:	c9                   	leave  
c010588f:	c3                   	ret    

c0105890 <heap_expand>:
c0105890:	55                   	push   %ebp
c0105891:	89 e5                	mov    %esp,%ebp
c0105893:	83 ec 48             	sub    $0x48,%esp
c0105896:	8b 45 08             	mov    0x8(%ebp),%eax
c0105899:	8b 00                	mov    (%eax),%eax
c010589b:	8d 50 01             	lea    0x1(%eax),%edx
c010589e:	8b 45 08             	mov    0x8(%ebp),%eax
c01058a1:	89 10                	mov    %edx,(%eax)
c01058a3:	c7 45 ec 00 00 00 00 	movl   $0x0,-0x14(%ebp)
c01058aa:	a1 00 10 11 c0       	mov    0xc0111000,%eax
c01058af:	8b 00                	mov    (%eax),%eax
c01058b1:	c7 44 24 10 02 00 00 	movl   $0x2,0x10(%esp)
c01058b8:	00 
c01058b9:	c7 44 24 0c ff ff ff 	movl   $0xffffffff,0xc(%esp)
c01058c0:	ff 
c01058c1:	c7 44 24 08 00 00 00 	movl   $0xe0000000,0x8(%esp)
c01058c8:	e0 
c01058c9:	8b 55 0c             	mov    0xc(%ebp),%edx
c01058cc:	89 54 24 04          	mov    %edx,0x4(%esp)
c01058d0:	89 04 24             	mov    %eax,(%esp)
c01058d3:	e8 89 dc ff ff       	call   c0103561 <arch_vaddr_find>
c01058d8:	89 45 e8             	mov    %eax,-0x18(%ebp)
c01058db:	8b 45 e8             	mov    -0x18(%ebp),%eax
c01058de:	89 45 f4             	mov    %eax,-0xc(%ebp)
c01058e1:	c7 45 f0 00 00 00 00 	movl   $0x0,-0x10(%ebp)
c01058e8:	eb 36                	jmp    c0105920 <heap_expand+0x90>
c01058ea:	e8 25 48 00 00       	call   c010a114 <pmm_alloc_page>
c01058ef:	89 45 ec             	mov    %eax,-0x14(%ebp)
c01058f2:	a1 00 10 11 c0       	mov    0xc0111000,%eax
c01058f7:	c7 44 24 0c 02 00 00 	movl   $0x2,0xc(%esp)
c01058fe:	00 
c01058ff:	8b 55 f4             	mov    -0xc(%ebp),%edx
c0105902:	89 54 24 08          	mov    %edx,0x8(%esp)
c0105906:	8b 55 ec             	mov    -0x14(%ebp),%edx
c0105909:	89 54 24 04          	mov    %edx,0x4(%esp)
c010590d:	89 04 24             	mov    %eax,(%esp)
c0105910:	e8 ef d1 ff ff       	call   c0102b04 <vmm_map>
c0105915:	81 45 f4 00 10 00 00 	addl   $0x1000,-0xc(%ebp)
c010591c:	83 45 f0 01          	addl   $0x1,-0x10(%ebp)
c0105920:	8b 45 f0             	mov    -0x10(%ebp),%eax
c0105923:	3b 45 0c             	cmp    0xc(%ebp),%eax
c0105926:	7c c2                	jl     c01058ea <heap_expand+0x5a>
c0105928:	8b 45 e8             	mov    -0x18(%ebp),%eax
c010592b:	89 45 e4             	mov    %eax,-0x1c(%ebp)
c010592e:	8b 45 0c             	mov    0xc(%ebp),%eax
c0105931:	c1 e0 0c             	shl    $0xc,%eax
c0105934:	8d 50 f0             	lea    -0x10(%eax),%edx
c0105937:	8b 45 e4             	mov    -0x1c(%ebp),%eax
c010593a:	89 10                	mov    %edx,(%eax)
c010593c:	8b 45 e8             	mov    -0x18(%ebp),%eax
c010593f:	8d 50 10             	lea    0x10(%eax),%edx
c0105942:	8b 45 e4             	mov    -0x1c(%ebp),%eax
c0105945:	89 50 04             	mov    %edx,0x4(%eax)
c0105948:	8b 45 e4             	mov    -0x1c(%ebp),%eax
c010594b:	c7 40 08 01 00 00 00 	movl   $0x1,0x8(%eax)
c0105952:	8b 45 08             	mov    0x8(%ebp),%eax
c0105955:	8b 50 04             	mov    0x4(%eax),%edx
c0105958:	8b 45 e4             	mov    -0x1c(%ebp),%eax
c010595b:	89 50 0c             	mov    %edx,0xc(%eax)
c010595e:	8b 45 08             	mov    0x8(%ebp),%eax
c0105961:	8b 55 e4             	mov    -0x1c(%ebp),%edx
c0105964:	89 50 04             	mov    %edx,0x4(%eax)
c0105967:	8b 45 08             	mov    0x8(%ebp),%eax
c010596a:	8b 00                	mov    (%eax),%eax
c010596c:	8d 50 01             	lea    0x1(%eax),%edx
c010596f:	8b 45 08             	mov    0x8(%ebp),%eax
c0105972:	89 10                	mov    %edx,(%eax)
c0105974:	8b 45 e4             	mov    -0x1c(%ebp),%eax
c0105977:	c9                   	leave  
c0105978:	c3                   	ret    

c0105979 <heap_destroy>:
c0105979:	55                   	push   %ebp
c010597a:	89 e5                	mov    %esp,%ebp
c010597c:	83 ec 18             	sub    $0x18,%esp
c010597f:	eb 39                	jmp    c01059ba <heap_destroy+0x41>
c0105981:	8b 45 08             	mov    0x8(%ebp),%eax
c0105984:	8b 50 04             	mov    0x4(%eax),%edx
c0105987:	8b 45 08             	mov    0x8(%ebp),%eax
c010598a:	8b 00                	mov    (%eax),%eax
c010598c:	8d 48 ff             	lea    -0x1(%eax),%ecx
c010598f:	8b 45 08             	mov    0x8(%ebp),%eax
c0105992:	89 08                	mov    %ecx,(%eax)
c0105994:	8b 45 08             	mov    0x8(%ebp),%eax
c0105997:	8b 00                	mov    (%eax),%eax
c0105999:	c1 e0 04             	shl    $0x4,%eax
c010599c:	01 d0                	add    %edx,%eax
c010599e:	8b 40 04             	mov    0x4(%eax),%eax
c01059a1:	89 c2                	mov    %eax,%edx
c01059a3:	81 e2 00 f0 ff ff    	and    $0xfffff000,%edx
c01059a9:	a1 00 10 11 c0       	mov    0xc0111000,%eax
c01059ae:	89 54 24 04          	mov    %edx,0x4(%esp)
c01059b2:	89 04 24             	mov    %eax,(%esp)
c01059b5:	e8 7b d1 ff ff       	call   c0102b35 <vmm_unmap>
c01059ba:	8b 45 08             	mov    0x8(%ebp),%eax
c01059bd:	8b 00                	mov    (%eax),%eax
c01059bf:	85 c0                	test   %eax,%eax
c01059c1:	75 be                	jne    c0105981 <heap_destroy+0x8>
c01059c3:	c9                   	leave  
c01059c4:	c3                   	ret    

c01059c5 <heap_alloc>:
c01059c5:	55                   	push   %ebp
c01059c6:	89 e5                	mov    %esp,%ebp
c01059c8:	83 ec 28             	sub    $0x28,%esp
c01059cb:	8b 45 08             	mov    0x8(%ebp),%eax
c01059ce:	8b 40 04             	mov    0x4(%eax),%eax
c01059d1:	89 45 f4             	mov    %eax,-0xc(%ebp)
c01059d4:	c7 45 f0 00 00 00 00 	movl   $0x0,-0x10(%ebp)
c01059db:	8b 45 0c             	mov    0xc(%ebp),%eax
c01059de:	83 c0 10             	add    $0x10,%eax
c01059e1:	89 45 ec             	mov    %eax,-0x14(%ebp)
c01059e4:	81 7d 0c 00 10 00 00 	cmpl   $0x1000,0xc(%ebp)
c01059eb:	77 60                	ja     c0105a4d <heap_alloc+0x88>
c01059ed:	81 7d 0c f0 0f 00 00 	cmpl   $0xff0,0xc(%ebp)
c01059f4:	76 57                	jbe    c0105a4d <heap_alloc+0x88>
c01059f6:	e8 19 47 00 00       	call   c010a114 <pmm_alloc_page>
c01059fb:	8b 15 00 10 11 c0    	mov    0xc0111000,%edx
c0105a01:	c7 44 24 08 02 00 00 	movl   $0x2,0x8(%esp)
c0105a08:	00 
c0105a09:	89 44 24 04          	mov    %eax,0x4(%esp)
c0105a0d:	89 14 24             	mov    %edx,(%esp)
c0105a10:	e8 cd d1 ff ff       	call   c0102be2 <vmm_automap_kernel>
c0105a15:	89 45 f0             	mov    %eax,-0x10(%ebp)
c0105a18:	8b 45 f0             	mov    -0x10(%ebp),%eax
c0105a1b:	eb 75                	jmp    c0105a92 <heap_alloc+0xcd>
c0105a1d:	8b 45 f4             	mov    -0xc(%ebp),%eax
c0105a20:	8b 00                	mov    (%eax),%eax
c0105a22:	3b 45 0c             	cmp    0xc(%ebp),%eax
c0105a25:	72 1d                	jb     c0105a44 <heap_alloc+0x7f>
c0105a27:	8b 45 f4             	mov    -0xc(%ebp),%eax
c0105a2a:	8b 40 08             	mov    0x8(%eax),%eax
c0105a2d:	83 f8 01             	cmp    $0x1,%eax
c0105a30:	75 12                	jne    c0105a44 <heap_alloc+0x7f>
c0105a32:	8b 45 f4             	mov    -0xc(%ebp),%eax
c0105a35:	c7 40 08 00 00 00 00 	movl   $0x0,0x8(%eax)
c0105a3c:	8b 45 f4             	mov    -0xc(%ebp),%eax
c0105a3f:	8b 40 04             	mov    0x4(%eax),%eax
c0105a42:	eb 4e                	jmp    c0105a92 <heap_alloc+0xcd>
c0105a44:	8b 45 f4             	mov    -0xc(%ebp),%eax
c0105a47:	8b 40 0c             	mov    0xc(%eax),%eax
c0105a4a:	89 45 f4             	mov    %eax,-0xc(%ebp)
c0105a4d:	83 7d f4 00          	cmpl   $0x0,-0xc(%ebp)
c0105a51:	75 ca                	jne    c0105a1d <heap_alloc+0x58>
c0105a53:	8b 45 ec             	mov    -0x14(%ebp),%eax
c0105a56:	05 ff 0f 00 00       	add    $0xfff,%eax
c0105a5b:	25 00 f0 ff ff       	and    $0xfffff000,%eax
c0105a60:	c1 e8 0c             	shr    $0xc,%eax
c0105a63:	89 44 24 04          	mov    %eax,0x4(%esp)
c0105a67:	8b 45 08             	mov    0x8(%ebp),%eax
c0105a6a:	89 04 24             	mov    %eax,(%esp)
c0105a6d:	e8 1e fe ff ff       	call   c0105890 <heap_expand>
c0105a72:	89 45 f4             	mov    %eax,-0xc(%ebp)
c0105a75:	83 7d f4 00          	cmpl   $0x0,-0xc(%ebp)
c0105a79:	74 12                	je     c0105a8d <heap_alloc+0xc8>
c0105a7b:	8b 45 f4             	mov    -0xc(%ebp),%eax
c0105a7e:	c7 40 08 00 00 00 00 	movl   $0x0,0x8(%eax)
c0105a85:	8b 45 f4             	mov    -0xc(%ebp),%eax
c0105a88:	8b 40 04             	mov    0x4(%eax),%eax
c0105a8b:	eb 05                	jmp    c0105a92 <heap_alloc+0xcd>
c0105a8d:	b8 00 00 00 00       	mov    $0x0,%eax
c0105a92:	c9                   	leave  
c0105a93:	c3                   	ret    

c0105a94 <heap_free>:
c0105a94:	55                   	push   %ebp
c0105a95:	89 e5                	mov    %esp,%ebp
c0105a97:	83 ec 10             	sub    $0x10,%esp
c0105a9a:	8b 45 0c             	mov    0xc(%ebp),%eax
c0105a9d:	83 e8 10             	sub    $0x10,%eax
c0105aa0:	89 45 fc             	mov    %eax,-0x4(%ebp)
c0105aa3:	8b 45 fc             	mov    -0x4(%ebp),%eax
c0105aa6:	c7 40 08 01 00 00 00 	movl   $0x1,0x8(%eax)
c0105aad:	c9                   	leave  
c0105aae:	c3                   	ret    
	...

c0105ab0 <inb>:
c0105ab0:	55                   	push   %ebp
c0105ab1:	89 e5                	mov    %esp,%ebp
c0105ab3:	53                   	push   %ebx
c0105ab4:	83 ec 14             	sub    $0x14,%esp
c0105ab7:	8b 45 08             	mov    0x8(%ebp),%eax
c0105aba:	66 89 45 e8          	mov    %ax,-0x18(%ebp)
c0105abe:	0f b7 55 e8          	movzwl -0x18(%ebp),%edx
c0105ac2:	66 89 55 ea          	mov    %dx,-0x16(%ebp)
c0105ac6:	0f b7 55 ea          	movzwl -0x16(%ebp),%edx
c0105aca:	ec                   	in     (%dx),%al
c0105acb:	89 c3                	mov    %eax,%ebx
c0105acd:	88 5d fb             	mov    %bl,-0x5(%ebp)
c0105ad0:	0f b6 45 fb          	movzbl -0x5(%ebp),%eax
c0105ad4:	83 c4 14             	add    $0x14,%esp
c0105ad7:	5b                   	pop    %ebx
c0105ad8:	5d                   	pop    %ebp
c0105ad9:	c3                   	ret    

c0105ada <outb>:
c0105ada:	55                   	push   %ebp
c0105adb:	89 e5                	mov    %esp,%ebp
c0105add:	83 ec 08             	sub    $0x8,%esp
c0105ae0:	8b 55 08             	mov    0x8(%ebp),%edx
c0105ae3:	8b 45 0c             	mov    0xc(%ebp),%eax
c0105ae6:	66 89 55 fc          	mov    %dx,-0x4(%ebp)
c0105aea:	88 45 f8             	mov    %al,-0x8(%ebp)
c0105aed:	0f b7 55 fc          	movzwl -0x4(%ebp),%edx
c0105af1:	0f b6 45 f8          	movzbl -0x8(%ebp),%eax
c0105af5:	ee                   	out    %al,(%dx)
c0105af6:	c9                   	leave  
c0105af7:	c3                   	ret    

c0105af8 <INIT_CMOS>:
c0105af8:	55                   	push   %ebp
c0105af9:	89 e5                	mov    %esp,%ebp
c0105afb:	83 ec 18             	sub    $0x18,%esp
c0105afe:	c7 04 24 0a 00 00 00 	movl   $0xa,(%esp)
c0105b05:	e8 52 01 00 00       	call   c0105c5c <cmos_read_byte>
c0105b0a:	a2 9c 30 11 c0       	mov    %al,0xc011309c
c0105b0f:	c7 04 24 0b 00 00 00 	movl   $0xb,(%esp)
c0105b16:	e8 41 01 00 00       	call   c0105c5c <cmos_read_byte>
c0105b1b:	a2 9d 30 11 c0       	mov    %al,0xc011309d
c0105b20:	c7 04 24 0c 00 00 00 	movl   $0xc,(%esp)
c0105b27:	e8 30 01 00 00       	call   c0105c5c <cmos_read_byte>
c0105b2c:	a2 9e 30 11 c0       	mov    %al,0xc011309e
c0105b31:	c7 04 24 0d 00 00 00 	movl   $0xd,(%esp)
c0105b38:	e8 1f 01 00 00       	call   c0105c5c <cmos_read_byte>
c0105b3d:	a2 9f 30 11 c0       	mov    %al,0xc011309f
c0105b42:	e8 25 17 00 00       	call   c010726c <INIT_RTC>
c0105b47:	e8 f5 1a 00 00       	call   c0107641 <get_time>
c0105b4c:	a3 98 30 11 c0       	mov    %eax,0xc0113098
c0105b51:	c7 04 24 0e 00 00 00 	movl   $0xe,(%esp)
c0105b58:	e8 ff 00 00 00       	call   c0105c5c <cmos_read_byte>
c0105b5d:	a2 a0 30 11 c0       	mov    %al,0xc01130a0
c0105b62:	c7 04 24 0f 00 00 00 	movl   $0xf,(%esp)
c0105b69:	e8 ee 00 00 00       	call   c0105c5c <cmos_read_byte>
c0105b6e:	a2 a1 30 11 c0       	mov    %al,0xc01130a1
c0105b73:	c7 04 24 10 00 00 00 	movl   $0x10,(%esp)
c0105b7a:	e8 dd 00 00 00       	call   c0105c5c <cmos_read_byte>
c0105b7f:	a2 a2 30 11 c0       	mov    %al,0xc01130a2
c0105b84:	c7 04 24 12 00 00 00 	movl   $0x12,(%esp)
c0105b8b:	e8 cc 00 00 00       	call   c0105c5c <cmos_read_byte>
c0105b90:	a2 a3 30 11 c0       	mov    %al,0xc01130a3
c0105b95:	c7 04 24 14 00 00 00 	movl   $0x14,(%esp)
c0105b9c:	e8 bb 00 00 00       	call   c0105c5c <cmos_read_byte>
c0105ba1:	a2 a4 30 11 c0       	mov    %al,0xc01130a4
c0105ba6:	c7 04 24 15 00 00 00 	movl   $0x15,(%esp)
c0105bad:	e8 aa 00 00 00       	call   c0105c5c <cmos_read_byte>
c0105bb2:	a2 a5 30 11 c0       	mov    %al,0xc01130a5
c0105bb7:	c7 04 24 16 00 00 00 	movl   $0x16,(%esp)
c0105bbe:	e8 99 00 00 00       	call   c0105c5c <cmos_read_byte>
c0105bc3:	a2 a6 30 11 c0       	mov    %al,0xc01130a6
c0105bc8:	c7 04 24 17 00 00 00 	movl   $0x17,(%esp)
c0105bcf:	e8 88 00 00 00       	call   c0105c5c <cmos_read_byte>
c0105bd4:	a2 a7 30 11 c0       	mov    %al,0xc01130a7
c0105bd9:	c7 04 24 18 00 00 00 	movl   $0x18,(%esp)
c0105be0:	e8 77 00 00 00       	call   c0105c5c <cmos_read_byte>
c0105be5:	a2 a8 30 11 c0       	mov    %al,0xc01130a8
c0105bea:	c7 04 24 19 00 00 00 	movl   $0x19,(%esp)
c0105bf1:	e8 66 00 00 00       	call   c0105c5c <cmos_read_byte>
c0105bf6:	a2 a9 30 11 c0       	mov    %al,0xc01130a9
c0105bfb:	c7 04 24 1a 00 00 00 	movl   $0x1a,(%esp)
c0105c02:	e8 55 00 00 00       	call   c0105c5c <cmos_read_byte>
c0105c07:	a2 aa 30 11 c0       	mov    %al,0xc01130aa
c0105c0c:	c7 04 24 2e 00 00 00 	movl   $0x2e,(%esp)
c0105c13:	e8 44 00 00 00       	call   c0105c5c <cmos_read_byte>
c0105c18:	a2 ab 30 11 c0       	mov    %al,0xc01130ab
c0105c1d:	c7 04 24 2f 00 00 00 	movl   $0x2f,(%esp)
c0105c24:	e8 33 00 00 00       	call   c0105c5c <cmos_read_byte>
c0105c29:	a2 ac 30 11 c0       	mov    %al,0xc01130ac
c0105c2e:	c7 04 24 30 00 00 00 	movl   $0x30,(%esp)
c0105c35:	e8 22 00 00 00       	call   c0105c5c <cmos_read_byte>
c0105c3a:	a2 ad 30 11 c0       	mov    %al,0xc01130ad
c0105c3f:	c7 04 24 31 00 00 00 	movl   $0x31,(%esp)
c0105c46:	e8 11 00 00 00       	call   c0105c5c <cmos_read_byte>
c0105c4b:	a2 ae 30 11 c0       	mov    %al,0xc01130ae
c0105c50:	c9                   	leave  
c0105c51:	c3                   	ret    

c0105c52 <get_cmos_data>:
c0105c52:	55                   	push   %ebp
c0105c53:	89 e5                	mov    %esp,%ebp
c0105c55:	b8 98 30 11 c0       	mov    $0xc0113098,%eax
c0105c5a:	5d                   	pop    %ebp
c0105c5b:	c3                   	ret    

c0105c5c <cmos_read_byte>:
c0105c5c:	55                   	push   %ebp
c0105c5d:	89 e5                	mov    %esp,%ebp
c0105c5f:	83 ec 1c             	sub    $0x1c,%esp
c0105c62:	8b 45 08             	mov    0x8(%ebp),%eax
c0105c65:	88 45 ec             	mov    %al,-0x14(%ebp)
c0105c68:	c7 04 24 70 00 00 00 	movl   $0x70,(%esp)
c0105c6f:	e8 3c fe ff ff       	call   c0105ab0 <inb>
c0105c74:	88 45 ff             	mov    %al,-0x1(%ebp)
c0105c77:	0f b6 45 ff          	movzbl -0x1(%ebp),%eax
c0105c7b:	89 c2                	mov    %eax,%edx
c0105c7d:	83 e2 80             	and    $0xffffff80,%edx
c0105c80:	0f b6 45 ec          	movzbl -0x14(%ebp),%eax
c0105c84:	83 e0 7f             	and    $0x7f,%eax
c0105c87:	09 d0                	or     %edx,%eax
c0105c89:	0f b6 c0             	movzbl %al,%eax
c0105c8c:	89 44 24 04          	mov    %eax,0x4(%esp)
c0105c90:	c7 04 24 70 00 00 00 	movl   $0x70,(%esp)
c0105c97:	e8 3e fe ff ff       	call   c0105ada <outb>
c0105c9c:	c7 04 24 71 00 00 00 	movl   $0x71,(%esp)
c0105ca3:	e8 08 fe ff ff       	call   c0105ab0 <inb>
c0105ca8:	c9                   	leave  
c0105ca9:	c3                   	ret    

c0105caa <cmos_write_byte>:
c0105caa:	55                   	push   %ebp
c0105cab:	89 e5                	mov    %esp,%ebp
c0105cad:	83 ec 20             	sub    $0x20,%esp
c0105cb0:	8b 55 08             	mov    0x8(%ebp),%edx
c0105cb3:	8b 45 0c             	mov    0xc(%ebp),%eax
c0105cb6:	88 55 ec             	mov    %dl,-0x14(%ebp)
c0105cb9:	88 45 e8             	mov    %al,-0x18(%ebp)
c0105cbc:	c7 04 24 70 00 00 00 	movl   $0x70,(%esp)
c0105cc3:	e8 e8 fd ff ff       	call   c0105ab0 <inb>
c0105cc8:	88 45 ff             	mov    %al,-0x1(%ebp)
c0105ccb:	0f b6 45 ff          	movzbl -0x1(%ebp),%eax
c0105ccf:	89 c2                	mov    %eax,%edx
c0105cd1:	83 e2 80             	and    $0xffffff80,%edx
c0105cd4:	0f b6 45 ec          	movzbl -0x14(%ebp),%eax
c0105cd8:	83 e0 7f             	and    $0x7f,%eax
c0105cdb:	09 d0                	or     %edx,%eax
c0105cdd:	0f b6 c0             	movzbl %al,%eax
c0105ce0:	89 44 24 04          	mov    %eax,0x4(%esp)
c0105ce4:	c7 04 24 70 00 00 00 	movl   $0x70,(%esp)
c0105ceb:	e8 ea fd ff ff       	call   c0105ada <outb>
c0105cf0:	0f b6 45 e8          	movzbl -0x18(%ebp),%eax
c0105cf4:	89 44 24 04          	mov    %eax,0x4(%esp)
c0105cf8:	c7 04 24 71 00 00 00 	movl   $0x71,(%esp)
c0105cff:	e8 d6 fd ff ff       	call   c0105ada <outb>
c0105d04:	c9                   	leave  
c0105d05:	c3                   	ret    
	...

c0105d08 <putchar>:
c0105d08:	55                   	push   %ebp
c0105d09:	89 e5                	mov    %esp,%ebp
c0105d0b:	83 ec 18             	sub    $0x18,%esp
c0105d0e:	83 7d 08 08          	cmpl   $0x8,0x8(%ebp)
c0105d12:	0f 85 8a 00 00 00    	jne    c0105da2 <putchar+0x9a>
c0105d18:	a1 70 10 11 c0       	mov    0xc0111070,%eax
c0105d1d:	85 c0                	test   %eax,%eax
c0105d1f:	7e 2b                	jle    c0105d4c <putchar+0x44>
c0105d21:	a1 74 10 11 c0       	mov    0xc0111074,%eax
c0105d26:	0f b6 d0             	movzbl %al,%edx
c0105d29:	a1 70 10 11 c0       	mov    0xc0111070,%eax
c0105d2e:	83 e8 01             	sub    $0x1,%eax
c0105d31:	a3 70 10 11 c0       	mov    %eax,0xc0111070
c0105d36:	a1 70 10 11 c0       	mov    0xc0111070,%eax
c0105d3b:	0f b6 c0             	movzbl %al,%eax
c0105d3e:	89 54 24 04          	mov    %edx,0x4(%esp)
c0105d42:	89 04 24             	mov    %eax,(%esp)
c0105d45:	e8 1b 02 00 00       	call   c0105f65 <gotoxy>
c0105d4a:	eb 2c                	jmp    c0105d78 <putchar+0x70>
c0105d4c:	a1 74 10 11 c0       	mov    0xc0111074,%eax
c0105d51:	83 e8 01             	sub    $0x1,%eax
c0105d54:	a3 74 10 11 c0       	mov    %eax,0xc0111074
c0105d59:	a1 74 10 11 c0       	mov    0xc0111074,%eax
c0105d5e:	0f b6 d0             	movzbl %al,%edx
c0105d61:	a1 3c f1 10 c0       	mov    0xc010f13c,%eax
c0105d66:	83 e8 01             	sub    $0x1,%eax
c0105d69:	0f b6 c0             	movzbl %al,%eax
c0105d6c:	89 54 24 04          	mov    %edx,0x4(%esp)
c0105d70:	89 04 24             	mov    %eax,(%esp)
c0105d73:	e8 ed 01 00 00       	call   c0105f65 <gotoxy>
c0105d78:	8b 15 44 f1 10 c0    	mov    0xc010f144,%edx
c0105d7e:	8b 0d 74 10 11 c0    	mov    0xc0111074,%ecx
c0105d84:	a1 3c f1 10 c0       	mov    0xc010f13c,%eax
c0105d89:	0f af c8             	imul   %eax,%ecx
c0105d8c:	a1 70 10 11 c0       	mov    0xc0111070,%eax
c0105d91:	01 c8                	add    %ecx,%eax
c0105d93:	01 c0                	add    %eax,%eax
c0105d95:	01 d0                	add    %edx,%eax
c0105d97:	c6 00 00             	movb   $0x0,(%eax)
c0105d9a:	8b 45 08             	mov    0x8(%ebp),%eax
c0105d9d:	e9 c3 00 00 00       	jmp    c0105e65 <putchar+0x15d>
c0105da2:	a1 3c f1 10 c0       	mov    0xc010f13c,%eax
c0105da7:	8d 50 ff             	lea    -0x1(%eax),%edx
c0105daa:	a1 70 10 11 c0       	mov    0xc0111070,%eax
c0105daf:	39 c2                	cmp    %eax,%edx
c0105db1:	7c 06                	jl     c0105db9 <putchar+0xb1>
c0105db3:	83 7d 08 0a          	cmpl   $0xa,0x8(%ebp)
c0105db7:	75 30                	jne    c0105de9 <putchar+0xe1>
c0105db9:	a1 74 10 11 c0       	mov    0xc0111074,%eax
c0105dbe:	83 c0 01             	add    $0x1,%eax
c0105dc1:	a3 74 10 11 c0       	mov    %eax,0xc0111074
c0105dc6:	a1 74 10 11 c0       	mov    0xc0111074,%eax
c0105dcb:	0f b6 c0             	movzbl %al,%eax
c0105dce:	89 44 24 04          	mov    %eax,0x4(%esp)
c0105dd2:	c7 04 24 00 00 00 00 	movl   $0x0,(%esp)
c0105dd9:	e8 87 01 00 00       	call   c0105f65 <gotoxy>
c0105dde:	83 7d 08 0a          	cmpl   $0xa,0x8(%ebp)
c0105de2:	75 05                	jne    c0105de9 <putchar+0xe1>
c0105de4:	8b 45 08             	mov    0x8(%ebp),%eax
c0105de7:	eb 7c                	jmp    c0105e65 <putchar+0x15d>
c0105de9:	8b 15 44 f1 10 c0    	mov    0xc010f144,%edx
c0105def:	8b 0d 74 10 11 c0    	mov    0xc0111074,%ecx
c0105df5:	a1 3c f1 10 c0       	mov    0xc010f13c,%eax
c0105dfa:	0f af c8             	imul   %eax,%ecx
c0105dfd:	a1 70 10 11 c0       	mov    0xc0111070,%eax
c0105e02:	01 c8                	add    %ecx,%eax
c0105e04:	01 c0                	add    %eax,%eax
c0105e06:	01 c2                	add    %eax,%edx
c0105e08:	8b 45 08             	mov    0x8(%ebp),%eax
c0105e0b:	88 02                	mov    %al,(%edx)
c0105e0d:	a1 44 f1 10 c0       	mov    0xc010f144,%eax
c0105e12:	8b 0d 74 10 11 c0    	mov    0xc0111074,%ecx
c0105e18:	8b 15 3c f1 10 c0    	mov    0xc010f13c,%edx
c0105e1e:	0f af ca             	imul   %edx,%ecx
c0105e21:	8b 15 70 10 11 c0    	mov    0xc0111070,%edx
c0105e27:	01 ca                	add    %ecx,%edx
c0105e29:	01 d2                	add    %edx,%edx
c0105e2b:	83 c2 01             	add    $0x1,%edx
c0105e2e:	01 c2                	add    %eax,%edx
c0105e30:	0f b6 05 40 f1 10 c0 	movzbl 0xc010f140,%eax
c0105e37:	88 02                	mov    %al,(%edx)
c0105e39:	a1 74 10 11 c0       	mov    0xc0111074,%eax
c0105e3e:	0f b6 d0             	movzbl %al,%edx
c0105e41:	a1 70 10 11 c0       	mov    0xc0111070,%eax
c0105e46:	83 c0 01             	add    $0x1,%eax
c0105e49:	a3 70 10 11 c0       	mov    %eax,0xc0111070
c0105e4e:	a1 70 10 11 c0       	mov    0xc0111070,%eax
c0105e53:	0f b6 c0             	movzbl %al,%eax
c0105e56:	89 54 24 04          	mov    %edx,0x4(%esp)
c0105e5a:	89 04 24             	mov    %eax,(%esp)
c0105e5d:	e8 03 01 00 00       	call   c0105f65 <gotoxy>
c0105e62:	8b 45 08             	mov    0x8(%ebp),%eax
c0105e65:	c9                   	leave  
c0105e66:	c3                   	ret    

c0105e67 <puts>:
c0105e67:	55                   	push   %ebp
c0105e68:	89 e5                	mov    %esp,%ebp
c0105e6a:	83 ec 28             	sub    $0x28,%esp
c0105e6d:	c7 45 f4 01 00 00 00 	movl   $0x1,-0xc(%ebp)
c0105e74:	eb 19                	jmp    c0105e8f <puts+0x28>
c0105e76:	8b 45 08             	mov    0x8(%ebp),%eax
c0105e79:	0f b6 00             	movzbl (%eax),%eax
c0105e7c:	0f be c0             	movsbl %al,%eax
c0105e7f:	83 45 08 01          	addl   $0x1,0x8(%ebp)
c0105e83:	89 04 24             	mov    %eax,(%esp)
c0105e86:	e8 7d fe ff ff       	call   c0105d08 <putchar>
c0105e8b:	83 45 f4 01          	addl   $0x1,-0xc(%ebp)
c0105e8f:	8b 45 08             	mov    0x8(%ebp),%eax
c0105e92:	0f b6 00             	movzbl (%eax),%eax
c0105e95:	84 c0                	test   %al,%al
c0105e97:	75 dd                	jne    c0105e76 <puts+0xf>
c0105e99:	c7 04 24 0a 00 00 00 	movl   $0xa,(%esp)
c0105ea0:	e8 63 fe ff ff       	call   c0105d08 <putchar>
c0105ea5:	8b 45 f4             	mov    -0xc(%ebp),%eax
c0105ea8:	c9                   	leave  
c0105ea9:	c3                   	ret    

c0105eaa <fputs>:
c0105eaa:	55                   	push   %ebp
c0105eab:	89 e5                	mov    %esp,%ebp
c0105ead:	83 ec 18             	sub    $0x18,%esp
c0105eb0:	83 7d 0c 01          	cmpl   $0x1,0xc(%ebp)
c0105eb4:	75 21                	jne    c0105ed7 <fputs+0x2d>
c0105eb6:	eb 15                	jmp    c0105ecd <fputs+0x23>
c0105eb8:	8b 45 08             	mov    0x8(%ebp),%eax
c0105ebb:	0f b6 00             	movzbl (%eax),%eax
c0105ebe:	0f be c0             	movsbl %al,%eax
c0105ec1:	83 45 08 01          	addl   $0x1,0x8(%ebp)
c0105ec5:	89 04 24             	mov    %eax,(%esp)
c0105ec8:	e8 3b fe ff ff       	call   c0105d08 <putchar>
c0105ecd:	8b 45 08             	mov    0x8(%ebp),%eax
c0105ed0:	0f b6 00             	movzbl (%eax),%eax
c0105ed3:	84 c0                	test   %al,%al
c0105ed5:	75 e1                	jne    c0105eb8 <fputs+0xe>
c0105ed7:	b8 00 00 00 00       	mov    $0x0,%eax
c0105edc:	c9                   	leave  
c0105edd:	c3                   	ret    

c0105ede <clear_screen>:
c0105ede:	55                   	push   %ebp
c0105edf:	89 e5                	mov    %esp,%ebp
c0105ee1:	83 ec 28             	sub    $0x28,%esp
c0105ee4:	c7 45 f4 00 00 00 00 	movl   $0x0,-0xc(%ebp)
c0105eeb:	eb 2c                	jmp    c0105f19 <clear_screen+0x3b>
c0105eed:	8b 15 44 f1 10 c0    	mov    0xc010f144,%edx
c0105ef3:	8b 45 f4             	mov    -0xc(%ebp),%eax
c0105ef6:	01 c0                	add    %eax,%eax
c0105ef8:	01 d0                	add    %edx,%eax
c0105efa:	c6 00 00             	movb   $0x0,(%eax)
c0105efd:	a1 44 f1 10 c0       	mov    0xc010f144,%eax
c0105f02:	8b 55 f4             	mov    -0xc(%ebp),%edx
c0105f05:	01 d2                	add    %edx,%edx
c0105f07:	83 c2 01             	add    $0x1,%edx
c0105f0a:	01 c2                	add    %eax,%edx
c0105f0c:	0f b6 05 40 f1 10 c0 	movzbl 0xc010f140,%eax
c0105f13:	88 02                	mov    %al,(%edx)
c0105f15:	83 45 f4 01          	addl   $0x1,-0xc(%ebp)
c0105f19:	8b 15 38 f1 10 c0    	mov    0xc010f138,%edx
c0105f1f:	a1 3c f1 10 c0       	mov    0xc010f13c,%eax
c0105f24:	0f af c2             	imul   %edx,%eax
c0105f27:	3b 45 f4             	cmp    -0xc(%ebp),%eax
c0105f2a:	7f c1                	jg     c0105eed <clear_screen+0xf>
c0105f2c:	c7 44 24 04 00 00 00 	movl   $0x0,0x4(%esp)
c0105f33:	00 
c0105f34:	c7 04 24 00 00 00 00 	movl   $0x0,(%esp)
c0105f3b:	e8 25 00 00 00       	call   c0105f65 <gotoxy>
c0105f40:	c9                   	leave  
c0105f41:	c3                   	ret    

c0105f42 <set_color>:
c0105f42:	55                   	push   %ebp
c0105f43:	89 e5                	mov    %esp,%ebp
c0105f45:	83 ec 04             	sub    $0x4,%esp
c0105f48:	8b 45 08             	mov    0x8(%ebp),%eax
c0105f4b:	88 45 fc             	mov    %al,-0x4(%ebp)
c0105f4e:	0f b6 45 fc          	movzbl -0x4(%ebp),%eax
c0105f52:	a2 40 f1 10 c0       	mov    %al,0xc010f140
c0105f57:	c9                   	leave  
c0105f58:	c3                   	ret    

c0105f59 <get_color>:
c0105f59:	55                   	push   %ebp
c0105f5a:	89 e5                	mov    %esp,%ebp
c0105f5c:	0f b6 05 40 f1 10 c0 	movzbl 0xc010f140,%eax
c0105f63:	5d                   	pop    %ebp
c0105f64:	c3                   	ret    

c0105f65 <gotoxy>:
c0105f65:	55                   	push   %ebp
c0105f66:	89 e5                	mov    %esp,%ebp
c0105f68:	53                   	push   %ebx
c0105f69:	83 ec 34             	sub    $0x34,%esp
c0105f6c:	8b 55 08             	mov    0x8(%ebp),%edx
c0105f6f:	8b 45 0c             	mov    0xc(%ebp),%eax
c0105f72:	88 55 e4             	mov    %dl,-0x1c(%ebp)
c0105f75:	88 45 e0             	mov    %al,-0x20(%ebp)
c0105f78:	0f b6 55 e0          	movzbl -0x20(%ebp),%edx
c0105f7c:	a1 3c f1 10 c0       	mov    0xc010f13c,%eax
c0105f81:	0f af d0             	imul   %eax,%edx
c0105f84:	0f b6 45 e4          	movzbl -0x1c(%ebp),%eax
c0105f88:	8d 0c 02             	lea    (%edx,%eax,1),%ecx
c0105f8b:	8b 15 3c f1 10 c0    	mov    0xc010f13c,%edx
c0105f91:	a1 38 f1 10 c0       	mov    0xc010f138,%eax
c0105f96:	0f af c2             	imul   %edx,%eax
c0105f99:	39 c1                	cmp    %eax,%ecx
c0105f9b:	7c 6f                	jl     c010600c <gotoxy+0xa7>
c0105f9d:	a1 38 f1 10 c0       	mov    0xc010f138,%eax
c0105fa2:	8d 14 00             	lea    (%eax,%eax,1),%edx
c0105fa5:	a1 3c f1 10 c0       	mov    0xc010f13c,%eax
c0105faa:	0f af c2             	imul   %edx,%eax
c0105fad:	89 c2                	mov    %eax,%edx
c0105faf:	8b 0d 44 f1 10 c0    	mov    0xc010f144,%ecx
c0105fb5:	a1 3c f1 10 c0       	mov    0xc010f13c,%eax
c0105fba:	01 c0                	add    %eax,%eax
c0105fbc:	01 c1                	add    %eax,%ecx
c0105fbe:	a1 44 f1 10 c0       	mov    0xc010f144,%eax
c0105fc3:	89 54 24 08          	mov    %edx,0x8(%esp)
c0105fc7:	89 4c 24 04          	mov    %ecx,0x4(%esp)
c0105fcb:	89 04 24             	mov    %eax,(%esp)
c0105fce:	e8 0c 3c 00 00       	call   c0109bdf <memmove>
c0105fd3:	a1 3c f1 10 c0       	mov    0xc010f13c,%eax
c0105fd8:	01 c0                	add    %eax,%eax
c0105fda:	89 c2                	mov    %eax,%edx
c0105fdc:	8b 0d 44 f1 10 c0    	mov    0xc010f144,%ecx
c0105fe2:	a1 38 f1 10 c0       	mov    0xc010f138,%eax
c0105fe7:	8d 1c 00             	lea    (%eax,%eax,1),%ebx
c0105fea:	a1 3c f1 10 c0       	mov    0xc010f13c,%eax
c0105fef:	0f af c3             	imul   %ebx,%eax
c0105ff2:	01 c8                	add    %ecx,%eax
c0105ff4:	89 54 24 08          	mov    %edx,0x8(%esp)
c0105ff8:	c7 44 24 04 00 00 00 	movl   $0x0,0x4(%esp)
c0105fff:	00 
c0106000:	89 04 24             	mov    %eax,(%esp)
c0106003:	e8 59 3d 00 00       	call   c0109d61 <memset>
c0106008:	80 6d e0 01          	subb   $0x1,-0x20(%ebp)
c010600c:	0f b6 45 e4          	movzbl -0x1c(%ebp),%eax
c0106010:	a3 70 10 11 c0       	mov    %eax,0xc0111070
c0106015:	0f b6 45 e0          	movzbl -0x20(%ebp),%eax
c0106019:	a3 74 10 11 c0       	mov    %eax,0xc0111074
c010601e:	0f b6 55 e0          	movzbl -0x20(%ebp),%edx
c0106022:	a1 3c f1 10 c0       	mov    0xc010f13c,%eax
c0106027:	0f af d0             	imul   %eax,%edx
c010602a:	0f b6 45 e4          	movzbl -0x1c(%ebp),%eax
c010602e:	01 d0                	add    %edx,%eax
c0106030:	66 89 45 f6          	mov    %ax,-0xa(%ebp)
c0106034:	8b 15 44 f1 10 c0    	mov    0xc010f144,%edx
c010603a:	0f b7 45 f6          	movzwl -0xa(%ebp),%eax
c010603e:	01 c0                	add    %eax,%eax
c0106040:	01 d0                	add    %edx,%eax
c0106042:	0f b6 00             	movzbl (%eax),%eax
c0106045:	84 c0                	test   %al,%al
c0106047:	75 19                	jne    c0106062 <gotoxy+0xfd>
c0106049:	a1 44 f1 10 c0       	mov    0xc010f144,%eax
c010604e:	0f b7 55 f6          	movzwl -0xa(%ebp),%edx
c0106052:	01 d2                	add    %edx,%edx
c0106054:	83 c2 01             	add    $0x1,%edx
c0106057:	01 c2                	add    %eax,%edx
c0106059:	0f b6 05 40 f1 10 c0 	movzbl 0xc010f140,%eax
c0106060:	88 02                	mov    %al,(%edx)
c0106062:	0f b7 45 f6          	movzwl -0xa(%ebp),%eax
c0106066:	66 c1 e8 08          	shr    $0x8,%ax
c010606a:	0f b6 c0             	movzbl %al,%eax
c010606d:	89 44 24 04          	mov    %eax,0x4(%esp)
c0106071:	c7 04 24 0e 00 00 00 	movl   $0xe,(%esp)
c0106078:	e8 3d 00 00 00       	call   c01060ba <crtc_write>
c010607d:	0f b7 45 f6          	movzwl -0xa(%ebp),%eax
c0106081:	0f b6 c0             	movzbl %al,%eax
c0106084:	89 44 24 04          	mov    %eax,0x4(%esp)
c0106088:	c7 04 24 0f 00 00 00 	movl   $0xf,(%esp)
c010608f:	e8 26 00 00 00       	call   c01060ba <crtc_write>
c0106094:	83 c4 34             	add    $0x34,%esp
c0106097:	5b                   	pop    %ebx
c0106098:	5d                   	pop    %ebp
c0106099:	c3                   	ret    
	...

c010609c <outb>:
c010609c:	55                   	push   %ebp
c010609d:	89 e5                	mov    %esp,%ebp
c010609f:	83 ec 08             	sub    $0x8,%esp
c01060a2:	8b 55 08             	mov    0x8(%ebp),%edx
c01060a5:	8b 45 0c             	mov    0xc(%ebp),%eax
c01060a8:	66 89 55 fc          	mov    %dx,-0x4(%ebp)
c01060ac:	88 45 f8             	mov    %al,-0x8(%ebp)
c01060af:	0f b7 55 fc          	movzwl -0x4(%ebp),%edx
c01060b3:	0f b6 45 f8          	movzbl -0x8(%ebp),%eax
c01060b7:	ee                   	out    %al,(%dx)
c01060b8:	c9                   	leave  
c01060b9:	c3                   	ret    

c01060ba <crtc_write>:
c01060ba:	55                   	push   %ebp
c01060bb:	89 e5                	mov    %esp,%ebp
c01060bd:	83 ec 10             	sub    $0x10,%esp
c01060c0:	8b 55 08             	mov    0x8(%ebp),%edx
c01060c3:	8b 45 0c             	mov    0xc(%ebp),%eax
c01060c6:	88 55 fc             	mov    %dl,-0x4(%ebp)
c01060c9:	88 45 f8             	mov    %al,-0x8(%ebp)
c01060cc:	0f b6 45 fc          	movzbl -0x4(%ebp),%eax
c01060d0:	89 44 24 04          	mov    %eax,0x4(%esp)
c01060d4:	c7 04 24 d4 03 00 00 	movl   $0x3d4,(%esp)
c01060db:	e8 bc ff ff ff       	call   c010609c <outb>
c01060e0:	0f b6 45 f8          	movzbl -0x8(%ebp),%eax
c01060e4:	89 44 24 04          	mov    %eax,0x4(%esp)
c01060e8:	c7 04 24 d5 03 00 00 	movl   $0x3d5,(%esp)
c01060ef:	e8 a8 ff ff ff       	call   c010609c <outb>
c01060f4:	c9                   	leave  
c01060f5:	c3                   	ret    
	...

c01060f8 <inb>:
c01060f8:	55                   	push   %ebp
c01060f9:	89 e5                	mov    %esp,%ebp
c01060fb:	53                   	push   %ebx
c01060fc:	83 ec 14             	sub    $0x14,%esp
c01060ff:	8b 45 08             	mov    0x8(%ebp),%eax
c0106102:	66 89 45 e8          	mov    %ax,-0x18(%ebp)
c0106106:	0f b7 55 e8          	movzwl -0x18(%ebp),%edx
c010610a:	66 89 55 ea          	mov    %dx,-0x16(%ebp)
c010610e:	0f b7 55 ea          	movzwl -0x16(%ebp),%edx
c0106112:	ec                   	in     (%dx),%al
c0106113:	89 c3                	mov    %eax,%ebx
c0106115:	88 5d fb             	mov    %bl,-0x5(%ebp)
c0106118:	0f b6 45 fb          	movzbl -0x5(%ebp),%eax
c010611c:	83 c4 14             	add    $0x14,%esp
c010611f:	5b                   	pop    %ebx
c0106120:	5d                   	pop    %ebp
c0106121:	c3                   	ret    

c0106122 <outb>:
c0106122:	55                   	push   %ebp
c0106123:	89 e5                	mov    %esp,%ebp
c0106125:	83 ec 08             	sub    $0x8,%esp
c0106128:	8b 55 08             	mov    0x8(%ebp),%edx
c010612b:	8b 45 0c             	mov    0xc(%ebp),%eax
c010612e:	66 89 55 fc          	mov    %dx,-0x4(%ebp)
c0106132:	88 45 f8             	mov    %al,-0x8(%ebp)
c0106135:	0f b7 55 fc          	movzwl -0x4(%ebp),%edx
c0106139:	0f b6 45 f8          	movzbl -0x8(%ebp),%eax
c010613d:	ee                   	out    %al,(%dx)
c010613e:	c9                   	leave  
c010613f:	c3                   	ret    

c0106140 <sound_on>:
c0106140:	55                   	push   %ebp
c0106141:	89 e5                	mov    %esp,%ebp
c0106143:	83 ec 08             	sub    $0x8,%esp
c0106146:	c7 04 24 61 00 00 00 	movl   $0x61,(%esp)
c010614d:	e8 a6 ff ff ff       	call   c01060f8 <inb>
c0106152:	83 c8 03             	or     $0x3,%eax
c0106155:	0f b6 c0             	movzbl %al,%eax
c0106158:	89 44 24 04          	mov    %eax,0x4(%esp)
c010615c:	c7 04 24 61 00 00 00 	movl   $0x61,(%esp)
c0106163:	e8 ba ff ff ff       	call   c0106122 <outb>
c0106168:	c9                   	leave  
c0106169:	c3                   	ret    

c010616a <sound_off>:
c010616a:	55                   	push   %ebp
c010616b:	89 e5                	mov    %esp,%ebp
c010616d:	83 ec 08             	sub    $0x8,%esp
c0106170:	c7 04 24 61 00 00 00 	movl   $0x61,(%esp)
c0106177:	e8 7c ff ff ff       	call   c01060f8 <inb>
c010617c:	0f b6 c0             	movzbl %al,%eax
c010617f:	25 fc 00 00 00       	and    $0xfc,%eax
c0106184:	89 44 24 04          	mov    %eax,0x4(%esp)
c0106188:	c7 04 24 61 00 00 00 	movl   $0x61,(%esp)
c010618f:	e8 8e ff ff ff       	call   c0106122 <outb>
c0106194:	c9                   	leave  
c0106195:	c3                   	ret    

c0106196 <sound>:
c0106196:	55                   	push   %ebp
c0106197:	89 e5                	mov    %esp,%ebp
c0106199:	83 ec 18             	sub    $0x18,%esp
c010619c:	b8 dc 34 12 00       	mov    $0x1234dc,%eax
c01061a1:	ba 00 00 00 00       	mov    $0x0,%edx
c01061a6:	f7 75 08             	divl   0x8(%ebp)
c01061a9:	66 89 45 fa          	mov    %ax,-0x6(%ebp)
c01061ad:	c7 44 24 04 b6 00 00 	movl   $0xb6,0x4(%esp)
c01061b4:	00 
c01061b5:	c7 04 24 43 00 00 00 	movl   $0x43,(%esp)
c01061bc:	e8 61 ff ff ff       	call   c0106122 <outb>
c01061c1:	0f b7 45 fa          	movzwl -0x6(%ebp),%eax
c01061c5:	0f b6 c0             	movzbl %al,%eax
c01061c8:	89 44 24 04          	mov    %eax,0x4(%esp)
c01061cc:	c7 04 24 42 00 00 00 	movl   $0x42,(%esp)
c01061d3:	e8 4a ff ff ff       	call   c0106122 <outb>
c01061d8:	0f b7 45 fa          	movzwl -0x6(%ebp),%eax
c01061dc:	66 c1 e8 08          	shr    $0x8,%ax
c01061e0:	0f b6 c0             	movzbl %al,%eax
c01061e3:	89 44 24 04          	mov    %eax,0x4(%esp)
c01061e7:	c7 04 24 42 00 00 00 	movl   $0x42,(%esp)
c01061ee:	e8 2f ff ff ff       	call   c0106122 <outb>
c01061f3:	e8 48 ff ff ff       	call   c0106140 <sound_on>
c01061f8:	c7 45 fc 00 00 00 00 	movl   $0x0,-0x4(%ebp)
c01061ff:	eb 04                	jmp    c0106205 <sound+0x6f>
c0106201:	83 45 fc 01          	addl   $0x1,-0x4(%ebp)
c0106205:	8b 55 fc             	mov    -0x4(%ebp),%edx
c0106208:	8b 45 0c             	mov    0xc(%ebp),%eax
c010620b:	69 c0 10 27 00 00    	imul   $0x2710,%eax,%eax
c0106211:	39 c2                	cmp    %eax,%edx
c0106213:	72 ec                	jb     c0106201 <sound+0x6b>
c0106215:	e8 50 ff ff ff       	call   c010616a <sound_off>
c010621a:	c9                   	leave  
c010621b:	c3                   	ret    

c010621c <inb>:
c010621c:	55                   	push   %ebp
c010621d:	89 e5                	mov    %esp,%ebp
c010621f:	53                   	push   %ebx
c0106220:	83 ec 14             	sub    $0x14,%esp
c0106223:	8b 45 08             	mov    0x8(%ebp),%eax
c0106226:	66 89 45 e8          	mov    %ax,-0x18(%ebp)
c010622a:	0f b7 55 e8          	movzwl -0x18(%ebp),%edx
c010622e:	66 89 55 ea          	mov    %dx,-0x16(%ebp)
c0106232:	0f b7 55 ea          	movzwl -0x16(%ebp),%edx
c0106236:	ec                   	in     (%dx),%al
c0106237:	89 c3                	mov    %eax,%ebx
c0106239:	88 5d fb             	mov    %bl,-0x5(%ebp)
c010623c:	0f b6 45 fb          	movzbl -0x5(%ebp),%eax
c0106240:	83 c4 14             	add    $0x14,%esp
c0106243:	5b                   	pop    %ebx
c0106244:	5d                   	pop    %ebp
c0106245:	c3                   	ret    

c0106246 <outb>:
c0106246:	55                   	push   %ebp
c0106247:	89 e5                	mov    %esp,%ebp
c0106249:	83 ec 08             	sub    $0x8,%esp
c010624c:	8b 55 08             	mov    0x8(%ebp),%edx
c010624f:	8b 45 0c             	mov    0xc(%ebp),%eax
c0106252:	66 89 55 fc          	mov    %dx,-0x4(%ebp)
c0106256:	88 45 f8             	mov    %al,-0x8(%ebp)
c0106259:	0f b7 55 fc          	movzwl -0x4(%ebp),%edx
c010625d:	0f b6 45 f8          	movzbl -0x8(%ebp),%eax
c0106261:	ee                   	out    %al,(%dx)
c0106262:	c9                   	leave  
c0106263:	c3                   	ret    

c0106264 <send_kbc_command>:
c0106264:	55                   	push   %ebp
c0106265:	89 e5                	mov    %esp,%ebp
c0106267:	83 ec 10             	sub    $0x10,%esp
c010626a:	8b 55 08             	mov    0x8(%ebp),%edx
c010626d:	8b 45 0c             	mov    0xc(%ebp),%eax
c0106270:	88 55 fc             	mov    %dl,-0x4(%ebp)
c0106273:	88 45 f8             	mov    %al,-0x8(%ebp)
c0106276:	90                   	nop
c0106277:	c7 04 24 64 00 00 00 	movl   $0x64,(%esp)
c010627e:	e8 99 ff ff ff       	call   c010621c <inb>
c0106283:	0f b6 c0             	movzbl %al,%eax
c0106286:	83 e0 02             	and    $0x2,%eax
c0106289:	85 c0                	test   %eax,%eax
c010628b:	75 ea                	jne    c0106277 <send_kbc_command+0x13>
c010628d:	0f b6 55 f8          	movzbl -0x8(%ebp),%edx
c0106291:	0f b6 45 fc          	movzbl -0x4(%ebp),%eax
c0106295:	89 54 24 04          	mov    %edx,0x4(%esp)
c0106299:	89 04 24             	mov    %eax,(%esp)
c010629c:	e8 a5 ff ff ff       	call   c0106246 <outb>
c01062a1:	90                   	nop
c01062a2:	c7 04 24 60 00 00 00 	movl   $0x60,(%esp)
c01062a9:	e8 6e ff ff ff       	call   c010621c <inb>
c01062ae:	3c fa                	cmp    $0xfa,%al
c01062b0:	75 f0                	jne    c01062a2 <send_kbc_command+0x3e>
c01062b2:	c9                   	leave  
c01062b3:	c3                   	ret    

c01062b4 <send_kbd_command>:
c01062b4:	55                   	push   %ebp
c01062b5:	89 e5                	mov    %esp,%ebp
c01062b7:	83 ec 0c             	sub    $0xc,%esp
c01062ba:	8b 45 08             	mov    0x8(%ebp),%eax
c01062bd:	88 45 fc             	mov    %al,-0x4(%ebp)
c01062c0:	0f b6 45 fc          	movzbl -0x4(%ebp),%eax
c01062c4:	89 44 24 04          	mov    %eax,0x4(%esp)
c01062c8:	c7 04 24 60 00 00 00 	movl   $0x60,(%esp)
c01062cf:	e8 90 ff ff ff       	call   c0106264 <send_kbc_command>
c01062d4:	c9                   	leave  
c01062d5:	c3                   	ret    

c01062d6 <INIT_KEYBOARD>:
c01062d6:	55                   	push   %ebp
c01062d7:	89 e5                	mov    %esp,%ebp
c01062d9:	83 ec 18             	sub    $0x18,%esp
c01062dc:	c7 44 24 04 39 63 10 	movl   $0xc0106339,0x4(%esp)
c01062e3:	c0 
c01062e4:	c7 04 24 01 00 00 00 	movl   $0x1,(%esp)
c01062eb:	e8 86 25 00 00       	call   c0108876 <install_irq>
c01062f0:	90                   	nop
c01062f1:	c7 04 24 64 00 00 00 	movl   $0x64,(%esp)
c01062f8:	e8 1f ff ff ff       	call   c010621c <inb>
c01062fd:	0f b6 c0             	movzbl %al,%eax
c0106300:	83 e0 04             	and    $0x4,%eax
c0106303:	85 c0                	test   %eax,%eax
c0106305:	74 ea                	je     c01062f1 <INIT_KEYBOARD+0x1b>
c0106307:	eb 0c                	jmp    c0106315 <INIT_KEYBOARD+0x3f>
c0106309:	c7 04 24 60 00 00 00 	movl   $0x60,(%esp)
c0106310:	e8 07 ff ff ff       	call   c010621c <inb>
c0106315:	c7 04 24 64 00 00 00 	movl   $0x64,(%esp)
c010631c:	e8 fb fe ff ff       	call   c010621c <inb>
c0106321:	0f b6 c0             	movzbl %al,%eax
c0106324:	83 e0 01             	and    $0x1,%eax
c0106327:	84 c0                	test   %al,%al
c0106329:	75 de                	jne    c0106309 <INIT_KEYBOARD+0x33>
c010632b:	c7 04 24 f4 00 00 00 	movl   $0xf4,(%esp)
c0106332:	e8 7d ff ff ff       	call   c01062b4 <send_kbd_command>
c0106337:	c9                   	leave  
c0106338:	c3                   	ret    

c0106339 <kbd_irq_handler>:
c0106339:	55                   	push   %ebp
c010633a:	89 e5                	mov    %esp,%ebp
c010633c:	83 ec 28             	sub    $0x28,%esp
c010633f:	c6 45 f6 00          	movb   $0x0,-0xa(%ebp)
c0106343:	c6 45 f7 00          	movb   $0x0,-0x9(%ebp)
c0106347:	e9 f6 00 00 00       	jmp    c0106442 <kbd_irq_handler+0x109>
c010634c:	c7 04 24 60 00 00 00 	movl   $0x60,(%esp)
c0106353:	e8 c4 fe ff ff       	call   c010621c <inb>
c0106358:	88 45 f6             	mov    %al,-0xa(%ebp)
c010635b:	80 7d f6 c5          	cmpb   $0xc5,-0xa(%ebp)
c010635f:	75 17                	jne    c0106378 <kbd_irq_handler+0x3f>
c0106361:	a1 7c 10 11 c0       	mov    0xc011107c,%eax
c0106366:	85 c0                	test   %eax,%eax
c0106368:	0f 94 c0             	sete   %al
c010636b:	0f b6 c0             	movzbl %al,%eax
c010636e:	a3 7c 10 11 c0       	mov    %eax,0xc011107c
c0106373:	e9 ca 00 00 00       	jmp    c0106442 <kbd_irq_handler+0x109>
c0106378:	80 7d f6 3a          	cmpb   $0x3a,-0xa(%ebp)
c010637c:	75 17                	jne    c0106395 <kbd_irq_handler+0x5c>
c010637e:	a1 80 10 11 c0       	mov    0xc0111080,%eax
c0106383:	85 c0                	test   %eax,%eax
c0106385:	0f 94 c0             	sete   %al
c0106388:	0f b6 c0             	movzbl %al,%eax
c010638b:	a3 80 10 11 c0       	mov    %eax,0xc0111080
c0106390:	e9 ad 00 00 00       	jmp    c0106442 <kbd_irq_handler+0x109>
c0106395:	0f b6 45 f6          	movzbl -0xa(%ebp),%eax
c0106399:	84 c0                	test   %al,%al
c010639b:	79 23                	jns    c01063c0 <kbd_irq_handler+0x87>
c010639d:	80 65 f6 7f          	andb   $0x7f,-0xa(%ebp)
c01063a1:	80 7d f6 2a          	cmpb   $0x2a,-0xa(%ebp)
c01063a5:	74 0a                	je     c01063b1 <kbd_irq_handler+0x78>
c01063a7:	80 7d f6 36          	cmpb   $0x36,-0xa(%ebp)
c01063ab:	0f 85 90 00 00 00    	jne    c0106441 <kbd_irq_handler+0x108>
c01063b1:	c7 05 78 10 11 c0 00 	movl   $0x0,0xc0111078
c01063b8:	00 00 00 
c01063bb:	e9 81 00 00 00       	jmp    c0106441 <kbd_irq_handler+0x108>
c01063c0:	80 7d f6 2a          	cmpb   $0x2a,-0xa(%ebp)
c01063c4:	74 06                	je     c01063cc <kbd_irq_handler+0x93>
c01063c6:	80 7d f6 36          	cmpb   $0x36,-0xa(%ebp)
c01063ca:	75 0c                	jne    c01063d8 <kbd_irq_handler+0x9f>
c01063cc:	c7 05 78 10 11 c0 01 	movl   $0x1,0xc0111078
c01063d3:	00 00 00 
c01063d6:	eb 6a                	jmp    c0106442 <kbd_irq_handler+0x109>
c01063d8:	80 7d f6 46          	cmpb   $0x46,-0xa(%ebp)
c01063dc:	76 31                	jbe    c010640f <kbd_irq_handler+0xd6>
c01063de:	80 7d f6 54          	cmpb   $0x54,-0xa(%ebp)
c01063e2:	77 2b                	ja     c010640f <kbd_irq_handler+0xd6>
c01063e4:	80 7d f6 4a          	cmpb   $0x4a,-0xa(%ebp)
c01063e8:	74 25                	je     c010640f <kbd_irq_handler+0xd6>
c01063ea:	80 7d f6 4c          	cmpb   $0x4c,-0xa(%ebp)
c01063ee:	74 1f                	je     c010640f <kbd_irq_handler+0xd6>
c01063f0:	80 7d f6 4e          	cmpb   $0x4e,-0xa(%ebp)
c01063f4:	74 19                	je     c010640f <kbd_irq_handler+0xd6>
c01063f6:	a1 7c 10 11 c0       	mov    0xc011107c,%eax
c01063fb:	85 c0                	test   %eax,%eax
c01063fd:	74 10                	je     c010640f <kbd_irq_handler+0xd6>
c01063ff:	0f b6 45 f6          	movzbl -0xa(%ebp),%eax
c0106403:	0f b6 80 c0 f1 10 c0 	movzbl -0x3fef0e40(%eax),%eax
c010640a:	88 45 f7             	mov    %al,-0x9(%ebp)
c010640d:	eb 33                	jmp    c0106442 <kbd_irq_handler+0x109>
c010640f:	a1 78 10 11 c0       	mov    0xc0111078,%eax
c0106414:	85 c0                	test   %eax,%eax
c0106416:	75 09                	jne    c0106421 <kbd_irq_handler+0xe8>
c0106418:	a1 80 10 11 c0       	mov    0xc0111080,%eax
c010641d:	85 c0                	test   %eax,%eax
c010641f:	74 10                	je     c0106431 <kbd_irq_handler+0xf8>
c0106421:	0f b6 45 f6          	movzbl -0xa(%ebp),%eax
c0106425:	0f b6 80 c0 f1 10 c0 	movzbl -0x3fef0e40(%eax),%eax
c010642c:	88 45 f7             	mov    %al,-0x9(%ebp)
c010642f:	eb 11                	jmp    c0106442 <kbd_irq_handler+0x109>
c0106431:	0f b6 45 f6          	movzbl -0xa(%ebp),%eax
c0106435:	0f b6 80 60 f1 10 c0 	movzbl -0x3fef0ea0(%eax),%eax
c010643c:	88 45 f7             	mov    %al,-0x9(%ebp)
c010643f:	eb 01                	jmp    c0106442 <kbd_irq_handler+0x109>
c0106441:	90                   	nop
c0106442:	c7 04 24 64 00 00 00 	movl   $0x64,(%esp)
c0106449:	e8 ce fd ff ff       	call   c010621c <inb>
c010644e:	0f b6 c0             	movzbl %al,%eax
c0106451:	83 e0 01             	and    $0x1,%eax
c0106454:	84 c0                	test   %al,%al
c0106456:	0f 85 f0 fe ff ff    	jne    c010634c <kbd_irq_handler+0x13>
c010645c:	c7 04 24 78 00 00 00 	movl   $0x78,(%esp)
c0106463:	e8 a0 f8 ff ff       	call   c0105d08 <putchar>
c0106468:	80 7d f7 00          	cmpb   $0x0,-0x9(%ebp)
c010646c:	74 60                	je     c01064ce <kbd_irq_handler+0x195>
c010646e:	a1 20 f2 10 c0       	mov    0xc010f220,%eax
c0106473:	0f b6 55 f7          	movzbl -0x9(%ebp),%edx
c0106477:	88 10                	mov    %dl,(%eax)
c0106479:	a1 20 f2 10 c0       	mov    0xc010f220,%eax
c010647e:	83 c0 01             	add    $0x1,%eax
c0106481:	a3 20 f2 10 c0       	mov    %eax,0xc010f220
c0106486:	a1 20 f2 10 c0       	mov    0xc010f220,%eax
c010648b:	3d c0 32 11 c0       	cmp    $0xc01132c0,%eax
c0106490:	75 0a                	jne    c010649c <kbd_irq_handler+0x163>
c0106492:	c7 05 20 f2 10 c0 c0 	movl   $0xc01130c0,0xc010f220
c0106499:	30 11 c0 
c010649c:	a1 1c f2 10 c0       	mov    0xc010f21c,%eax
c01064a1:	3d c0 32 11 c0       	cmp    $0xc01132c0,%eax
c01064a6:	75 0a                	jne    c01064b2 <kbd_irq_handler+0x179>
c01064a8:	c7 05 1c f2 10 c0 c0 	movl   $0xc01130c0,0xc010f21c
c01064af:	30 11 c0 
c01064b2:	8b 15 20 f2 10 c0    	mov    0xc010f220,%edx
c01064b8:	a1 1c f2 10 c0       	mov    0xc010f21c,%eax
c01064bd:	39 c2                	cmp    %eax,%edx
c01064bf:	75 0d                	jne    c01064ce <kbd_irq_handler+0x195>
c01064c1:	a1 1c f2 10 c0       	mov    0xc010f21c,%eax
c01064c6:	83 c0 01             	add    $0x1,%eax
c01064c9:	a3 1c f2 10 c0       	mov    %eax,0xc010f21c
c01064ce:	c9                   	leave  
c01064cf:	c3                   	ret    

c01064d0 <input>:
c01064d0:	55                   	push   %ebp
c01064d1:	89 e5                	mov    %esp,%ebp
c01064d3:	a1 1c f2 10 c0       	mov    0xc010f21c,%eax
c01064d8:	3d c0 32 11 c0       	cmp    $0xc01132c0,%eax
c01064dd:	75 0a                	jne    c01064e9 <input+0x19>
c01064df:	c7 05 1c f2 10 c0 c0 	movl   $0xc01130c0,0xc010f21c
c01064e6:	30 11 c0 
c01064e9:	90                   	nop
c01064ea:	8b 15 1c f2 10 c0    	mov    0xc010f21c,%edx
c01064f0:	a1 20 f2 10 c0       	mov    0xc010f220,%eax
c01064f5:	39 c2                	cmp    %eax,%edx
c01064f7:	74 f1                	je     c01064ea <input+0x1a>
c01064f9:	a1 1c f2 10 c0       	mov    0xc010f21c,%eax
c01064fe:	0f b6 10             	movzbl (%eax),%edx
c0106501:	83 c0 01             	add    $0x1,%eax
c0106504:	a3 1c f2 10 c0       	mov    %eax,0xc010f21c
c0106509:	89 d0                	mov    %edx,%eax
c010650b:	5d                   	pop    %ebp
c010650c:	c3                   	ret    

c010650d <seek_head>:
c010650d:	55                   	push   %ebp
c010650e:	89 e5                	mov    %esp,%ebp
c0106510:	a1 20 f2 10 c0       	mov    0xc010f220,%eax
c0106515:	a3 1c f2 10 c0       	mov    %eax,0xc010f21c
c010651a:	5d                   	pop    %ebp
c010651b:	c3                   	ret    

c010651c <inl>:
c010651c:	55                   	push   %ebp
c010651d:	89 e5                	mov    %esp,%ebp
c010651f:	53                   	push   %ebx
c0106520:	83 ec 14             	sub    $0x14,%esp
c0106523:	8b 45 08             	mov    0x8(%ebp),%eax
c0106526:	66 89 45 e8          	mov    %ax,-0x18(%ebp)
c010652a:	0f b7 55 e8          	movzwl -0x18(%ebp),%edx
c010652e:	66 89 55 ea          	mov    %dx,-0x16(%ebp)
c0106532:	0f b7 55 ea          	movzwl -0x16(%ebp),%edx
c0106536:	ed                   	in     (%dx),%eax
c0106537:	89 c3                	mov    %eax,%ebx
c0106539:	89 5d f8             	mov    %ebx,-0x8(%ebp)
c010653c:	8b 45 f8             	mov    -0x8(%ebp),%eax
c010653f:	83 c4 14             	add    $0x14,%esp
c0106542:	5b                   	pop    %ebx
c0106543:	5d                   	pop    %ebp
c0106544:	c3                   	ret    

c0106545 <outb>:
c0106545:	55                   	push   %ebp
c0106546:	89 e5                	mov    %esp,%ebp
c0106548:	83 ec 08             	sub    $0x8,%esp
c010654b:	8b 55 08             	mov    0x8(%ebp),%edx
c010654e:	8b 45 0c             	mov    0xc(%ebp),%eax
c0106551:	66 89 55 fc          	mov    %dx,-0x4(%ebp)
c0106555:	88 45 f8             	mov    %al,-0x8(%ebp)
c0106558:	0f b7 55 fc          	movzwl -0x4(%ebp),%edx
c010655c:	0f b6 45 f8          	movzbl -0x8(%ebp),%eax
c0106560:	ee                   	out    %al,(%dx)
c0106561:	c9                   	leave  
c0106562:	c3                   	ret    

c0106563 <outw>:
c0106563:	55                   	push   %ebp
c0106564:	89 e5                	mov    %esp,%ebp
c0106566:	83 ec 08             	sub    $0x8,%esp
c0106569:	8b 55 08             	mov    0x8(%ebp),%edx
c010656c:	8b 45 0c             	mov    0xc(%ebp),%eax
c010656f:	66 89 55 fc          	mov    %dx,-0x4(%ebp)
c0106573:	66 89 45 f8          	mov    %ax,-0x8(%ebp)
c0106577:	0f b7 55 fc          	movzwl -0x4(%ebp),%edx
c010657b:	0f b7 45 f8          	movzwl -0x8(%ebp),%eax
c010657f:	66 ef                	out    %ax,(%dx)
c0106581:	c9                   	leave  
c0106582:	c3                   	ret    

c0106583 <outl>:
c0106583:	55                   	push   %ebp
c0106584:	89 e5                	mov    %esp,%ebp
c0106586:	83 ec 04             	sub    $0x4,%esp
c0106589:	8b 45 08             	mov    0x8(%ebp),%eax
c010658c:	66 89 45 fc          	mov    %ax,-0x4(%ebp)
c0106590:	0f b7 55 fc          	movzwl -0x4(%ebp),%edx
c0106594:	8b 45 0c             	mov    0xc(%ebp),%eax
c0106597:	ef                   	out    %eax,(%dx)
c0106598:	c9                   	leave  
c0106599:	c3                   	ret    

c010659a <pci_read>:
c010659a:	55                   	push   %ebp
c010659b:	89 e5                	mov    %esp,%ebp
c010659d:	53                   	push   %ebx
c010659e:	83 ec 18             	sub    $0x18,%esp
c01065a1:	8b 5d 08             	mov    0x8(%ebp),%ebx
c01065a4:	8b 4d 0c             	mov    0xc(%ebp),%ecx
c01065a7:	8b 55 10             	mov    0x10(%ebp),%edx
c01065aa:	8b 45 14             	mov    0x14(%ebp),%eax
c01065ad:	88 5d f8             	mov    %bl,-0x8(%ebp)
c01065b0:	88 4d f4             	mov    %cl,-0xc(%ebp)
c01065b3:	88 55 f0             	mov    %dl,-0x10(%ebp)
c01065b6:	88 45 ec             	mov    %al,-0x14(%ebp)
c01065b9:	0f b6 45 f8          	movzbl -0x8(%ebp),%eax
c01065bd:	c1 e0 10             	shl    $0x10,%eax
c01065c0:	89 c2                	mov    %eax,%edx
c01065c2:	0f b6 45 f4          	movzbl -0xc(%ebp),%eax
c01065c6:	c1 e0 0b             	shl    $0xb,%eax
c01065c9:	09 c2                	or     %eax,%edx
c01065cb:	0f b6 45 f0          	movzbl -0x10(%ebp),%eax
c01065cf:	c1 e0 08             	shl    $0x8,%eax
c01065d2:	09 c2                	or     %eax,%edx
c01065d4:	0f b6 45 ec          	movzbl -0x14(%ebp),%eax
c01065d8:	25 fc 00 00 00       	and    $0xfc,%eax
c01065dd:	09 d0                	or     %edx,%eax
c01065df:	0d 00 00 00 80       	or     $0x80000000,%eax
c01065e4:	89 44 24 04          	mov    %eax,0x4(%esp)
c01065e8:	c7 04 24 f8 0c 00 00 	movl   $0xcf8,(%esp)
c01065ef:	e8 8f ff ff ff       	call   c0106583 <outl>
c01065f4:	c7 04 24 fc 0c 00 00 	movl   $0xcfc,(%esp)
c01065fb:	e8 1c ff ff ff       	call   c010651c <inl>
c0106600:	0f b6 55 ec          	movzbl -0x14(%ebp),%edx
c0106604:	83 e2 03             	and    $0x3,%edx
c0106607:	c1 e2 03             	shl    $0x3,%edx
c010660a:	89 d1                	mov    %edx,%ecx
c010660c:	d3 e8                	shr    %cl,%eax
c010660e:	83 c4 18             	add    $0x18,%esp
c0106611:	5b                   	pop    %ebx
c0106612:	5d                   	pop    %ebp
c0106613:	c3                   	ret    

c0106614 <pci_readb>:
c0106614:	55                   	push   %ebp
c0106615:	89 e5                	mov    %esp,%ebp
c0106617:	53                   	push   %ebx
c0106618:	83 ec 20             	sub    $0x20,%esp
c010661b:	8b 5d 08             	mov    0x8(%ebp),%ebx
c010661e:	8b 4d 0c             	mov    0xc(%ebp),%ecx
c0106621:	8b 55 10             	mov    0x10(%ebp),%edx
c0106624:	8b 45 14             	mov    0x14(%ebp),%eax
c0106627:	88 5d f8             	mov    %bl,-0x8(%ebp)
c010662a:	88 4d f4             	mov    %cl,-0xc(%ebp)
c010662d:	88 55 f0             	mov    %dl,-0x10(%ebp)
c0106630:	88 45 ec             	mov    %al,-0x14(%ebp)
c0106633:	0f b6 5d ec          	movzbl -0x14(%ebp),%ebx
c0106637:	0f b6 4d f0          	movzbl -0x10(%ebp),%ecx
c010663b:	0f b6 55 f4          	movzbl -0xc(%ebp),%edx
c010663f:	0f b6 45 f8          	movzbl -0x8(%ebp),%eax
c0106643:	89 5c 24 0c          	mov    %ebx,0xc(%esp)
c0106647:	89 4c 24 08          	mov    %ecx,0x8(%esp)
c010664b:	89 54 24 04          	mov    %edx,0x4(%esp)
c010664f:	89 04 24             	mov    %eax,(%esp)
c0106652:	e8 43 ff ff ff       	call   c010659a <pci_read>
c0106657:	83 c4 20             	add    $0x20,%esp
c010665a:	5b                   	pop    %ebx
c010665b:	5d                   	pop    %ebp
c010665c:	c3                   	ret    

c010665d <pci_readw>:
c010665d:	55                   	push   %ebp
c010665e:	89 e5                	mov    %esp,%ebp
c0106660:	53                   	push   %ebx
c0106661:	83 ec 20             	sub    $0x20,%esp
c0106664:	8b 5d 08             	mov    0x8(%ebp),%ebx
c0106667:	8b 4d 0c             	mov    0xc(%ebp),%ecx
c010666a:	8b 55 10             	mov    0x10(%ebp),%edx
c010666d:	8b 45 14             	mov    0x14(%ebp),%eax
c0106670:	88 5d f8             	mov    %bl,-0x8(%ebp)
c0106673:	88 4d f4             	mov    %cl,-0xc(%ebp)
c0106676:	88 55 f0             	mov    %dl,-0x10(%ebp)
c0106679:	88 45 ec             	mov    %al,-0x14(%ebp)
c010667c:	0f b6 5d ec          	movzbl -0x14(%ebp),%ebx
c0106680:	0f b6 4d f0          	movzbl -0x10(%ebp),%ecx
c0106684:	0f b6 55 f4          	movzbl -0xc(%ebp),%edx
c0106688:	0f b6 45 f8          	movzbl -0x8(%ebp),%eax
c010668c:	89 5c 24 0c          	mov    %ebx,0xc(%esp)
c0106690:	89 4c 24 08          	mov    %ecx,0x8(%esp)
c0106694:	89 54 24 04          	mov    %edx,0x4(%esp)
c0106698:	89 04 24             	mov    %eax,(%esp)
c010669b:	e8 fa fe ff ff       	call   c010659a <pci_read>
c01066a0:	83 c4 20             	add    $0x20,%esp
c01066a3:	5b                   	pop    %ebx
c01066a4:	5d                   	pop    %ebp
c01066a5:	c3                   	ret    

c01066a6 <pci_readl>:
c01066a6:	55                   	push   %ebp
c01066a7:	89 e5                	mov    %esp,%ebp
c01066a9:	53                   	push   %ebx
c01066aa:	83 ec 20             	sub    $0x20,%esp
c01066ad:	8b 5d 08             	mov    0x8(%ebp),%ebx
c01066b0:	8b 4d 0c             	mov    0xc(%ebp),%ecx
c01066b3:	8b 55 10             	mov    0x10(%ebp),%edx
c01066b6:	8b 45 14             	mov    0x14(%ebp),%eax
c01066b9:	88 5d f8             	mov    %bl,-0x8(%ebp)
c01066bc:	88 4d f4             	mov    %cl,-0xc(%ebp)
c01066bf:	88 55 f0             	mov    %dl,-0x10(%ebp)
c01066c2:	88 45 ec             	mov    %al,-0x14(%ebp)
c01066c5:	0f b6 5d ec          	movzbl -0x14(%ebp),%ebx
c01066c9:	0f b6 4d f0          	movzbl -0x10(%ebp),%ecx
c01066cd:	0f b6 55 f4          	movzbl -0xc(%ebp),%edx
c01066d1:	0f b6 45 f8          	movzbl -0x8(%ebp),%eax
c01066d5:	89 5c 24 0c          	mov    %ebx,0xc(%esp)
c01066d9:	89 4c 24 08          	mov    %ecx,0x8(%esp)
c01066dd:	89 54 24 04          	mov    %edx,0x4(%esp)
c01066e1:	89 04 24             	mov    %eax,(%esp)
c01066e4:	e8 b1 fe ff ff       	call   c010659a <pci_read>
c01066e9:	83 c4 20             	add    $0x20,%esp
c01066ec:	5b                   	pop    %ebx
c01066ed:	5d                   	pop    %ebp
c01066ee:	c3                   	ret    

c01066ef <pci_writeb>:
c01066ef:	55                   	push   %ebp
c01066f0:	89 e5                	mov    %esp,%ebp
c01066f2:	56                   	push   %esi
c01066f3:	53                   	push   %ebx
c01066f4:	83 ec 20             	sub    $0x20,%esp
c01066f7:	8b 75 08             	mov    0x8(%ebp),%esi
c01066fa:	8b 5d 0c             	mov    0xc(%ebp),%ebx
c01066fd:	8b 4d 10             	mov    0x10(%ebp),%ecx
c0106700:	8b 55 14             	mov    0x14(%ebp),%edx
c0106703:	8b 45 18             	mov    0x18(%ebp),%eax
c0106706:	89 45 e0             	mov    %eax,-0x20(%ebp)
c0106709:	89 f0                	mov    %esi,%eax
c010670b:	88 45 f4             	mov    %al,-0xc(%ebp)
c010670e:	88 5d f0             	mov    %bl,-0x10(%ebp)
c0106711:	88 4d ec             	mov    %cl,-0x14(%ebp)
c0106714:	88 55 e8             	mov    %dl,-0x18(%ebp)
c0106717:	0f b6 45 e0          	movzbl -0x20(%ebp),%eax
c010671b:	88 45 e4             	mov    %al,-0x1c(%ebp)
c010671e:	0f b6 45 f4          	movzbl -0xc(%ebp),%eax
c0106722:	c1 e0 10             	shl    $0x10,%eax
c0106725:	89 c2                	mov    %eax,%edx
c0106727:	0f b6 45 f0          	movzbl -0x10(%ebp),%eax
c010672b:	c1 e0 0b             	shl    $0xb,%eax
c010672e:	09 c2                	or     %eax,%edx
c0106730:	0f b6 45 ec          	movzbl -0x14(%ebp),%eax
c0106734:	c1 e0 08             	shl    $0x8,%eax
c0106737:	09 c2                	or     %eax,%edx
c0106739:	0f b6 45 e8          	movzbl -0x18(%ebp),%eax
c010673d:	25 fc 00 00 00       	and    $0xfc,%eax
c0106742:	09 d0                	or     %edx,%eax
c0106744:	0d 00 00 00 80       	or     $0x80000000,%eax
c0106749:	89 44 24 04          	mov    %eax,0x4(%esp)
c010674d:	c7 04 24 f8 0c 00 00 	movl   $0xcf8,(%esp)
c0106754:	e8 2a fe ff ff       	call   c0106583 <outl>
c0106759:	0f b6 55 e4          	movzbl -0x1c(%ebp),%edx
c010675d:	0f b6 45 e8          	movzbl -0x18(%ebp),%eax
c0106761:	83 e0 03             	and    $0x3,%eax
c0106764:	66 05 fc 0c          	add    $0xcfc,%ax
c0106768:	0f b7 c0             	movzwl %ax,%eax
c010676b:	89 54 24 04          	mov    %edx,0x4(%esp)
c010676f:	89 04 24             	mov    %eax,(%esp)
c0106772:	e8 ce fd ff ff       	call   c0106545 <outb>
c0106777:	83 c4 20             	add    $0x20,%esp
c010677a:	5b                   	pop    %ebx
c010677b:	5e                   	pop    %esi
c010677c:	5d                   	pop    %ebp
c010677d:	c3                   	ret    

c010677e <pci_writew>:
c010677e:	55                   	push   %ebp
c010677f:	89 e5                	mov    %esp,%ebp
c0106781:	56                   	push   %esi
c0106782:	53                   	push   %ebx
c0106783:	83 ec 20             	sub    $0x20,%esp
c0106786:	8b 75 08             	mov    0x8(%ebp),%esi
c0106789:	8b 5d 0c             	mov    0xc(%ebp),%ebx
c010678c:	8b 4d 10             	mov    0x10(%ebp),%ecx
c010678f:	8b 55 14             	mov    0x14(%ebp),%edx
c0106792:	8b 45 18             	mov    0x18(%ebp),%eax
c0106795:	89 45 e0             	mov    %eax,-0x20(%ebp)
c0106798:	89 f0                	mov    %esi,%eax
c010679a:	88 45 f4             	mov    %al,-0xc(%ebp)
c010679d:	88 5d f0             	mov    %bl,-0x10(%ebp)
c01067a0:	88 4d ec             	mov    %cl,-0x14(%ebp)
c01067a3:	88 55 e8             	mov    %dl,-0x18(%ebp)
c01067a6:	0f b7 45 e0          	movzwl -0x20(%ebp),%eax
c01067aa:	66 89 45 e4          	mov    %ax,-0x1c(%ebp)
c01067ae:	0f b6 45 f4          	movzbl -0xc(%ebp),%eax
c01067b2:	c1 e0 10             	shl    $0x10,%eax
c01067b5:	89 c2                	mov    %eax,%edx
c01067b7:	0f b6 45 f0          	movzbl -0x10(%ebp),%eax
c01067bb:	c1 e0 0b             	shl    $0xb,%eax
c01067be:	09 c2                	or     %eax,%edx
c01067c0:	0f b6 45 ec          	movzbl -0x14(%ebp),%eax
c01067c4:	c1 e0 08             	shl    $0x8,%eax
c01067c7:	09 c2                	or     %eax,%edx
c01067c9:	0f b6 45 e8          	movzbl -0x18(%ebp),%eax
c01067cd:	25 fc 00 00 00       	and    $0xfc,%eax
c01067d2:	09 d0                	or     %edx,%eax
c01067d4:	0d 00 00 00 80       	or     $0x80000000,%eax
c01067d9:	89 44 24 04          	mov    %eax,0x4(%esp)
c01067dd:	c7 04 24 f8 0c 00 00 	movl   $0xcf8,(%esp)
c01067e4:	e8 9a fd ff ff       	call   c0106583 <outl>
c01067e9:	0f b7 55 e4          	movzwl -0x1c(%ebp),%edx
c01067ed:	0f b6 45 e8          	movzbl -0x18(%ebp),%eax
c01067f1:	83 e0 02             	and    $0x2,%eax
c01067f4:	66 05 fc 0c          	add    $0xcfc,%ax
c01067f8:	0f b7 c0             	movzwl %ax,%eax
c01067fb:	89 54 24 04          	mov    %edx,0x4(%esp)
c01067ff:	89 04 24             	mov    %eax,(%esp)
c0106802:	e8 5c fd ff ff       	call   c0106563 <outw>
c0106807:	83 c4 20             	add    $0x20,%esp
c010680a:	5b                   	pop    %ebx
c010680b:	5e                   	pop    %esi
c010680c:	5d                   	pop    %ebp
c010680d:	c3                   	ret    

c010680e <pci_writel>:
c010680e:	55                   	push   %ebp
c010680f:	89 e5                	mov    %esp,%ebp
c0106811:	53                   	push   %ebx
c0106812:	83 ec 18             	sub    $0x18,%esp
c0106815:	8b 5d 08             	mov    0x8(%ebp),%ebx
c0106818:	8b 4d 0c             	mov    0xc(%ebp),%ecx
c010681b:	8b 55 10             	mov    0x10(%ebp),%edx
c010681e:	8b 45 14             	mov    0x14(%ebp),%eax
c0106821:	88 5d f8             	mov    %bl,-0x8(%ebp)
c0106824:	88 4d f4             	mov    %cl,-0xc(%ebp)
c0106827:	88 55 f0             	mov    %dl,-0x10(%ebp)
c010682a:	88 45 ec             	mov    %al,-0x14(%ebp)
c010682d:	0f b6 45 f8          	movzbl -0x8(%ebp),%eax
c0106831:	c1 e0 10             	shl    $0x10,%eax
c0106834:	89 c2                	mov    %eax,%edx
c0106836:	0f b6 45 f4          	movzbl -0xc(%ebp),%eax
c010683a:	c1 e0 0b             	shl    $0xb,%eax
c010683d:	09 c2                	or     %eax,%edx
c010683f:	0f b6 45 f0          	movzbl -0x10(%ebp),%eax
c0106843:	c1 e0 08             	shl    $0x8,%eax
c0106846:	09 c2                	or     %eax,%edx
c0106848:	0f b6 45 ec          	movzbl -0x14(%ebp),%eax
c010684c:	25 fc 00 00 00       	and    $0xfc,%eax
c0106851:	09 d0                	or     %edx,%eax
c0106853:	0d 00 00 00 80       	or     $0x80000000,%eax
c0106858:	89 44 24 04          	mov    %eax,0x4(%esp)
c010685c:	c7 04 24 f8 0c 00 00 	movl   $0xcf8,(%esp)
c0106863:	e8 1b fd ff ff       	call   c0106583 <outl>
c0106868:	8b 45 18             	mov    0x18(%ebp),%eax
c010686b:	89 44 24 04          	mov    %eax,0x4(%esp)
c010686f:	c7 04 24 fc 0c 00 00 	movl   $0xcfc,(%esp)
c0106876:	e8 08 fd ff ff       	call   c0106583 <outl>
c010687b:	83 c4 18             	add    $0x18,%esp
c010687e:	5b                   	pop    %ebx
c010687f:	5d                   	pop    %ebp
c0106880:	c3                   	ret    

c0106881 <pci_dev_exist>:
c0106881:	55                   	push   %ebp
c0106882:	89 e5                	mov    %esp,%ebp
c0106884:	83 ec 2c             	sub    $0x2c,%esp
c0106887:	8b 4d 08             	mov    0x8(%ebp),%ecx
c010688a:	8b 55 0c             	mov    0xc(%ebp),%edx
c010688d:	8b 45 10             	mov    0x10(%ebp),%eax
c0106890:	88 4d ec             	mov    %cl,-0x14(%ebp)
c0106893:	88 55 e8             	mov    %dl,-0x18(%ebp)
c0106896:	88 45 e4             	mov    %al,-0x1c(%ebp)
c0106899:	0f b6 4d e4          	movzbl -0x1c(%ebp),%ecx
c010689d:	0f b6 55 e8          	movzbl -0x18(%ebp),%edx
c01068a1:	0f b6 45 ec          	movzbl -0x14(%ebp),%eax
c01068a5:	c7 44 24 0c 00 00 00 	movl   $0x0,0xc(%esp)
c01068ac:	00 
c01068ad:	89 4c 24 08          	mov    %ecx,0x8(%esp)
c01068b1:	89 54 24 04          	mov    %edx,0x4(%esp)
c01068b5:	89 04 24             	mov    %eax,(%esp)
c01068b8:	e8 a0 fd ff ff       	call   c010665d <pci_readw>
c01068bd:	66 89 45 fe          	mov    %ax,-0x2(%ebp)
c01068c1:	66 83 7d fe 00       	cmpw   $0x0,-0x2(%ebp)
c01068c6:	74 07                	je     c01068cf <pci_dev_exist+0x4e>
c01068c8:	66 83 7d fe ff       	cmpw   $0xffff,-0x2(%ebp)
c01068cd:	75 07                	jne    c01068d6 <pci_dev_exist+0x55>
c01068cf:	b8 00 00 00 00       	mov    $0x0,%eax
c01068d4:	eb 05                	jmp    c01068db <pci_dev_exist+0x5a>
c01068d6:	b8 01 00 00 00       	mov    $0x1,%eax
c01068db:	c9                   	leave  
c01068dc:	c3                   	ret    

c01068dd <search_device>:
c01068dd:	55                   	push   %ebp
c01068de:	89 e5                	mov    %esp,%ebp
c01068e0:	83 ec 38             	sub    $0x38,%esp
c01068e3:	8b 55 0c             	mov    0xc(%ebp),%edx
c01068e6:	8b 45 10             	mov    0x10(%ebp),%eax
c01068e9:	66 89 55 e4          	mov    %dx,-0x1c(%ebp)
c01068ed:	66 89 45 e0          	mov    %ax,-0x20(%ebp)
c01068f1:	8b 45 14             	mov    0x14(%ebp),%eax
c01068f4:	8b 00                	mov    (%eax),%eax
c01068f6:	89 45 f4             	mov    %eax,-0xc(%ebp)
c01068f9:	90                   	nop
c01068fa:	8b 45 08             	mov    0x8(%ebp),%eax
c01068fd:	8b 40 08             	mov    0x8(%eax),%eax
c0106900:	85 c0                	test   %eax,%eax
c0106902:	75 f6                	jne    c01068fa <search_device+0x1d>
c0106904:	8b 45 08             	mov    0x8(%ebp),%eax
c0106907:	c7 40 08 01 00 00 00 	movl   $0x1,0x8(%eax)
c010690e:	8b 45 08             	mov    0x8(%ebp),%eax
c0106911:	89 04 24             	mov    %eax,(%esp)
c0106914:	e8 8b 3f 00 00       	call   c010a8a4 <list_set_first>
c0106919:	eb 73                	jmp    c010698e <search_device+0xb1>
c010691b:	8b 45 08             	mov    0x8(%ebp),%eax
c010691e:	89 04 24             	mov    %eax,(%esp)
c0106921:	e8 2b 3f 00 00       	call   c010a851 <list_get_current>
c0106926:	89 45 f0             	mov    %eax,-0x10(%ebp)
c0106929:	83 7d f4 00          	cmpl   $0x0,-0xc(%ebp)
c010692d:	75 36                	jne    c0106965 <search_device+0x88>
c010692f:	8b 45 f0             	mov    -0x10(%ebp),%eax
c0106932:	0f b7 40 08          	movzwl 0x8(%eax),%eax
c0106936:	66 3b 45 e0          	cmp    -0x20(%ebp),%ax
c010693a:	75 29                	jne    c0106965 <search_device+0x88>
c010693c:	8b 45 f0             	mov    -0x10(%ebp),%eax
c010693f:	0f b7 40 0a          	movzwl 0xa(%eax),%eax
c0106943:	66 3b 45 e4          	cmp    -0x1c(%ebp),%ax
c0106947:	75 1c                	jne    c0106965 <search_device+0x88>
c0106949:	8b 45 14             	mov    0x14(%ebp),%eax
c010694c:	8b 00                	mov    (%eax),%eax
c010694e:	8d 50 01             	lea    0x1(%eax),%edx
c0106951:	8b 45 14             	mov    0x14(%ebp),%eax
c0106954:	89 10                	mov    %edx,(%eax)
c0106956:	8b 45 08             	mov    0x8(%ebp),%eax
c0106959:	c7 40 08 00 00 00 00 	movl   $0x0,0x8(%eax)
c0106960:	8b 45 f0             	mov    -0x10(%ebp),%eax
c0106963:	eb 4b                	jmp    c01069b0 <search_device+0xd3>
c0106965:	8b 45 f0             	mov    -0x10(%ebp),%eax
c0106968:	0f b7 40 08          	movzwl 0x8(%eax),%eax
c010696c:	66 3b 45 e0          	cmp    -0x20(%ebp),%ax
c0106970:	75 11                	jne    c0106983 <search_device+0xa6>
c0106972:	8b 45 f0             	mov    -0x10(%ebp),%eax
c0106975:	0f b7 40 0a          	movzwl 0xa(%eax),%eax
c0106979:	66 3b 45 e4          	cmp    -0x1c(%ebp),%ax
c010697d:	75 04                	jne    c0106983 <search_device+0xa6>
c010697f:	83 6d f4 01          	subl   $0x1,-0xc(%ebp)
c0106983:	8b 45 08             	mov    0x8(%ebp),%eax
c0106986:	89 04 24             	mov    %eax,(%esp)
c0106989:	e8 d1 3e 00 00       	call   c010a85f <list_next>
c010698e:	8b 45 08             	mov    0x8(%ebp),%eax
c0106991:	89 04 24             	mov    %eax,(%esp)
c0106994:	e8 f3 3e 00 00       	call   c010a88c <list_is_last>
c0106999:	85 c0                	test   %eax,%eax
c010699b:	0f 84 7a ff ff ff    	je     c010691b <search_device+0x3e>
c01069a1:	8b 45 08             	mov    0x8(%ebp),%eax
c01069a4:	c7 40 08 00 00 00 00 	movl   $0x0,0x8(%eax)
c01069ab:	b8 00 00 00 00       	mov    $0x0,%eax
c01069b0:	c9                   	leave  
c01069b1:	c3                   	ret    

c01069b2 <install_pci_isr>:
c01069b2:	55                   	push   %ebp
c01069b3:	89 e5                	mov    %esp,%ebp
c01069b5:	83 ec 28             	sub    $0x28,%esp
c01069b8:	90                   	nop
c01069b9:	a1 c0 32 11 c0       	mov    0xc01132c0,%eax
c01069be:	8b 40 08             	mov    0x8(%eax),%eax
c01069c1:	85 c0                	test   %eax,%eax
c01069c3:	75 f4                	jne    c01069b9 <install_pci_isr+0x7>
c01069c5:	a1 c0 32 11 c0       	mov    0xc01132c0,%eax
c01069ca:	c7 40 08 01 00 00 00 	movl   $0x1,0x8(%eax)
c01069d1:	c7 04 24 08 00 00 00 	movl   $0x8,(%esp)
c01069d8:	e8 87 ed ff ff       	call   c0105764 <malloc>
c01069dd:	89 45 f4             	mov    %eax,-0xc(%ebp)
c01069e0:	8b 45 f4             	mov    -0xc(%ebp),%eax
c01069e3:	8b 55 08             	mov    0x8(%ebp),%edx
c01069e6:	89 10                	mov    %edx,(%eax)
c01069e8:	8b 45 f4             	mov    -0xc(%ebp),%eax
c01069eb:	8b 55 0c             	mov    0xc(%ebp),%edx
c01069ee:	89 50 04             	mov    %edx,0x4(%eax)
c01069f1:	a1 c0 32 11 c0       	mov    0xc01132c0,%eax
c01069f6:	8b 55 f4             	mov    -0xc(%ebp),%edx
c01069f9:	89 54 24 04          	mov    %edx,0x4(%esp)
c01069fd:	89 04 24             	mov    %eax,(%esp)
c0106a00:	e8 63 3c 00 00       	call   c010a668 <list_push_front>
c0106a05:	a1 c0 32 11 c0       	mov    0xc01132c0,%eax
c0106a0a:	c7 40 08 00 00 00 00 	movl   $0x0,0x8(%eax)
c0106a11:	c9                   	leave  
c0106a12:	c3                   	ret    

c0106a13 <deinstall_pci_isr>:
c0106a13:	55                   	push   %ebp
c0106a14:	89 e5                	mov    %esp,%ebp
c0106a16:	83 ec 28             	sub    $0x28,%esp
c0106a19:	90                   	nop
c0106a1a:	a1 c0 32 11 c0       	mov    0xc01132c0,%eax
c0106a1f:	8b 40 08             	mov    0x8(%eax),%eax
c0106a22:	85 c0                	test   %eax,%eax
c0106a24:	75 f4                	jne    c0106a1a <deinstall_pci_isr+0x7>
c0106a26:	a1 c0 32 11 c0       	mov    0xc01132c0,%eax
c0106a2b:	c7 40 08 01 00 00 00 	movl   $0x1,0x8(%eax)
c0106a32:	c7 45 f4 00 00 00 00 	movl   $0x0,-0xc(%ebp)
c0106a39:	a1 c0 32 11 c0       	mov    0xc01132c0,%eax
c0106a3e:	89 04 24             	mov    %eax,(%esp)
c0106a41:	e8 5e 3e 00 00       	call   c010a8a4 <list_set_first>
c0106a46:	eb 52                	jmp    c0106a9a <deinstall_pci_isr+0x87>
c0106a48:	a1 c0 32 11 c0       	mov    0xc01132c0,%eax
c0106a4d:	89 04 24             	mov    %eax,(%esp)
c0106a50:	e8 fc 3d 00 00       	call   c010a851 <list_get_current>
c0106a55:	89 45 f0             	mov    %eax,-0x10(%ebp)
c0106a58:	8b 45 f0             	mov    -0x10(%ebp),%eax
c0106a5b:	8b 00                	mov    (%eax),%eax
c0106a5d:	3b 45 08             	cmp    0x8(%ebp),%eax
c0106a60:	75 2b                	jne    c0106a8d <deinstall_pci_isr+0x7a>
c0106a62:	8b 45 f0             	mov    -0x10(%ebp),%eax
c0106a65:	8b 40 04             	mov    0x4(%eax),%eax
c0106a68:	3b 45 0c             	cmp    0xc(%ebp),%eax
c0106a6b:	75 20                	jne    c0106a8d <deinstall_pci_isr+0x7a>
c0106a6d:	a1 c0 32 11 c0       	mov    0xc01132c0,%eax
c0106a72:	89 04 24             	mov    %eax,(%esp)
c0106a75:	e8 55 3d 00 00       	call   c010a7cf <list_remove>
c0106a7a:	a1 c0 32 11 c0       	mov    0xc01132c0,%eax
c0106a7f:	89 04 24             	mov    %eax,(%esp)
c0106a82:	e8 1d 3e 00 00       	call   c010a8a4 <list_set_first>
c0106a87:	83 45 f4 01          	addl   $0x1,-0xc(%ebp)
c0106a8b:	eb 0d                	jmp    c0106a9a <deinstall_pci_isr+0x87>
c0106a8d:	a1 c0 32 11 c0       	mov    0xc01132c0,%eax
c0106a92:	89 04 24             	mov    %eax,(%esp)
c0106a95:	e8 c5 3d 00 00       	call   c010a85f <list_next>
c0106a9a:	a1 c0 32 11 c0       	mov    0xc01132c0,%eax
c0106a9f:	89 04 24             	mov    %eax,(%esp)
c0106aa2:	e8 e5 3d 00 00       	call   c010a88c <list_is_last>
c0106aa7:	85 c0                	test   %eax,%eax
c0106aa9:	74 9d                	je     c0106a48 <deinstall_pci_isr+0x35>
c0106aab:	a1 c0 32 11 c0       	mov    0xc01132c0,%eax
c0106ab0:	c7 40 08 00 00 00 00 	movl   $0x0,0x8(%eax)
c0106ab7:	8b 45 f4             	mov    -0xc(%ebp),%eax
c0106aba:	c9                   	leave  
c0106abb:	c3                   	ret    

c0106abc <pci_irq_handler>:
c0106abc:	55                   	push   %ebp
c0106abd:	89 e5                	mov    %esp,%ebp
c0106abf:	53                   	push   %ebx
c0106ac0:	83 ec 34             	sub    $0x34,%esp
c0106ac3:	a1 c4 32 11 c0       	mov    0xc01132c4,%eax
c0106ac8:	8b 00                	mov    (%eax),%eax
c0106aca:	89 45 f4             	mov    %eax,-0xc(%ebp)
c0106acd:	a1 c4 32 11 c0       	mov    0xc01132c4,%eax
c0106ad2:	89 04 24             	mov    %eax,(%esp)
c0106ad5:	e8 ca 3d 00 00       	call   c010a8a4 <list_set_first>
c0106ada:	e9 fd 00 00 00       	jmp    c0106bdc <pci_irq_handler+0x120>
c0106adf:	a1 c4 32 11 c0       	mov    0xc01132c4,%eax
c0106ae4:	89 04 24             	mov    %eax,(%esp)
c0106ae7:	e8 65 3d 00 00       	call   c010a851 <list_get_current>
c0106aec:	89 45 f0             	mov    %eax,-0x10(%ebp)
c0106aef:	8b 45 f0             	mov    -0x10(%ebp),%eax
c0106af2:	0f b6 40 02          	movzbl 0x2(%eax),%eax
c0106af6:	0f b6 c8             	movzbl %al,%ecx
c0106af9:	8b 45 f0             	mov    -0x10(%ebp),%eax
c0106afc:	0f b6 40 01          	movzbl 0x1(%eax),%eax
c0106b00:	0f b6 d0             	movzbl %al,%edx
c0106b03:	8b 45 f0             	mov    -0x10(%ebp),%eax
c0106b06:	0f b6 00             	movzbl (%eax),%eax
c0106b09:	0f b6 c0             	movzbl %al,%eax
c0106b0c:	c7 44 24 0c 06 00 00 	movl   $0x6,0xc(%esp)
c0106b13:	00 
c0106b14:	89 4c 24 08          	mov    %ecx,0x8(%esp)
c0106b18:	89 54 24 04          	mov    %edx,0x4(%esp)
c0106b1c:	89 04 24             	mov    %eax,(%esp)
c0106b1f:	e8 39 fb ff ff       	call   c010665d <pci_readw>
c0106b24:	66 89 45 ee          	mov    %ax,-0x12(%ebp)
c0106b28:	0f b7 45 ee          	movzwl -0x12(%ebp),%eax
c0106b2c:	83 e0 08             	and    $0x8,%eax
c0106b2f:	85 c0                	test   %eax,%eax
c0106b31:	0f 84 98 00 00 00    	je     c0106bcf <pci_irq_handler+0x113>
c0106b37:	a1 c0 32 11 c0       	mov    0xc01132c0,%eax
c0106b3c:	89 04 24             	mov    %eax,(%esp)
c0106b3f:	e8 60 3d 00 00       	call   c010a8a4 <list_set_first>
c0106b44:	eb 35                	jmp    c0106b7b <pci_irq_handler+0xbf>
c0106b46:	a1 c0 32 11 c0       	mov    0xc01132c0,%eax
c0106b4b:	89 04 24             	mov    %eax,(%esp)
c0106b4e:	e8 fe 3c 00 00       	call   c010a851 <list_get_current>
c0106b53:	89 45 e8             	mov    %eax,-0x18(%ebp)
c0106b56:	8b 45 e8             	mov    -0x18(%ebp),%eax
c0106b59:	8b 40 04             	mov    0x4(%eax),%eax
c0106b5c:	3b 45 f0             	cmp    -0x10(%ebp),%eax
c0106b5f:	75 0d                	jne    c0106b6e <pci_irq_handler+0xb2>
c0106b61:	8b 45 e8             	mov    -0x18(%ebp),%eax
c0106b64:	8b 10                	mov    (%eax),%edx
c0106b66:	8b 45 f0             	mov    -0x10(%ebp),%eax
c0106b69:	89 04 24             	mov    %eax,(%esp)
c0106b6c:	ff d2                	call   *%edx
c0106b6e:	a1 c0 32 11 c0       	mov    0xc01132c0,%eax
c0106b73:	89 04 24             	mov    %eax,(%esp)
c0106b76:	e8 e4 3c 00 00       	call   c010a85f <list_next>
c0106b7b:	a1 c0 32 11 c0       	mov    0xc01132c0,%eax
c0106b80:	89 04 24             	mov    %eax,(%esp)
c0106b83:	e8 04 3d 00 00       	call   c010a88c <list_is_last>
c0106b88:	85 c0                	test   %eax,%eax
c0106b8a:	74 ba                	je     c0106b46 <pci_irq_handler+0x8a>
c0106b8c:	0f b7 45 ee          	movzwl -0x12(%ebp),%eax
c0106b90:	83 f0 01             	xor    $0x1,%eax
c0106b93:	0f b7 d8             	movzwl %ax,%ebx
c0106b96:	8b 45 f0             	mov    -0x10(%ebp),%eax
c0106b99:	0f b6 40 02          	movzbl 0x2(%eax),%eax
c0106b9d:	0f b6 c8             	movzbl %al,%ecx
c0106ba0:	8b 45 f0             	mov    -0x10(%ebp),%eax
c0106ba3:	0f b6 40 01          	movzbl 0x1(%eax),%eax
c0106ba7:	0f b6 d0             	movzbl %al,%edx
c0106baa:	8b 45 f0             	mov    -0x10(%ebp),%eax
c0106bad:	0f b6 00             	movzbl (%eax),%eax
c0106bb0:	0f b6 c0             	movzbl %al,%eax
c0106bb3:	89 5c 24 10          	mov    %ebx,0x10(%esp)
c0106bb7:	c7 44 24 0c 06 00 00 	movl   $0x6,0xc(%esp)
c0106bbe:	00 
c0106bbf:	89 4c 24 08          	mov    %ecx,0x8(%esp)
c0106bc3:	89 54 24 04          	mov    %edx,0x4(%esp)
c0106bc7:	89 04 24             	mov    %eax,(%esp)
c0106bca:	e8 3f fc ff ff       	call   c010680e <pci_writel>
c0106bcf:	a1 c4 32 11 c0       	mov    0xc01132c4,%eax
c0106bd4:	89 04 24             	mov    %eax,(%esp)
c0106bd7:	e8 83 3c 00 00       	call   c010a85f <list_next>
c0106bdc:	a1 c4 32 11 c0       	mov    0xc01132c4,%eax
c0106be1:	89 04 24             	mov    %eax,(%esp)
c0106be4:	e8 a3 3c 00 00       	call   c010a88c <list_is_last>
c0106be9:	85 c0                	test   %eax,%eax
c0106beb:	0f 84 ee fe ff ff    	je     c0106adf <pci_irq_handler+0x23>
c0106bf1:	c7 04 24 81 c2 10 c0 	movl   $0xc010c281,(%esp)
c0106bf8:	e8 6a f2 ff ff       	call   c0105e67 <puts>
c0106bfd:	a1 c4 32 11 c0       	mov    0xc01132c4,%eax
c0106c02:	8b 55 f4             	mov    -0xc(%ebp),%edx
c0106c05:	89 10                	mov    %edx,(%eax)
c0106c07:	83 c4 34             	add    $0x34,%esp
c0106c0a:	5b                   	pop    %ebx
c0106c0b:	5d                   	pop    %ebp
c0106c0c:	c3                   	ret    

c0106c0d <INIT_PCI>:
c0106c0d:	55                   	push   %ebp
c0106c0e:	89 e5                	mov    %esp,%ebp
c0106c10:	57                   	push   %edi
c0106c11:	56                   	push   %esi
c0106c12:	53                   	push   %ebx
c0106c13:	83 ec 5c             	sub    $0x5c,%esp
c0106c16:	c7 04 24 8a c2 10 c0 	movl   $0xc010c28a,(%esp)
c0106c1d:	e8 45 f2 ff ff       	call   c0105e67 <puts>
c0106c22:	e8 f9 38 00 00       	call   c010a520 <list_create>
c0106c27:	a3 c4 32 11 c0       	mov    %eax,0xc01132c4
c0106c2c:	e8 ef 38 00 00       	call   c010a520 <list_create>
c0106c31:	a3 c0 32 11 c0       	mov    %eax,0xc01132c0
c0106c36:	a1 c4 32 11 c0       	mov    0xc01132c4,%eax
c0106c3b:	c7 40 08 01 00 00 00 	movl   $0x1,0x8(%eax)
c0106c42:	c7 45 e0 00 00 00 00 	movl   $0x0,-0x20(%ebp)
c0106c49:	e9 68 05 00 00       	jmp    c01071b6 <INIT_PCI+0x5a9>
c0106c4e:	c7 45 e4 00 00 00 00 	movl   $0x0,-0x1c(%ebp)
c0106c55:	e9 4e 05 00 00       	jmp    c01071a8 <INIT_PCI+0x59b>
c0106c5a:	c7 45 dc 00 00 00 00 	movl   $0x0,-0x24(%ebp)
c0106c61:	e9 34 05 00 00       	jmp    c010719a <INIT_PCI+0x58d>
c0106c66:	8b 45 dc             	mov    -0x24(%ebp),%eax
c0106c69:	0f b6 c8             	movzbl %al,%ecx
c0106c6c:	8b 45 e4             	mov    -0x1c(%ebp),%eax
c0106c6f:	0f b6 d0             	movzbl %al,%edx
c0106c72:	8b 45 e0             	mov    -0x20(%ebp),%eax
c0106c75:	0f b6 c0             	movzbl %al,%eax
c0106c78:	89 4c 24 08          	mov    %ecx,0x8(%esp)
c0106c7c:	89 54 24 04          	mov    %edx,0x4(%esp)
c0106c80:	89 04 24             	mov    %eax,(%esp)
c0106c83:	e8 f9 fb ff ff       	call   c0106881 <pci_dev_exist>
c0106c88:	85 c0                	test   %eax,%eax
c0106c8a:	0f 84 06 05 00 00    	je     c0107196 <INIT_PCI+0x589>
c0106c90:	8b 45 dc             	mov    -0x24(%ebp),%eax
c0106c93:	0f b6 c8             	movzbl %al,%ecx
c0106c96:	8b 45 e4             	mov    -0x1c(%ebp),%eax
c0106c99:	0f b6 d0             	movzbl %al,%edx
c0106c9c:	8b 45 e0             	mov    -0x20(%ebp),%eax
c0106c9f:	0f b6 c0             	movzbl %al,%eax
c0106ca2:	c7 44 24 0c 0e 00 00 	movl   $0xe,0xc(%esp)
c0106ca9:	00 
c0106caa:	89 4c 24 08          	mov    %ecx,0x8(%esp)
c0106cae:	89 54 24 04          	mov    %edx,0x4(%esp)
c0106cb2:	89 04 24             	mov    %eax,(%esp)
c0106cb5:	e8 5a f9 ff ff       	call   c0106614 <pci_readb>
c0106cba:	c0 e8 07             	shr    $0x7,%al
c0106cbd:	0f b6 c0             	movzbl %al,%eax
c0106cc0:	89 45 d0             	mov    %eax,-0x30(%ebp)
c0106cc3:	83 7d dc 00          	cmpl   $0x0,-0x24(%ebp)
c0106cc7:	74 0a                	je     c0106cd3 <INIT_PCI+0xc6>
c0106cc9:	83 7d d0 00          	cmpl   $0x0,-0x30(%ebp)
c0106ccd:	0f 84 c2 04 00 00    	je     c0107195 <INIT_PCI+0x588>
c0106cd3:	c7 04 24 60 00 00 00 	movl   $0x60,(%esp)
c0106cda:	e8 85 ea ff ff       	call   c0105764 <malloc>
c0106cdf:	89 45 cc             	mov    %eax,-0x34(%ebp)
c0106ce2:	8b 45 e0             	mov    -0x20(%ebp),%eax
c0106ce5:	89 c2                	mov    %eax,%edx
c0106ce7:	8b 45 cc             	mov    -0x34(%ebp),%eax
c0106cea:	88 10                	mov    %dl,(%eax)
c0106cec:	8b 45 e4             	mov    -0x1c(%ebp),%eax
c0106cef:	89 c2                	mov    %eax,%edx
c0106cf1:	8b 45 cc             	mov    -0x34(%ebp),%eax
c0106cf4:	88 50 01             	mov    %dl,0x1(%eax)
c0106cf7:	8b 45 dc             	mov    -0x24(%ebp),%eax
c0106cfa:	89 c2                	mov    %eax,%edx
c0106cfc:	8b 45 cc             	mov    -0x34(%ebp),%eax
c0106cff:	88 50 02             	mov    %dl,0x2(%eax)
c0106d02:	8b 45 e4             	mov    -0x1c(%ebp),%eax
c0106d05:	0f b6 d0             	movzbl %al,%edx
c0106d08:	8b 45 e0             	mov    -0x20(%ebp),%eax
c0106d0b:	0f b6 c0             	movzbl %al,%eax
c0106d0e:	c7 44 24 0c 08 00 00 	movl   $0x8,0xc(%esp)
c0106d15:	00 
c0106d16:	c7 44 24 08 00 00 00 	movl   $0x0,0x8(%esp)
c0106d1d:	00 
c0106d1e:	89 54 24 04          	mov    %edx,0x4(%esp)
c0106d22:	89 04 24             	mov    %eax,(%esp)
c0106d25:	e8 7c f9 ff ff       	call   c01066a6 <pci_readl>
c0106d2a:	89 45 c8             	mov    %eax,-0x38(%ebp)
c0106d2d:	8b 45 c8             	mov    -0x38(%ebp),%eax
c0106d30:	89 c2                	mov    %eax,%edx
c0106d32:	8b 45 cc             	mov    -0x34(%ebp),%eax
c0106d35:	88 50 0c             	mov    %dl,0xc(%eax)
c0106d38:	8b 45 c8             	mov    -0x38(%ebp),%eax
c0106d3b:	c1 e8 08             	shr    $0x8,%eax
c0106d3e:	89 c2                	mov    %eax,%edx
c0106d40:	8b 45 cc             	mov    -0x34(%ebp),%eax
c0106d43:	88 50 0f             	mov    %dl,0xf(%eax)
c0106d46:	8b 45 c8             	mov    -0x38(%ebp),%eax
c0106d49:	c1 e8 10             	shr    $0x10,%eax
c0106d4c:	89 c2                	mov    %eax,%edx
c0106d4e:	8b 45 cc             	mov    -0x34(%ebp),%eax
c0106d51:	88 50 0e             	mov    %dl,0xe(%eax)
c0106d54:	8b 45 c8             	mov    -0x38(%ebp),%eax
c0106d57:	c1 e8 18             	shr    $0x18,%eax
c0106d5a:	89 c2                	mov    %eax,%edx
c0106d5c:	8b 45 cc             	mov    -0x34(%ebp),%eax
c0106d5f:	88 50 0d             	mov    %dl,0xd(%eax)
c0106d62:	8b 45 dc             	mov    -0x24(%ebp),%eax
c0106d65:	0f b6 c8             	movzbl %al,%ecx
c0106d68:	8b 45 e4             	mov    -0x1c(%ebp),%eax
c0106d6b:	0f b6 d0             	movzbl %al,%edx
c0106d6e:	8b 45 e0             	mov    -0x20(%ebp),%eax
c0106d71:	0f b6 c0             	movzbl %al,%eax
c0106d74:	c7 44 24 0c 02 00 00 	movl   $0x2,0xc(%esp)
c0106d7b:	00 
c0106d7c:	89 4c 24 08          	mov    %ecx,0x8(%esp)
c0106d80:	89 54 24 04          	mov    %edx,0x4(%esp)
c0106d84:	89 04 24             	mov    %eax,(%esp)
c0106d87:	e8 d1 f8 ff ff       	call   c010665d <pci_readw>
c0106d8c:	8b 55 cc             	mov    -0x34(%ebp),%edx
c0106d8f:	66 89 42 08          	mov    %ax,0x8(%edx)
c0106d93:	8b 45 dc             	mov    -0x24(%ebp),%eax
c0106d96:	0f b6 c8             	movzbl %al,%ecx
c0106d99:	8b 45 e4             	mov    -0x1c(%ebp),%eax
c0106d9c:	0f b6 d0             	movzbl %al,%edx
c0106d9f:	8b 45 e0             	mov    -0x20(%ebp),%eax
c0106da2:	0f b6 c0             	movzbl %al,%eax
c0106da5:	c7 44 24 0c 00 00 00 	movl   $0x0,0xc(%esp)
c0106dac:	00 
c0106dad:	89 4c 24 08          	mov    %ecx,0x8(%esp)
c0106db1:	89 54 24 04          	mov    %edx,0x4(%esp)
c0106db5:	89 04 24             	mov    %eax,(%esp)
c0106db8:	e8 a0 f8 ff ff       	call   c010665d <pci_readw>
c0106dbd:	8b 55 cc             	mov    -0x34(%ebp),%edx
c0106dc0:	66 89 42 0a          	mov    %ax,0xa(%edx)
c0106dc4:	8b 45 e4             	mov    -0x1c(%ebp),%eax
c0106dc7:	0f b6 d0             	movzbl %al,%edx
c0106dca:	8b 45 e0             	mov    -0x20(%ebp),%eax
c0106dcd:	0f b6 c0             	movzbl %al,%eax
c0106dd0:	c7 44 24 0c 0e 00 00 	movl   $0xe,0xc(%esp)
c0106dd7:	00 
c0106dd8:	c7 44 24 08 00 00 00 	movl   $0x0,0x8(%esp)
c0106ddf:	00 
c0106de0:	89 54 24 04          	mov    %edx,0x4(%esp)
c0106de4:	89 04 24             	mov    %eax,(%esp)
c0106de7:	e8 28 f8 ff ff       	call   c0106614 <pci_readb>
c0106dec:	89 c2                	mov    %eax,%edx
c0106dee:	83 e2 7f             	and    $0x7f,%edx
c0106df1:	8b 45 cc             	mov    -0x34(%ebp),%eax
c0106df4:	88 50 14             	mov    %dl,0x14(%eax)
c0106df7:	8b 45 cc             	mov    -0x34(%ebp),%eax
c0106dfa:	8b 55 d0             	mov    -0x30(%ebp),%edx
c0106dfd:	89 50 10             	mov    %edx,0x10(%eax)
c0106e00:	8b 45 dc             	mov    -0x24(%ebp),%eax
c0106e03:	0f b6 c8             	movzbl %al,%ecx
c0106e06:	8b 45 e4             	mov    -0x1c(%ebp),%eax
c0106e09:	0f b6 d0             	movzbl %al,%edx
c0106e0c:	8b 45 e0             	mov    -0x20(%ebp),%eax
c0106e0f:	0f b6 c0             	movzbl %al,%eax
c0106e12:	c7 44 24 0c 3c 00 00 	movl   $0x3c,0xc(%esp)
c0106e19:	00 
c0106e1a:	89 4c 24 08          	mov    %ecx,0x8(%esp)
c0106e1e:	89 54 24 04          	mov    %edx,0x4(%esp)
c0106e22:	89 04 24             	mov    %eax,(%esp)
c0106e25:	e8 7c f8 ff ff       	call   c01066a6 <pci_readl>
c0106e2a:	89 45 c4             	mov    %eax,-0x3c(%ebp)
c0106e2d:	8b 45 c4             	mov    -0x3c(%ebp),%eax
c0106e30:	89 c2                	mov    %eax,%edx
c0106e32:	8b 45 cc             	mov    -0x34(%ebp),%eax
c0106e35:	88 50 15             	mov    %dl,0x15(%eax)
c0106e38:	8b 45 c4             	mov    -0x3c(%ebp),%eax
c0106e3b:	c1 e8 08             	shr    $0x8,%eax
c0106e3e:	89 c2                	mov    %eax,%edx
c0106e40:	8b 45 cc             	mov    -0x34(%ebp),%eax
c0106e43:	88 50 16             	mov    %dl,0x16(%eax)
c0106e46:	8b 45 cc             	mov    -0x34(%ebp),%eax
c0106e49:	c7 40 04 00 00 00 00 	movl   $0x0,0x4(%eax)
c0106e50:	8b 45 cc             	mov    -0x34(%ebp),%eax
c0106e53:	0f b6 40 15          	movzbl 0x15(%eax),%eax
c0106e57:	0f b6 f8             	movzbl %al,%edi
c0106e5a:	8b 45 cc             	mov    -0x34(%ebp),%eax
c0106e5d:	0f b6 40 02          	movzbl 0x2(%eax),%eax
c0106e61:	0f b6 f0             	movzbl %al,%esi
c0106e64:	8b 45 cc             	mov    -0x34(%ebp),%eax
c0106e67:	0f b6 40 01          	movzbl 0x1(%eax),%eax
c0106e6b:	0f b6 d8             	movzbl %al,%ebx
c0106e6e:	8b 45 cc             	mov    -0x34(%ebp),%eax
c0106e71:	0f b6 00             	movzbl (%eax),%eax
c0106e74:	0f b6 c8             	movzbl %al,%ecx
c0106e77:	8b 45 cc             	mov    -0x34(%ebp),%eax
c0106e7a:	0f b7 40 0a          	movzwl 0xa(%eax),%eax
c0106e7e:	0f b7 d0             	movzwl %ax,%edx
c0106e81:	8b 45 cc             	mov    -0x34(%ebp),%eax
c0106e84:	0f b7 40 08          	movzwl 0x8(%eax),%eax
c0106e88:	0f b7 c0             	movzwl %ax,%eax
c0106e8b:	89 7c 24 18          	mov    %edi,0x18(%esp)
c0106e8f:	89 74 24 14          	mov    %esi,0x14(%esp)
c0106e93:	89 5c 24 10          	mov    %ebx,0x10(%esp)
c0106e97:	89 4c 24 0c          	mov    %ecx,0xc(%esp)
c0106e9b:	89 54 24 08          	mov    %edx,0x8(%esp)
c0106e9f:	89 44 24 04          	mov    %eax,0x4(%esp)
c0106ea3:	c7 04 24 98 c2 10 c0 	movl   $0xc010c298,(%esp)
c0106eaa:	e8 a5 e3 ff ff       	call   c0105254 <printf>
c0106eaf:	8b 45 cc             	mov    -0x34(%ebp),%eax
c0106eb2:	0f b6 40 15          	movzbl 0x15(%eax),%eax
c0106eb6:	3c 0f                	cmp    $0xf,%al
c0106eb8:	0f 87 fd 00 00 00    	ja     c0106fbb <INIT_PCI+0x3ae>
c0106ebe:	8b 45 cc             	mov    -0x34(%ebp),%eax
c0106ec1:	0f b6 40 16          	movzbl 0x16(%eax),%eax
c0106ec5:	84 c0                	test   %al,%al
c0106ec7:	0f 84 ee 00 00 00    	je     c0106fbb <INIT_PCI+0x3ae>
c0106ecd:	8b 45 cc             	mov    -0x34(%ebp),%eax
c0106ed0:	0f b6 40 15          	movzbl 0x15(%eax),%eax
c0106ed4:	84 c0                	test   %al,%al
c0106ed6:	0f 84 df 00 00 00    	je     c0106fbb <INIT_PCI+0x3ae>
c0106edc:	8b 45 cc             	mov    -0x34(%ebp),%eax
c0106edf:	0f b6 40 15          	movzbl 0x15(%eax),%eax
c0106ee3:	0f b6 c0             	movzbl %al,%eax
c0106ee6:	c7 44 24 04 bc 6a 10 	movl   $0xc0106abc,0x4(%esp)
c0106eed:	c0 
c0106eee:	89 04 24             	mov    %eax,(%esp)
c0106ef1:	e8 80 19 00 00       	call   c0108876 <install_irq>
c0106ef6:	85 c0                	test   %eax,%eax
c0106ef8:	0f 85 bd 00 00 00    	jne    c0106fbb <INIT_PCI+0x3ae>
c0106efe:	c7 04 24 04 00 00 00 	movl   $0x4,(%esp)
c0106f05:	e8 38 f0 ff ff       	call   c0105f42 <set_color>
c0106f0a:	c7 04 24 e8 c2 10 c0 	movl   $0xc010c2e8,(%esp)
c0106f11:	e8 3e e3 ff ff       	call   c0105254 <printf>
c0106f16:	c7 04 24 0f 00 00 00 	movl   $0xf,(%esp)
c0106f1d:	e8 20 f0 ff ff       	call   c0105f42 <set_color>
c0106f22:	8b 45 cc             	mov    -0x34(%ebp),%eax
c0106f25:	0f b6 40 15          	movzbl 0x15(%eax),%eax
c0106f29:	0f b6 c0             	movzbl %al,%eax
c0106f2c:	8b 55 dc             	mov    -0x24(%ebp),%edx
c0106f2f:	89 54 24 10          	mov    %edx,0x10(%esp)
c0106f33:	8b 55 e4             	mov    -0x1c(%ebp),%edx
c0106f36:	89 54 24 0c          	mov    %edx,0xc(%esp)
c0106f3a:	8b 55 e0             	mov    -0x20(%ebp),%edx
c0106f3d:	89 54 24 08          	mov    %edx,0x8(%esp)
c0106f41:	89 44 24 04          	mov    %eax,0x4(%esp)
c0106f45:	c7 04 24 f4 c2 10 c0 	movl   $0xc010c2f4,(%esp)
c0106f4c:	e8 03 e3 ff ff       	call   c0105254 <printf>
c0106f51:	c7 04 24 04 00 00 00 	movl   $0x4,(%esp)
c0106f58:	e8 e5 ef ff ff       	call   c0105f42 <set_color>
c0106f5d:	c7 04 24 e8 c2 10 c0 	movl   $0xc010c2e8,(%esp)
c0106f64:	e8 eb e2 ff ff       	call   c0105254 <printf>
c0106f69:	c7 04 24 0f 00 00 00 	movl   $0xf,(%esp)
c0106f70:	e8 cd ef ff ff       	call   c0105f42 <set_color>
c0106f75:	8b 45 cc             	mov    -0x34(%ebp),%eax
c0106f78:	0f b6 40 15          	movzbl 0x15(%eax),%eax
c0106f7c:	0f b6 c0             	movzbl %al,%eax
c0106f7f:	89 44 24 04          	mov    %eax,0x4(%esp)
c0106f83:	c7 04 24 28 c3 10 c0 	movl   $0xc010c328,(%esp)
c0106f8a:	e8 c5 e2 ff ff       	call   c0105254 <printf>
c0106f8f:	8b 45 cc             	mov    -0x34(%ebp),%eax
c0106f92:	0f b6 40 15          	movzbl 0x15(%eax),%eax
c0106f96:	0f b6 c0             	movzbl %al,%eax
c0106f99:	89 04 24             	mov    %eax,(%esp)
c0106f9c:	e8 2d 19 00 00       	call   c01088ce <deinstall_irq>
c0106fa1:	8b 45 cc             	mov    -0x34(%ebp),%eax
c0106fa4:	0f b6 40 15          	movzbl 0x15(%eax),%eax
c0106fa8:	0f b6 c0             	movzbl %al,%eax
c0106fab:	c7 44 24 04 bc 6a 10 	movl   $0xc0106abc,0x4(%esp)
c0106fb2:	c0 
c0106fb3:	89 04 24             	mov    %eax,(%esp)
c0106fb6:	e8 bb 18 00 00       	call   c0108876 <install_irq>
c0106fbb:	8b 45 cc             	mov    -0x34(%ebp),%eax
c0106fbe:	0f b6 40 14          	movzbl 0x14(%eax),%eax
c0106fc2:	84 c0                	test   %al,%al
c0106fc4:	0f 85 b5 01 00 00    	jne    c010717f <INIT_PCI+0x572>
c0106fca:	c7 45 d8 00 00 00 00 	movl   $0x0,-0x28(%ebp)
c0106fd1:	e9 9f 01 00 00       	jmp    c0107175 <INIT_PCI+0x568>
c0106fd6:	8b 45 d8             	mov    -0x28(%ebp),%eax
c0106fd9:	83 c0 04             	add    $0x4,%eax
c0106fdc:	c1 e0 02             	shl    $0x2,%eax
c0106fdf:	0f b6 d8             	movzbl %al,%ebx
c0106fe2:	8b 45 dc             	mov    -0x24(%ebp),%eax
c0106fe5:	0f b6 c8             	movzbl %al,%ecx
c0106fe8:	8b 45 e4             	mov    -0x1c(%ebp),%eax
c0106feb:	0f b6 d0             	movzbl %al,%edx
c0106fee:	8b 45 e0             	mov    -0x20(%ebp),%eax
c0106ff1:	0f b6 c0             	movzbl %al,%eax
c0106ff4:	89 5c 24 0c          	mov    %ebx,0xc(%esp)
c0106ff8:	89 4c 24 08          	mov    %ecx,0x8(%esp)
c0106ffc:	89 54 24 04          	mov    %edx,0x4(%esp)
c0107000:	89 04 24             	mov    %eax,(%esp)
c0107003:	e8 9e f6 ff ff       	call   c01066a6 <pci_readl>
c0107008:	89 45 c0             	mov    %eax,-0x40(%ebp)
c010700b:	8b 45 c0             	mov    -0x40(%ebp),%eax
c010700e:	89 c1                	mov    %eax,%ecx
c0107010:	83 e1 01             	and    $0x1,%ecx
c0107013:	8b 5d cc             	mov    -0x34(%ebp),%ebx
c0107016:	8b 55 d8             	mov    -0x28(%ebp),%edx
c0107019:	89 d0                	mov    %edx,%eax
c010701b:	01 c0                	add    %eax,%eax
c010701d:	01 d0                	add    %edx,%eax
c010701f:	c1 e0 02             	shl    $0x2,%eax
c0107022:	01 d8                	add    %ebx,%eax
c0107024:	83 c0 1c             	add    $0x1c,%eax
c0107027:	89 08                	mov    %ecx,(%eax)
c0107029:	8b 45 c0             	mov    -0x40(%ebp),%eax
c010702c:	89 c1                	mov    %eax,%ecx
c010702e:	83 e1 fe             	and    $0xfffffffe,%ecx
c0107031:	8b 5d cc             	mov    -0x34(%ebp),%ebx
c0107034:	8b 55 d8             	mov    -0x28(%ebp),%edx
c0107037:	89 d0                	mov    %edx,%eax
c0107039:	01 c0                	add    %eax,%eax
c010703b:	01 d0                	add    %edx,%eax
c010703d:	c1 e0 02             	shl    $0x2,%eax
c0107040:	01 d8                	add    %ebx,%eax
c0107042:	83 c0 18             	add    $0x18,%eax
c0107045:	89 08                	mov    %ecx,(%eax)
c0107047:	8b 45 d8             	mov    -0x28(%ebp),%eax
c010704a:	83 c0 04             	add    $0x4,%eax
c010704d:	c1 e0 02             	shl    $0x2,%eax
c0107050:	0f b6 d8             	movzbl %al,%ebx
c0107053:	8b 45 dc             	mov    -0x24(%ebp),%eax
c0107056:	0f b6 c8             	movzbl %al,%ecx
c0107059:	8b 45 e4             	mov    -0x1c(%ebp),%eax
c010705c:	0f b6 d0             	movzbl %al,%edx
c010705f:	8b 45 e0             	mov    -0x20(%ebp),%eax
c0107062:	0f b6 c0             	movzbl %al,%eax
c0107065:	c7 44 24 10 ff ff ff 	movl   $0xffffffff,0x10(%esp)
c010706c:	ff 
c010706d:	89 5c 24 0c          	mov    %ebx,0xc(%esp)
c0107071:	89 4c 24 08          	mov    %ecx,0x8(%esp)
c0107075:	89 54 24 04          	mov    %edx,0x4(%esp)
c0107079:	89 04 24             	mov    %eax,(%esp)
c010707c:	e8 8d f7 ff ff       	call   c010680e <pci_writel>
c0107081:	8b 45 d8             	mov    -0x28(%ebp),%eax
c0107084:	83 c0 04             	add    $0x4,%eax
c0107087:	c1 e0 02             	shl    $0x2,%eax
c010708a:	0f b6 d8             	movzbl %al,%ebx
c010708d:	8b 45 dc             	mov    -0x24(%ebp),%eax
c0107090:	0f b6 c8             	movzbl %al,%ecx
c0107093:	8b 45 e4             	mov    -0x1c(%ebp),%eax
c0107096:	0f b6 d0             	movzbl %al,%edx
c0107099:	8b 45 e0             	mov    -0x20(%ebp),%eax
c010709c:	0f b6 c0             	movzbl %al,%eax
c010709f:	89 5c 24 0c          	mov    %ebx,0xc(%esp)
c01070a3:	89 4c 24 08          	mov    %ecx,0x8(%esp)
c01070a7:	89 54 24 04          	mov    %edx,0x4(%esp)
c01070ab:	89 04 24             	mov    %eax,(%esp)
c01070ae:	e8 f3 f5 ff ff       	call   c01066a6 <pci_readl>
c01070b3:	89 45 bc             	mov    %eax,-0x44(%ebp)
c01070b6:	8b 45 bc             	mov    -0x44(%ebp),%eax
c01070b9:	f7 d0                	not    %eax
c01070bb:	83 c8 01             	or     $0x1,%eax
c01070be:	89 45 bc             	mov    %eax,-0x44(%ebp)
c01070c1:	8b 4d cc             	mov    -0x34(%ebp),%ecx
c01070c4:	8b 55 d8             	mov    -0x28(%ebp),%edx
c01070c7:	89 d0                	mov    %edx,%eax
c01070c9:	01 c0                	add    %eax,%eax
c01070cb:	01 d0                	add    %edx,%eax
c01070cd:	c1 e0 02             	shl    $0x2,%eax
c01070d0:	01 c8                	add    %ecx,%eax
c01070d2:	83 c0 10             	add    $0x10,%eax
c01070d5:	c6 40 10 00          	movb   $0x0,0x10(%eax)
c01070d9:	c7 45 d4 00 00 00 00 	movl   $0x0,-0x2c(%ebp)
c01070e0:	eb 4d                	jmp    c010712f <INIT_PCI+0x522>
c01070e2:	8b 45 d4             	mov    -0x2c(%ebp),%eax
c01070e5:	ba 01 00 00 00       	mov    $0x1,%edx
c01070ea:	89 d3                	mov    %edx,%ebx
c01070ec:	89 c1                	mov    %eax,%ecx
c01070ee:	d3 e3                	shl    %cl,%ebx
c01070f0:	89 d8                	mov    %ebx,%eax
c01070f2:	23 45 bc             	and    -0x44(%ebp),%eax
c01070f5:	85 c0                	test   %eax,%eax
c01070f7:	74 3e                	je     c0107137 <INIT_PCI+0x52a>
c01070f9:	8b 4d cc             	mov    -0x34(%ebp),%ecx
c01070fc:	8b 55 d8             	mov    -0x28(%ebp),%edx
c01070ff:	89 d0                	mov    %edx,%eax
c0107101:	01 c0                	add    %eax,%eax
c0107103:	01 d0                	add    %edx,%eax
c0107105:	c1 e0 02             	shl    $0x2,%eax
c0107108:	01 c8                	add    %ecx,%eax
c010710a:	83 c0 10             	add    $0x10,%eax
c010710d:	0f b6 40 10          	movzbl 0x10(%eax),%eax
c0107111:	8d 48 01             	lea    0x1(%eax),%ecx
c0107114:	8b 5d cc             	mov    -0x34(%ebp),%ebx
c0107117:	8b 55 d8             	mov    -0x28(%ebp),%edx
c010711a:	89 d0                	mov    %edx,%eax
c010711c:	01 c0                	add    %eax,%eax
c010711e:	01 d0                	add    %edx,%eax
c0107120:	c1 e0 02             	shl    $0x2,%eax
c0107123:	01 d8                	add    %ebx,%eax
c0107125:	83 c0 10             	add    $0x10,%eax
c0107128:	88 48 10             	mov    %cl,0x10(%eax)
c010712b:	83 45 d4 01          	addl   $0x1,-0x2c(%ebp)
c010712f:	83 7d d4 1f          	cmpl   $0x1f,-0x2c(%ebp)
c0107133:	7e ad                	jle    c01070e2 <INIT_PCI+0x4d5>
c0107135:	eb 01                	jmp    c0107138 <INIT_PCI+0x52b>
c0107137:	90                   	nop
c0107138:	8b 45 d8             	mov    -0x28(%ebp),%eax
c010713b:	83 c0 04             	add    $0x4,%eax
c010713e:	c1 e0 02             	shl    $0x2,%eax
c0107141:	0f b6 d8             	movzbl %al,%ebx
c0107144:	8b 45 dc             	mov    -0x24(%ebp),%eax
c0107147:	0f b6 c8             	movzbl %al,%ecx
c010714a:	8b 45 e4             	mov    -0x1c(%ebp),%eax
c010714d:	0f b6 d0             	movzbl %al,%edx
c0107150:	8b 45 e0             	mov    -0x20(%ebp),%eax
c0107153:	0f b6 c0             	movzbl %al,%eax
c0107156:	8b 75 c0             	mov    -0x40(%ebp),%esi
c0107159:	89 74 24 10          	mov    %esi,0x10(%esp)
c010715d:	89 5c 24 0c          	mov    %ebx,0xc(%esp)
c0107161:	89 4c 24 08          	mov    %ecx,0x8(%esp)
c0107165:	89 54 24 04          	mov    %edx,0x4(%esp)
c0107169:	89 04 24             	mov    %eax,(%esp)
c010716c:	e8 9d f6 ff ff       	call   c010680e <pci_writel>
c0107171:	83 45 d8 01          	addl   $0x1,-0x28(%ebp)
c0107175:	83 7d d8 05          	cmpl   $0x5,-0x28(%ebp)
c0107179:	0f 8e 57 fe ff ff    	jle    c0106fd6 <INIT_PCI+0x3c9>
c010717f:	a1 c4 32 11 c0       	mov    0xc01132c4,%eax
c0107184:	8b 55 cc             	mov    -0x34(%ebp),%edx
c0107187:	89 54 24 04          	mov    %edx,0x4(%esp)
c010718b:	89 04 24             	mov    %eax,(%esp)
c010718e:	e8 d5 34 00 00       	call   c010a668 <list_push_front>
c0107193:	eb 01                	jmp    c0107196 <INIT_PCI+0x589>
c0107195:	90                   	nop
c0107196:	83 45 dc 01          	addl   $0x1,-0x24(%ebp)
c010719a:	83 7d dc 07          	cmpl   $0x7,-0x24(%ebp)
c010719e:	0f 8e c2 fa ff ff    	jle    c0106c66 <INIT_PCI+0x59>
c01071a4:	83 45 e4 01          	addl   $0x1,-0x1c(%ebp)
c01071a8:	83 7d e4 1f          	cmpl   $0x1f,-0x1c(%ebp)
c01071ac:	0f 8e a8 fa ff ff    	jle    c0106c5a <INIT_PCI+0x4d>
c01071b2:	83 45 e0 01          	addl   $0x1,-0x20(%ebp)
c01071b6:	83 7d e0 07          	cmpl   $0x7,-0x20(%ebp)
c01071ba:	0f 8e 8e fa ff ff    	jle    c0106c4e <INIT_PCI+0x41>
c01071c0:	a1 c4 32 11 c0       	mov    0xc01132c4,%eax
c01071c5:	c7 40 08 00 00 00 00 	movl   $0x0,0x8(%eax)
c01071cc:	c7 04 24 0a 00 00 00 	movl   $0xa,(%esp)
c01071d3:	e8 30 eb ff ff       	call   c0105d08 <putchar>
c01071d8:	83 c4 5c             	add    $0x5c,%esp
c01071db:	5b                   	pop    %ebx
c01071dc:	5e                   	pop    %esi
c01071dd:	5f                   	pop    %edi
c01071de:	5d                   	pop    %ebp
c01071df:	c3                   	ret    

c01071e0 <outb>:
c01071e0:	55                   	push   %ebp
c01071e1:	89 e5                	mov    %esp,%ebp
c01071e3:	83 ec 08             	sub    $0x8,%esp
c01071e6:	8b 55 08             	mov    0x8(%ebp),%edx
c01071e9:	8b 45 0c             	mov    0xc(%ebp),%eax
c01071ec:	66 89 55 fc          	mov    %dx,-0x4(%ebp)
c01071f0:	88 45 f8             	mov    %al,-0x8(%ebp)
c01071f3:	0f b7 55 fc          	movzwl -0x4(%ebp),%edx
c01071f7:	0f b6 45 f8          	movzbl -0x8(%ebp),%eax
c01071fb:	ee                   	out    %al,(%dx)
c01071fc:	c9                   	leave  
c01071fd:	c3                   	ret    

c01071fe <set_pit_freq>:
c01071fe:	55                   	push   %ebp
c01071ff:	89 e5                	mov    %esp,%ebp
c0107201:	83 ec 18             	sub    $0x18,%esp
c0107204:	b8 de 34 12 00       	mov    $0x1234de,%eax
c0107209:	89 c2                	mov    %eax,%edx
c010720b:	c1 fa 1f             	sar    $0x1f,%edx
c010720e:	f7 7d 08             	idivl  0x8(%ebp)
c0107211:	89 45 fc             	mov    %eax,-0x4(%ebp)
c0107214:	8b 45 fc             	mov    -0x4(%ebp),%eax
c0107217:	0f b6 c0             	movzbl %al,%eax
c010721a:	89 44 24 04          	mov    %eax,0x4(%esp)
c010721e:	c7 04 24 40 00 00 00 	movl   $0x40,(%esp)
c0107225:	e8 b6 ff ff ff       	call   c01071e0 <outb>
c010722a:	8b 45 fc             	mov    -0x4(%ebp),%eax
c010722d:	c1 f8 08             	sar    $0x8,%eax
c0107230:	0f b6 c0             	movzbl %al,%eax
c0107233:	89 44 24 04          	mov    %eax,0x4(%esp)
c0107237:	c7 04 24 40 00 00 00 	movl   $0x40,(%esp)
c010723e:	e8 9d ff ff ff       	call   c01071e0 <outb>
c0107243:	c9                   	leave  
c0107244:	c3                   	ret    

c0107245 <INIT_PIT>:
c0107245:	55                   	push   %ebp
c0107246:	89 e5                	mov    %esp,%ebp
c0107248:	83 ec 08             	sub    $0x8,%esp
c010724b:	c7 44 24 04 34 00 00 	movl   $0x34,0x4(%esp)
c0107252:	00 
c0107253:	c7 04 24 43 00 00 00 	movl   $0x43,(%esp)
c010725a:	e8 81 ff ff ff       	call   c01071e0 <outb>
c010725f:	8b 45 08             	mov    0x8(%ebp),%eax
c0107262:	89 04 24             	mov    %eax,(%esp)
c0107265:	e8 94 ff ff ff       	call   c01071fe <set_pit_freq>
c010726a:	c9                   	leave  
c010726b:	c3                   	ret    

c010726c <INIT_RTC>:
c010726c:	55                   	push   %ebp
c010726d:	89 e5                	mov    %esp,%ebp
c010726f:	83 ec 18             	sub    $0x18,%esp
c0107272:	c7 44 24 04 d5 72 10 	movl   $0xc01072d5,0x4(%esp)
c0107279:	c0 
c010727a:	c7 04 24 08 00 00 00 	movl   $0x8,(%esp)
c0107281:	e8 f0 15 00 00       	call   c0108876 <install_irq>
c0107286:	e8 c7 e9 ff ff       	call   c0105c52 <get_cmos_data>
c010728b:	a3 98 30 11 c0       	mov    %eax,0xc0113098
c0107290:	a1 98 30 11 c0       	mov    0xc0113098,%eax
c0107295:	0f b6 40 04          	movzbl 0x4(%eax),%eax
c0107299:	83 c8 0f             	or     $0xf,%eax
c010729c:	0f b6 c0             	movzbl %al,%eax
c010729f:	89 44 24 04          	mov    %eax,0x4(%esp)
c01072a3:	c7 04 24 0a 00 00 00 	movl   $0xa,(%esp)
c01072aa:	e8 fb e9 ff ff       	call   c0105caa <cmos_write_byte>
c01072af:	a1 98 30 11 c0       	mov    0xc0113098,%eax
c01072b4:	0f b6 40 05          	movzbl 0x5(%eax),%eax
c01072b8:	83 c8 40             	or     $0x40,%eax
c01072bb:	0f b6 c0             	movzbl %al,%eax
c01072be:	89 44 24 04          	mov    %eax,0x4(%esp)
c01072c2:	c7 04 24 0b 00 00 00 	movl   $0xb,(%esp)
c01072c9:	e8 dc e9 ff ff       	call   c0105caa <cmos_write_byte>
c01072ce:	e8 29 00 00 00       	call   c01072fc <update_time>
c01072d3:	c9                   	leave  
c01072d4:	c3                   	ret    

c01072d5 <rtc_irq_handler>:
c01072d5:	55                   	push   %ebp
c01072d6:	89 e5                	mov    %esp,%ebp
c01072d8:	53                   	push   %ebx
c01072d9:	83 ec 14             	sub    $0x14,%esp
c01072dc:	8b 1d 98 30 11 c0    	mov    0xc0113098,%ebx
c01072e2:	c7 04 24 0c 00 00 00 	movl   $0xc,(%esp)
c01072e9:	e8 6e e9 ff ff       	call   c0105c5c <cmos_read_byte>
c01072ee:	88 43 06             	mov    %al,0x6(%ebx)
c01072f1:	e8 06 00 00 00       	call   c01072fc <update_time>
c01072f6:	83 c4 14             	add    $0x14,%esp
c01072f9:	5b                   	pop    %ebx
c01072fa:	5d                   	pop    %ebp
c01072fb:	c3                   	ret    

c01072fc <update_time>:
c01072fc:	55                   	push   %ebp
c01072fd:	89 e5                	mov    %esp,%ebp
c01072ff:	53                   	push   %ebx
c0107300:	83 ec 14             	sub    $0x14,%esp
c0107303:	c7 04 24 00 00 00 00 	movl   $0x0,(%esp)
c010730a:	e8 4d e9 ff ff       	call   c0105c5c <cmos_read_byte>
c010730f:	89 c3                	mov    %eax,%ebx
c0107311:	83 e3 0f             	and    $0xf,%ebx
c0107314:	c7 04 24 00 00 00 00 	movl   $0x0,(%esp)
c010731b:	e8 3c e9 ff ff       	call   c0105c5c <cmos_read_byte>
c0107320:	89 c2                	mov    %eax,%edx
c0107322:	c0 ea 04             	shr    $0x4,%dl
c0107325:	89 d0                	mov    %edx,%eax
c0107327:	c1 e0 02             	shl    $0x2,%eax
c010732a:	01 d0                	add    %edx,%eax
c010732c:	01 c0                	add    %eax,%eax
c010732e:	01 d8                	add    %ebx,%eax
c0107330:	a2 c8 32 11 c0       	mov    %al,0xc01132c8
c0107335:	c7 04 24 01 00 00 00 	movl   $0x1,(%esp)
c010733c:	e8 1b e9 ff ff       	call   c0105c5c <cmos_read_byte>
c0107341:	89 c3                	mov    %eax,%ebx
c0107343:	83 e3 0f             	and    $0xf,%ebx
c0107346:	c7 04 24 01 00 00 00 	movl   $0x1,(%esp)
c010734d:	e8 0a e9 ff ff       	call   c0105c5c <cmos_read_byte>
c0107352:	89 c2                	mov    %eax,%edx
c0107354:	c0 ea 04             	shr    $0x4,%dl
c0107357:	89 d0                	mov    %edx,%eax
c0107359:	c1 e0 02             	shl    $0x2,%eax
c010735c:	01 d0                	add    %edx,%eax
c010735e:	01 c0                	add    %eax,%eax
c0107360:	01 d8                	add    %ebx,%eax
c0107362:	a2 c9 32 11 c0       	mov    %al,0xc01132c9
c0107367:	c7 04 24 02 00 00 00 	movl   $0x2,(%esp)
c010736e:	e8 e9 e8 ff ff       	call   c0105c5c <cmos_read_byte>
c0107373:	89 c3                	mov    %eax,%ebx
c0107375:	83 e3 0f             	and    $0xf,%ebx
c0107378:	c7 04 24 02 00 00 00 	movl   $0x2,(%esp)
c010737f:	e8 d8 e8 ff ff       	call   c0105c5c <cmos_read_byte>
c0107384:	89 c2                	mov    %eax,%edx
c0107386:	c0 ea 04             	shr    $0x4,%dl
c0107389:	89 d0                	mov    %edx,%eax
c010738b:	c1 e0 02             	shl    $0x2,%eax
c010738e:	01 d0                	add    %edx,%eax
c0107390:	01 c0                	add    %eax,%eax
c0107392:	01 d8                	add    %ebx,%eax
c0107394:	a2 ca 32 11 c0       	mov    %al,0xc01132ca
c0107399:	c7 04 24 03 00 00 00 	movl   $0x3,(%esp)
c01073a0:	e8 b7 e8 ff ff       	call   c0105c5c <cmos_read_byte>
c01073a5:	89 c3                	mov    %eax,%ebx
c01073a7:	83 e3 0f             	and    $0xf,%ebx
c01073aa:	c7 04 24 03 00 00 00 	movl   $0x3,(%esp)
c01073b1:	e8 a6 e8 ff ff       	call   c0105c5c <cmos_read_byte>
c01073b6:	89 c2                	mov    %eax,%edx
c01073b8:	c0 ea 04             	shr    $0x4,%dl
c01073bb:	89 d0                	mov    %edx,%eax
c01073bd:	c1 e0 02             	shl    $0x2,%eax
c01073c0:	01 d0                	add    %edx,%eax
c01073c2:	01 c0                	add    %eax,%eax
c01073c4:	01 d8                	add    %ebx,%eax
c01073c6:	a2 cb 32 11 c0       	mov    %al,0xc01132cb
c01073cb:	c7 04 24 04 00 00 00 	movl   $0x4,(%esp)
c01073d2:	e8 85 e8 ff ff       	call   c0105c5c <cmos_read_byte>
c01073d7:	89 c3                	mov    %eax,%ebx
c01073d9:	83 e3 0f             	and    $0xf,%ebx
c01073dc:	c7 04 24 04 00 00 00 	movl   $0x4,(%esp)
c01073e3:	e8 74 e8 ff ff       	call   c0105c5c <cmos_read_byte>
c01073e8:	89 c2                	mov    %eax,%edx
c01073ea:	c0 ea 04             	shr    $0x4,%dl
c01073ed:	89 d0                	mov    %edx,%eax
c01073ef:	c1 e0 02             	shl    $0x2,%eax
c01073f2:	01 d0                	add    %edx,%eax
c01073f4:	01 c0                	add    %eax,%eax
c01073f6:	01 d8                	add    %ebx,%eax
c01073f8:	a2 cc 32 11 c0       	mov    %al,0xc01132cc
c01073fd:	c7 04 24 05 00 00 00 	movl   $0x5,(%esp)
c0107404:	e8 53 e8 ff ff       	call   c0105c5c <cmos_read_byte>
c0107409:	89 c3                	mov    %eax,%ebx
c010740b:	83 e3 0f             	and    $0xf,%ebx
c010740e:	c7 04 24 05 00 00 00 	movl   $0x5,(%esp)
c0107415:	e8 42 e8 ff ff       	call   c0105c5c <cmos_read_byte>
c010741a:	89 c2                	mov    %eax,%edx
c010741c:	c0 ea 04             	shr    $0x4,%dl
c010741f:	89 d0                	mov    %edx,%eax
c0107421:	c1 e0 02             	shl    $0x2,%eax
c0107424:	01 d0                	add    %edx,%eax
c0107426:	01 c0                	add    %eax,%eax
c0107428:	01 d8                	add    %ebx,%eax
c010742a:	a2 cd 32 11 c0       	mov    %al,0xc01132cd
c010742f:	c7 04 24 06 00 00 00 	movl   $0x6,(%esp)
c0107436:	e8 21 e8 ff ff       	call   c0105c5c <cmos_read_byte>
c010743b:	89 c3                	mov    %eax,%ebx
c010743d:	83 e3 0f             	and    $0xf,%ebx
c0107440:	c7 04 24 06 00 00 00 	movl   $0x6,(%esp)
c0107447:	e8 10 e8 ff ff       	call   c0105c5c <cmos_read_byte>
c010744c:	89 c2                	mov    %eax,%edx
c010744e:	c0 ea 04             	shr    $0x4,%dl
c0107451:	89 d0                	mov    %edx,%eax
c0107453:	c1 e0 02             	shl    $0x2,%eax
c0107456:	01 d0                	add    %edx,%eax
c0107458:	01 c0                	add    %eax,%eax
c010745a:	01 d8                	add    %ebx,%eax
c010745c:	83 e8 01             	sub    $0x1,%eax
c010745f:	a2 ce 32 11 c0       	mov    %al,0xc01132ce
c0107464:	c7 04 24 07 00 00 00 	movl   $0x7,(%esp)
c010746b:	e8 ec e7 ff ff       	call   c0105c5c <cmos_read_byte>
c0107470:	89 c3                	mov    %eax,%ebx
c0107472:	83 e3 0f             	and    $0xf,%ebx
c0107475:	c7 04 24 07 00 00 00 	movl   $0x7,(%esp)
c010747c:	e8 db e7 ff ff       	call   c0105c5c <cmos_read_byte>
c0107481:	89 c2                	mov    %eax,%edx
c0107483:	c0 ea 04             	shr    $0x4,%dl
c0107486:	89 d0                	mov    %edx,%eax
c0107488:	c1 e0 02             	shl    $0x2,%eax
c010748b:	01 d0                	add    %edx,%eax
c010748d:	01 c0                	add    %eax,%eax
c010748f:	01 d8                	add    %ebx,%eax
c0107491:	a2 cf 32 11 c0       	mov    %al,0xc01132cf
c0107496:	c7 04 24 08 00 00 00 	movl   $0x8,(%esp)
c010749d:	e8 ba e7 ff ff       	call   c0105c5c <cmos_read_byte>
c01074a2:	89 c3                	mov    %eax,%ebx
c01074a4:	83 e3 0f             	and    $0xf,%ebx
c01074a7:	c7 04 24 08 00 00 00 	movl   $0x8,(%esp)
c01074ae:	e8 a9 e7 ff ff       	call   c0105c5c <cmos_read_byte>
c01074b3:	89 c2                	mov    %eax,%edx
c01074b5:	c0 ea 04             	shr    $0x4,%dl
c01074b8:	89 d0                	mov    %edx,%eax
c01074ba:	c1 e0 02             	shl    $0x2,%eax
c01074bd:	01 d0                	add    %edx,%eax
c01074bf:	01 c0                	add    %eax,%eax
c01074c1:	01 d8                	add    %ebx,%eax
c01074c3:	a2 d0 32 11 c0       	mov    %al,0xc01132d0
c01074c8:	c7 04 24 09 00 00 00 	movl   $0x9,(%esp)
c01074cf:	e8 88 e7 ff ff       	call   c0105c5c <cmos_read_byte>
c01074d4:	89 c3                	mov    %eax,%ebx
c01074d6:	83 e3 0f             	and    $0xf,%ebx
c01074d9:	c7 04 24 09 00 00 00 	movl   $0x9,(%esp)
c01074e0:	e8 77 e7 ff ff       	call   c0105c5c <cmos_read_byte>
c01074e5:	89 c2                	mov    %eax,%edx
c01074e7:	c0 ea 04             	shr    $0x4,%dl
c01074ea:	89 d0                	mov    %edx,%eax
c01074ec:	c1 e0 02             	shl    $0x2,%eax
c01074ef:	01 d0                	add    %edx,%eax
c01074f1:	01 c0                	add    %eax,%eax
c01074f3:	01 d8                	add    %ebx,%eax
c01074f5:	a2 d1 32 11 c0       	mov    %al,0xc01132d1
c01074fa:	c7 04 24 32 00 00 00 	movl   $0x32,(%esp)
c0107501:	e8 56 e7 ff ff       	call   c0105c5c <cmos_read_byte>
c0107506:	89 c3                	mov    %eax,%ebx
c0107508:	83 e3 0f             	and    $0xf,%ebx
c010750b:	c7 04 24 32 00 00 00 	movl   $0x32,(%esp)
c0107512:	e8 45 e7 ff ff       	call   c0105c5c <cmos_read_byte>
c0107517:	89 c2                	mov    %eax,%edx
c0107519:	c0 ea 04             	shr    $0x4,%dl
c010751c:	89 d0                	mov    %edx,%eax
c010751e:	c1 e0 02             	shl    $0x2,%eax
c0107521:	01 d0                	add    %edx,%eax
c0107523:	01 c0                	add    %eax,%eax
c0107525:	01 d8                	add    %ebx,%eax
c0107527:	a2 d2 32 11 c0       	mov    %al,0xc01132d2
c010752c:	b8 00 00 00 00       	mov    $0x0,%eax
c0107531:	83 c4 14             	add    $0x14,%esp
c0107534:	5b                   	pop    %ebx
c0107535:	5d                   	pop    %ebp
c0107536:	c3                   	ret    

c0107537 <change_time>:
c0107537:	55                   	push   %ebp
c0107538:	89 e5                	mov    %esp,%ebp
c010753a:	83 ec 18             	sub    $0x18,%esp
c010753d:	0f b6 45 08          	movzbl 0x8(%ebp),%eax
c0107541:	0f b6 c0             	movzbl %al,%eax
c0107544:	89 44 24 04          	mov    %eax,0x4(%esp)
c0107548:	c7 04 24 00 00 00 00 	movl   $0x0,(%esp)
c010754f:	e8 56 e7 ff ff       	call   c0105caa <cmos_write_byte>
c0107554:	0f b6 45 09          	movzbl 0x9(%ebp),%eax
c0107558:	0f b6 c0             	movzbl %al,%eax
c010755b:	89 44 24 04          	mov    %eax,0x4(%esp)
c010755f:	c7 04 24 01 00 00 00 	movl   $0x1,(%esp)
c0107566:	e8 3f e7 ff ff       	call   c0105caa <cmos_write_byte>
c010756b:	0f b6 45 0a          	movzbl 0xa(%ebp),%eax
c010756f:	0f b6 c0             	movzbl %al,%eax
c0107572:	89 44 24 04          	mov    %eax,0x4(%esp)
c0107576:	c7 04 24 02 00 00 00 	movl   $0x2,(%esp)
c010757d:	e8 28 e7 ff ff       	call   c0105caa <cmos_write_byte>
c0107582:	0f b6 45 0b          	movzbl 0xb(%ebp),%eax
c0107586:	0f b6 c0             	movzbl %al,%eax
c0107589:	89 44 24 04          	mov    %eax,0x4(%esp)
c010758d:	c7 04 24 03 00 00 00 	movl   $0x3,(%esp)
c0107594:	e8 11 e7 ff ff       	call   c0105caa <cmos_write_byte>
c0107599:	0f b6 45 0c          	movzbl 0xc(%ebp),%eax
c010759d:	0f b6 c0             	movzbl %al,%eax
c01075a0:	89 44 24 04          	mov    %eax,0x4(%esp)
c01075a4:	c7 04 24 04 00 00 00 	movl   $0x4,(%esp)
c01075ab:	e8 fa e6 ff ff       	call   c0105caa <cmos_write_byte>
c01075b0:	0f b6 45 0d          	movzbl 0xd(%ebp),%eax
c01075b4:	0f b6 c0             	movzbl %al,%eax
c01075b7:	89 44 24 04          	mov    %eax,0x4(%esp)
c01075bb:	c7 04 24 05 00 00 00 	movl   $0x5,(%esp)
c01075c2:	e8 e3 e6 ff ff       	call   c0105caa <cmos_write_byte>
c01075c7:	0f b6 45 0e          	movzbl 0xe(%ebp),%eax
c01075cb:	0f b6 c0             	movzbl %al,%eax
c01075ce:	89 44 24 04          	mov    %eax,0x4(%esp)
c01075d2:	c7 04 24 06 00 00 00 	movl   $0x6,(%esp)
c01075d9:	e8 cc e6 ff ff       	call   c0105caa <cmos_write_byte>
c01075de:	0f b6 45 0f          	movzbl 0xf(%ebp),%eax
c01075e2:	0f b6 c0             	movzbl %al,%eax
c01075e5:	89 44 24 04          	mov    %eax,0x4(%esp)
c01075e9:	c7 04 24 07 00 00 00 	movl   $0x7,(%esp)
c01075f0:	e8 b5 e6 ff ff       	call   c0105caa <cmos_write_byte>
c01075f5:	0f b6 45 10          	movzbl 0x10(%ebp),%eax
c01075f9:	0f b6 c0             	movzbl %al,%eax
c01075fc:	89 44 24 04          	mov    %eax,0x4(%esp)
c0107600:	c7 04 24 08 00 00 00 	movl   $0x8,(%esp)
c0107607:	e8 9e e6 ff ff       	call   c0105caa <cmos_write_byte>
c010760c:	0f b6 45 11          	movzbl 0x11(%ebp),%eax
c0107610:	0f b6 c0             	movzbl %al,%eax
c0107613:	89 44 24 04          	mov    %eax,0x4(%esp)
c0107617:	c7 04 24 09 00 00 00 	movl   $0x9,(%esp)
c010761e:	e8 87 e6 ff ff       	call   c0105caa <cmos_write_byte>
c0107623:	0f b6 45 12          	movzbl 0x12(%ebp),%eax
c0107627:	0f b6 c0             	movzbl %al,%eax
c010762a:	89 44 24 04          	mov    %eax,0x4(%esp)
c010762e:	c7 04 24 32 00 00 00 	movl   $0x32,(%esp)
c0107635:	e8 70 e6 ff ff       	call   c0105caa <cmos_write_byte>
c010763a:	b8 00 00 00 00       	mov    $0x0,%eax
c010763f:	c9                   	leave  
c0107640:	c3                   	ret    

c0107641 <get_time>:
c0107641:	55                   	push   %ebp
c0107642:	89 e5                	mov    %esp,%ebp
c0107644:	b8 c8 32 11 c0       	mov    $0xc01132c8,%eax
c0107649:	5d                   	pop    %ebp
c010764a:	c3                   	ret    

c010764b <print_time>:
c010764b:	55                   	push   %ebp
c010764c:	89 e5                	mov    %esp,%ebp
c010764e:	53                   	push   %ebx
c010764f:	83 ec 34             	sub    $0x34,%esp
c0107652:	8b 45 08             	mov    0x8(%ebp),%eax
c0107655:	0f b6 40 06          	movzbl 0x6(%eax),%eax
c0107659:	0f b6 c0             	movzbl %al,%eax
c010765c:	83 f8 06             	cmp    $0x6,%eax
c010765f:	77 47                	ja     c01076a8 <print_time+0x5d>
c0107661:	8b 04 85 c4 c3 10 c0 	mov    -0x3fef3c3c(,%eax,4),%eax
c0107668:	ff e0                	jmp    *%eax
c010766a:	c7 45 f4 48 c3 10 c0 	movl   $0xc010c348,-0xc(%ebp)
c0107671:	eb 35                	jmp    c01076a8 <print_time+0x5d>
c0107673:	c7 45 f4 50 c3 10 c0 	movl   $0xc010c350,-0xc(%ebp)
c010767a:	eb 2c                	jmp    c01076a8 <print_time+0x5d>
c010767c:	c7 45 f4 57 c3 10 c0 	movl   $0xc010c357,-0xc(%ebp)
c0107683:	eb 23                	jmp    c01076a8 <print_time+0x5d>
c0107685:	c7 45 f4 60 c3 10 c0 	movl   $0xc010c360,-0xc(%ebp)
c010768c:	eb 1a                	jmp    c01076a8 <print_time+0x5d>
c010768e:	c7 45 f4 69 c3 10 c0 	movl   $0xc010c369,-0xc(%ebp)
c0107695:	eb 11                	jmp    c01076a8 <print_time+0x5d>
c0107697:	c7 45 f4 74 c3 10 c0 	movl   $0xc010c374,-0xc(%ebp)
c010769e:	eb 08                	jmp    c01076a8 <print_time+0x5d>
c01076a0:	c7 45 f4 7c c3 10 c0 	movl   $0xc010c37c,-0xc(%ebp)
c01076a7:	90                   	nop
c01076a8:	8b 45 08             	mov    0x8(%ebp),%eax
c01076ab:	0f b6 40 09          	movzbl 0x9(%eax),%eax
c01076af:	0f b6 c8             	movzbl %al,%ecx
c01076b2:	8b 45 08             	mov    0x8(%ebp),%eax
c01076b5:	0f b6 40 08          	movzbl 0x8(%eax),%eax
c01076b9:	0f b6 d0             	movzbl %al,%edx
c01076bc:	8b 45 08             	mov    0x8(%ebp),%eax
c01076bf:	0f b6 40 07          	movzbl 0x7(%eax),%eax
c01076c3:	0f b6 c0             	movzbl %al,%eax
c01076c6:	8b 5d f4             	mov    -0xc(%ebp),%ebx
c01076c9:	89 5c 24 10          	mov    %ebx,0x10(%esp)
c01076cd:	89 4c 24 0c          	mov    %ecx,0xc(%esp)
c01076d1:	89 54 24 08          	mov    %edx,0x8(%esp)
c01076d5:	89 44 24 04          	mov    %eax,0x4(%esp)
c01076d9:	c7 04 24 84 c3 10 c0 	movl   $0xc010c384,(%esp)
c01076e0:	e8 6f db ff ff       	call   c0105254 <printf>
c01076e5:	8b 45 08             	mov    0x8(%ebp),%eax
c01076e8:	0f b6 00             	movzbl (%eax),%eax
c01076eb:	0f b6 c8             	movzbl %al,%ecx
c01076ee:	8b 45 08             	mov    0x8(%ebp),%eax
c01076f1:	0f b6 40 02          	movzbl 0x2(%eax),%eax
c01076f5:	0f b6 d0             	movzbl %al,%edx
c01076f8:	8b 45 08             	mov    0x8(%ebp),%eax
c01076fb:	0f b6 40 04          	movzbl 0x4(%eax),%eax
c01076ff:	0f b6 c0             	movzbl %al,%eax
c0107702:	89 4c 24 0c          	mov    %ecx,0xc(%esp)
c0107706:	89 54 24 08          	mov    %edx,0x8(%esp)
c010770a:	89 44 24 04          	mov    %eax,0x4(%esp)
c010770e:	c7 04 24 a6 c3 10 c0 	movl   $0xc010c3a6,(%esp)
c0107715:	e8 3a db ff ff       	call   c0105254 <printf>
c010771a:	83 c4 34             	add    $0x34,%esp
c010771d:	5b                   	pop    %ebx
c010771e:	5d                   	pop    %ebp
c010771f:	c3                   	ret    

c0107720 <load_elf>:
c0107720:	55                   	push   %ebp
c0107721:	89 e5                	mov    %esp,%ebp
c0107723:	57                   	push   %edi
c0107724:	56                   	push   %esi
c0107725:	53                   	push   %ebx
c0107726:	83 ec 5c             	sub    $0x5c,%esp
c0107729:	8b 45 08             	mov    0x8(%ebp),%eax
c010772c:	89 45 d8             	mov    %eax,-0x28(%ebp)
c010772f:	8b 45 d8             	mov    -0x28(%ebp),%eax
c0107732:	0f b6 00             	movzbl (%eax),%eax
c0107735:	3c 7f                	cmp    $0x7f,%al
c0107737:	75 21                	jne    c010775a <load_elf+0x3a>
c0107739:	8b 45 d8             	mov    -0x28(%ebp),%eax
c010773c:	0f b6 40 01          	movzbl 0x1(%eax),%eax
c0107740:	3c 45                	cmp    $0x45,%al
c0107742:	75 16                	jne    c010775a <load_elf+0x3a>
c0107744:	8b 45 d8             	mov    -0x28(%ebp),%eax
c0107747:	0f b6 40 02          	movzbl 0x2(%eax),%eax
c010774b:	3c 4c                	cmp    $0x4c,%al
c010774d:	75 0b                	jne    c010775a <load_elf+0x3a>
c010774f:	8b 45 d8             	mov    -0x28(%ebp),%eax
c0107752:	0f b6 40 03          	movzbl 0x3(%eax),%eax
c0107756:	3c 46                	cmp    $0x46,%al
c0107758:	74 16                	je     c0107770 <load_elf+0x50>
c010775a:	c7 04 24 e0 c3 10 c0 	movl   $0xc010c3e0,(%esp)
c0107761:	e8 01 e7 ff ff       	call   c0105e67 <puts>
c0107766:	b8 00 00 00 00       	mov    $0x0,%eax
c010776b:	e9 44 02 00 00       	jmp    c01079b4 <load_elf+0x294>
c0107770:	8b 45 d8             	mov    -0x28(%ebp),%eax
c0107773:	8b 40 1c             	mov    0x1c(%eax),%eax
c0107776:	03 45 08             	add    0x8(%ebp),%eax
c0107779:	89 45 e4             	mov    %eax,-0x1c(%ebp)
c010777c:	c7 44 24 0c 00 00 00 	movl   $0x0,0xc(%esp)
c0107783:	00 
c0107784:	c7 44 24 08 01 00 00 	movl   $0x1,0x8(%esp)
c010778b:	00 
c010778c:	c7 44 24 04 f3 c3 10 	movl   $0xc010c3f3,0x4(%esp)
c0107793:	c0 
c0107794:	c7 04 24 f3 c3 10 c0 	movl   $0xc010c3f3,(%esp)
c010779b:	e8 3b 05 00 00       	call   c0107cdb <process_create>
c01077a0:	89 45 d4             	mov    %eax,-0x2c(%ebp)
c01077a3:	8b 45 d8             	mov    -0x28(%ebp),%eax
c01077a6:	8b 40 18             	mov    0x18(%eax),%eax
c01077a9:	c7 44 24 18 00 00 00 	movl   $0x0,0x18(%esp)
c01077b0:	00 
c01077b1:	c7 44 24 14 00 00 00 	movl   $0x0,0x14(%esp)
c01077b8:	00 
c01077b9:	c7 44 24 10 00 00 00 	movl   $0x0,0x10(%esp)
c01077c0:	00 
c01077c1:	c7 44 24 0c 00 00 00 	movl   $0x0,0xc(%esp)
c01077c8:	00 
c01077c9:	89 44 24 08          	mov    %eax,0x8(%esp)
c01077cd:	c7 44 24 04 03 00 00 	movl   $0x3,0x4(%esp)
c01077d4:	00 
c01077d5:	8b 45 d4             	mov    -0x2c(%ebp),%eax
c01077d8:	89 04 24             	mov    %eax,(%esp)
c01077db:	e8 d2 1a 00 00       	call   c01092b2 <thread_create>
c01077e0:	89 45 d0             	mov    %eax,-0x30(%ebp)
c01077e3:	c7 45 e0 00 00 00 00 	movl   $0x0,-0x20(%ebp)
c01077ea:	e9 af 01 00 00       	jmp    c010799e <load_elf+0x27e>
c01077ef:	8b 45 e4             	mov    -0x1c(%ebp),%eax
c01077f2:	8b 00                	mov    (%eax),%eax
c01077f4:	83 f8 01             	cmp    $0x1,%eax
c01077f7:	0f 85 99 01 00 00    	jne    c0107996 <load_elf+0x276>
c01077fd:	8b 45 e4             	mov    -0x1c(%ebp),%eax
c0107800:	8b 40 14             	mov    0x14(%eax),%eax
c0107803:	05 ff 0f 00 00       	add    $0xfff,%eax
c0107808:	25 00 f0 ff ff       	and    $0xfffff000,%eax
c010780d:	c1 e8 0c             	shr    $0xc,%eax
c0107810:	89 45 cc             	mov    %eax,-0x34(%ebp)
c0107813:	a1 00 10 11 c0       	mov    0xc0111000,%eax
c0107818:	c7 44 24 10 02 00 00 	movl   $0x2,0x10(%esp)
c010781f:	00 
c0107820:	c7 44 24 0c ff ff ff 	movl   $0xffffffff,0xc(%esp)
c0107827:	ff 
c0107828:	c7 44 24 08 00 00 00 	movl   $0xc0000000,0x8(%esp)
c010782f:	c0 
c0107830:	8b 55 cc             	mov    -0x34(%ebp),%edx
c0107833:	89 54 24 04          	mov    %edx,0x4(%esp)
c0107837:	89 04 24             	mov    %eax,(%esp)
c010783a:	e8 22 bd ff ff       	call   c0103561 <arch_vaddr_find>
c010783f:	89 45 c8             	mov    %eax,-0x38(%ebp)
c0107842:	c7 45 dc 00 00 00 00 	movl   $0x0,-0x24(%ebp)
c0107849:	e9 f6 00 00 00       	jmp    c0107944 <load_elf+0x224>
c010784e:	e8 c1 28 00 00       	call   c010a114 <pmm_alloc_page>
c0107853:	89 45 c4             	mov    %eax,-0x3c(%ebp)
c0107856:	8b 45 e4             	mov    -0x1c(%ebp),%eax
c0107859:	8b 50 08             	mov    0x8(%eax),%edx
c010785c:	8b 45 dc             	mov    -0x24(%ebp),%eax
c010785f:	c1 e0 0c             	shl    $0xc,%eax
c0107862:	01 d0                	add    %edx,%eax
c0107864:	89 45 c0             	mov    %eax,-0x40(%ebp)
c0107867:	8b 45 e4             	mov    -0x1c(%ebp),%eax
c010786a:	8b 50 04             	mov    0x4(%eax),%edx
c010786d:	8b 45 08             	mov    0x8(%ebp),%eax
c0107870:	01 c2                	add    %eax,%edx
c0107872:	8b 45 dc             	mov    -0x24(%ebp),%eax
c0107875:	c1 e0 0c             	shl    $0xc,%eax
c0107878:	01 d0                	add    %edx,%eax
c010787a:	89 45 bc             	mov    %eax,-0x44(%ebp)
c010787d:	8b 45 dc             	mov    -0x24(%ebp),%eax
c0107880:	c1 e0 0c             	shl    $0xc,%eax
c0107883:	03 45 c8             	add    -0x38(%ebp),%eax
c0107886:	89 45 b8             	mov    %eax,-0x48(%ebp)
c0107889:	8b 45 d0             	mov    -0x30(%ebp),%eax
c010788c:	8d 50 08             	lea    0x8(%eax),%edx
c010788f:	c7 44 24 0c 06 00 00 	movl   $0x6,0xc(%esp)
c0107896:	00 
c0107897:	8b 45 c0             	mov    -0x40(%ebp),%eax
c010789a:	89 44 24 08          	mov    %eax,0x8(%esp)
c010789e:	8b 45 c4             	mov    -0x3c(%ebp),%eax
c01078a1:	89 44 24 04          	mov    %eax,0x4(%esp)
c01078a5:	89 14 24             	mov    %edx,(%esp)
c01078a8:	e8 57 b2 ff ff       	call   c0102b04 <vmm_map>
c01078ad:	a1 00 10 11 c0       	mov    0xc0111000,%eax
c01078b2:	c7 44 24 0c 02 00 00 	movl   $0x2,0xc(%esp)
c01078b9:	00 
c01078ba:	8b 55 b8             	mov    -0x48(%ebp),%edx
c01078bd:	89 54 24 08          	mov    %edx,0x8(%esp)
c01078c1:	8b 55 c4             	mov    -0x3c(%ebp),%edx
c01078c4:	89 54 24 04          	mov    %edx,0x4(%esp)
c01078c8:	89 04 24             	mov    %eax,(%esp)
c01078cb:	e8 34 b2 ff ff       	call   c0102b04 <vmm_map>
c01078d0:	8b 55 bc             	mov    -0x44(%ebp),%edx
c01078d3:	8b 45 b8             	mov    -0x48(%ebp),%eax
c01078d6:	bb 00 10 00 00       	mov    $0x1000,%ebx
c01078db:	89 c1                	mov    %eax,%ecx
c01078dd:	83 e1 01             	and    $0x1,%ecx
c01078e0:	85 c9                	test   %ecx,%ecx
c01078e2:	74 0e                	je     c01078f2 <load_elf+0x1d2>
c01078e4:	0f b6 0a             	movzbl (%edx),%ecx
c01078e7:	88 08                	mov    %cl,(%eax)
c01078e9:	83 c0 01             	add    $0x1,%eax
c01078ec:	83 c2 01             	add    $0x1,%edx
c01078ef:	83 eb 01             	sub    $0x1,%ebx
c01078f2:	89 c1                	mov    %eax,%ecx
c01078f4:	83 e1 02             	and    $0x2,%ecx
c01078f7:	85 c9                	test   %ecx,%ecx
c01078f9:	74 0f                	je     c010790a <load_elf+0x1ea>
c01078fb:	0f b7 0a             	movzwl (%edx),%ecx
c01078fe:	66 89 08             	mov    %cx,(%eax)
c0107901:	83 c0 02             	add    $0x2,%eax
c0107904:	83 c2 02             	add    $0x2,%edx
c0107907:	83 eb 02             	sub    $0x2,%ebx
c010790a:	89 d9                	mov    %ebx,%ecx
c010790c:	c1 e9 02             	shr    $0x2,%ecx
c010790f:	89 c7                	mov    %eax,%edi
c0107911:	89 d6                	mov    %edx,%esi
c0107913:	f3 a5                	rep movsl %ds:(%esi),%es:(%edi)
c0107915:	89 f2                	mov    %esi,%edx
c0107917:	89 f8                	mov    %edi,%eax
c0107919:	b9 00 00 00 00       	mov    $0x0,%ecx
c010791e:	89 de                	mov    %ebx,%esi
c0107920:	83 e6 02             	and    $0x2,%esi
c0107923:	85 f6                	test   %esi,%esi
c0107925:	74 0b                	je     c0107932 <load_elf+0x212>
c0107927:	0f b7 34 0a          	movzwl (%edx,%ecx,1),%esi
c010792b:	66 89 34 08          	mov    %si,(%eax,%ecx,1)
c010792f:	83 c1 02             	add    $0x2,%ecx
c0107932:	83 e3 01             	and    $0x1,%ebx
c0107935:	85 db                	test   %ebx,%ebx
c0107937:	74 07                	je     c0107940 <load_elf+0x220>
c0107939:	0f b6 14 0a          	movzbl (%edx,%ecx,1),%edx
c010793d:	88 14 08             	mov    %dl,(%eax,%ecx,1)
c0107940:	83 45 dc 01          	addl   $0x1,-0x24(%ebp)
c0107944:	8b 45 dc             	mov    -0x24(%ebp),%eax
c0107947:	3b 45 cc             	cmp    -0x34(%ebp),%eax
c010794a:	0f 8c fe fe ff ff    	jl     c010784e <load_elf+0x12e>
c0107950:	8b 45 e4             	mov    -0x1c(%ebp),%eax
c0107953:	8b 50 14             	mov    0x14(%eax),%edx
c0107956:	8b 45 e4             	mov    -0x1c(%ebp),%eax
c0107959:	8b 40 10             	mov    0x10(%eax),%eax
c010795c:	29 c2                	sub    %eax,%edx
c010795e:	8b 45 e4             	mov    -0x1c(%ebp),%eax
c0107961:	8b 40 10             	mov    0x10(%eax),%eax
c0107964:	03 45 c8             	add    -0x38(%ebp),%eax
c0107967:	89 54 24 08          	mov    %edx,0x8(%esp)
c010796b:	c7 44 24 04 00 00 00 	movl   $0x0,0x4(%esp)
c0107972:	00 
c0107973:	89 04 24             	mov    %eax,(%esp)
c0107976:	e8 e6 23 00 00       	call   c0109d61 <memset>
c010797b:	a1 00 10 11 c0       	mov    0xc0111000,%eax
c0107980:	8b 55 cc             	mov    -0x34(%ebp),%edx
c0107983:	89 54 24 08          	mov    %edx,0x8(%esp)
c0107987:	8b 55 c8             	mov    -0x38(%ebp),%edx
c010798a:	89 54 24 04          	mov    %edx,0x4(%esp)
c010798e:	89 04 24             	mov    %eax,(%esp)
c0107991:	e8 12 b2 ff ff       	call   c0102ba8 <vmm_unmap_range>
c0107996:	83 45 e0 01          	addl   $0x1,-0x20(%ebp)
c010799a:	83 45 e4 20          	addl   $0x20,-0x1c(%ebp)
c010799e:	8b 45 d8             	mov    -0x28(%ebp),%eax
c01079a1:	0f b7 40 2c          	movzwl 0x2c(%eax),%eax
c01079a5:	0f b7 c0             	movzwl %ax,%eax
c01079a8:	3b 45 e0             	cmp    -0x20(%ebp),%eax
c01079ab:	0f 8f 3e fe ff ff    	jg     c01077ef <load_elf+0xcf>
c01079b1:	8b 45 d4             	mov    -0x2c(%ebp),%eax
c01079b4:	83 c4 5c             	add    $0x5c,%esp
c01079b7:	5b                   	pop    %ebx
c01079b8:	5e                   	pop    %esi
c01079b9:	5f                   	pop    %edi
c01079ba:	5d                   	pop    %ebp
c01079bb:	c3                   	ret    

c01079bc <INIT_SCHEDULER>:
c01079bc:	55                   	push   %ebp
c01079bd:	89 e5                	mov    %esp,%ebp
c01079bf:	83 ec 28             	sub    $0x28,%esp
c01079c2:	b8 60 f4 10 c0       	mov    $0xc010f460,%eax
c01079c7:	c7 44 24 10 08 00 00 	movl   $0x8,0x10(%esp)
c01079ce:	00 
c01079cf:	c7 44 24 0c 89 00 00 	movl   $0x89,0xc(%esp)
c01079d6:	00 
c01079d7:	c7 44 24 08 68 00 00 	movl   $0x68,0x8(%esp)
c01079de:	00 
c01079df:	89 44 24 04          	mov    %eax,0x4(%esp)
c01079e3:	c7 04 24 05 00 00 00 	movl   $0x5,(%esp)
c01079ea:	e8 81 c2 ff ff       	call   c0103c70 <set_GDT_entry>
c01079ef:	c7 04 24 05 00 00 00 	movl   $0x5,(%esp)
c01079f6:	e8 f6 c2 ff ff       	call   c0103cf1 <load_gdt>
c01079fb:	b8 28 00 00 00       	mov    $0x28,%eax
c0107a00:	0f 00 d8             	ltr    %ax
c0107a03:	c7 04 24 00 10 00 00 	movl   $0x1000,(%esp)
c0107a0a:	e8 55 dd ff ff       	call   c0105764 <malloc>
c0107a0f:	05 00 10 00 00       	add    $0x1000,%eax
c0107a14:	a3 d4 32 11 c0       	mov    %eax,0xc01132d4
c0107a19:	a1 d4 32 11 c0       	mov    0xc01132d4,%eax
c0107a1e:	a3 64 f4 10 c0       	mov    %eax,0xc010f464
c0107a23:	e8 f8 2a 00 00       	call   c010a520 <list_create>
c0107a28:	a3 e0 32 11 c0       	mov    %eax,0xc01132e0
c0107a2d:	e8 ee 2a 00 00       	call   c010a520 <list_create>
c0107a32:	a3 84 10 11 c0       	mov    %eax,0xc0111084
c0107a37:	e8 e4 2a 00 00       	call   c010a520 <list_create>
c0107a3c:	a3 88 10 11 c0       	mov    %eax,0xc0111088
c0107a41:	c7 44 24 0c 00 00 00 	movl   $0x0,0xc(%esp)
c0107a48:	00 
c0107a49:	c7 44 24 08 01 00 00 	movl   $0x1,0x8(%esp)
c0107a50:	00 
c0107a51:	c7 44 24 04 f4 c3 10 	movl   $0xc010c3f4,0x4(%esp)
c0107a58:	c0 
c0107a59:	c7 04 24 04 c4 10 c0 	movl   $0xc010c404,(%esp)
c0107a60:	e8 76 02 00 00       	call   c0107cdb <process_create>
c0107a65:	a3 d8 32 11 c0       	mov    %eax,0xc01132d8
c0107a6a:	a1 d8 32 11 c0       	mov    0xc01132d8,%eax
c0107a6f:	c7 44 24 18 00 00 00 	movl   $0x0,0x18(%esp)
c0107a76:	00 
c0107a77:	c7 44 24 14 00 00 00 	movl   $0x0,0x14(%esp)
c0107a7e:	00 
c0107a7f:	c7 44 24 10 00 00 00 	movl   $0x0,0x10(%esp)
c0107a86:	00 
c0107a87:	c7 44 24 0c 00 00 00 	movl   $0x0,0xc(%esp)
c0107a8e:	00 
c0107a8f:	c7 44 24 08 00 00 00 	movl   $0x0,0x8(%esp)
c0107a96:	00 
c0107a97:	c7 44 24 04 00 00 00 	movl   $0x0,0x4(%esp)
c0107a9e:	00 
c0107a9f:	89 04 24             	mov    %eax,(%esp)
c0107aa2:	e8 0b 18 00 00       	call   c01092b2 <thread_create>
c0107aa7:	a3 dc 32 11 c0       	mov    %eax,0xc01132dc
c0107aac:	c9                   	leave  
c0107aad:	c3                   	ret    

c0107aae <task_schedule>:
c0107aae:	55                   	push   %ebp
c0107aaf:	89 e5                	mov    %esp,%ebp
c0107ab1:	57                   	push   %edi
c0107ab2:	56                   	push   %esi
c0107ab3:	53                   	push   %ebx
c0107ab4:	83 ec 1c             	sub    $0x1c,%esp
c0107ab7:	a1 dc 32 11 c0       	mov    0xc01132dc,%eax
c0107abc:	8b 10                	mov    (%eax),%edx
c0107abe:	8b 45 08             	mov    0x8(%ebp),%eax
c0107ac1:	89 c3                	mov    %eax,%ebx
c0107ac3:	b8 12 00 00 00       	mov    $0x12,%eax
c0107ac8:	89 d7                	mov    %edx,%edi
c0107aca:	89 de                	mov    %ebx,%esi
c0107acc:	89 c1                	mov    %eax,%ecx
c0107ace:	f3 a5                	rep movsl %ds:(%esi),%es:(%edi)
c0107ad0:	a1 dc 32 11 c0       	mov    0xc01132dc,%eax
c0107ad5:	0f b7 40 10          	movzwl 0x10(%eax),%eax
c0107ad9:	0f b7 c0             	movzwl %ax,%eax
c0107adc:	83 e0 08             	and    $0x8,%eax
c0107adf:	85 c0                	test   %eax,%eax
c0107ae1:	0f 84 de 00 00 00    	je     c0107bc5 <task_schedule+0x117>
c0107ae7:	a1 dc 32 11 c0       	mov    0xc01132dc,%eax
c0107aec:	89 04 24             	mov    %eax,(%esp)
c0107aef:	e8 be 1a 00 00       	call   c01095b2 <thread_kill_sub>
c0107af4:	a1 e0 32 11 c0       	mov    0xc01132e0,%eax
c0107af9:	89 04 24             	mov    %eax,(%esp)
c0107afc:	e8 ce 2d 00 00       	call   c010a8cf <list_is_empty>
c0107b01:	85 c0                	test   %eax,%eax
c0107b03:	74 14                	je     c0107b19 <task_schedule+0x6b>
c0107b05:	fb                   	sti    
c0107b06:	90                   	nop
c0107b07:	a1 e0 32 11 c0       	mov    0xc01132e0,%eax
c0107b0c:	89 04 24             	mov    %eax,(%esp)
c0107b0f:	e8 bb 2d 00 00       	call   c010a8cf <list_is_empty>
c0107b14:	85 c0                	test   %eax,%eax
c0107b16:	75 ef                	jne    c0107b07 <task_schedule+0x59>
c0107b18:	fa                   	cli    
c0107b19:	a1 e0 32 11 c0       	mov    0xc01132e0,%eax
c0107b1e:	89 04 24             	mov    %eax,(%esp)
c0107b21:	e8 7e 2d 00 00       	call   c010a8a4 <list_set_first>
c0107b26:	a1 e0 32 11 c0       	mov    0xc01132e0,%eax
c0107b2b:	89 04 24             	mov    %eax,(%esp)
c0107b2e:	e8 1e 2d 00 00       	call   c010a851 <list_get_current>
c0107b33:	a3 dc 32 11 c0       	mov    %eax,0xc01132dc
c0107b38:	a1 dc 32 11 c0       	mov    0xc01132dc,%eax
c0107b3d:	8b 40 08             	mov    0x8(%eax),%eax
c0107b40:	89 04 24             	mov    %eax,(%esp)
c0107b43:	e8 88 af ff ff       	call   c0102ad0 <vmm_switch_context>
c0107b48:	a1 dc 32 11 c0       	mov    0xc01132dc,%eax
c0107b4d:	8b 10                	mov    (%eax),%edx
c0107b4f:	8b 45 08             	mov    0x8(%ebp),%eax
c0107b52:	bb 48 00 00 00       	mov    $0x48,%ebx
c0107b57:	89 c1                	mov    %eax,%ecx
c0107b59:	83 e1 01             	and    $0x1,%ecx
c0107b5c:	85 c9                	test   %ecx,%ecx
c0107b5e:	74 0e                	je     c0107b6e <task_schedule+0xc0>
c0107b60:	0f b6 0a             	movzbl (%edx),%ecx
c0107b63:	88 08                	mov    %cl,(%eax)
c0107b65:	83 c0 01             	add    $0x1,%eax
c0107b68:	83 c2 01             	add    $0x1,%edx
c0107b6b:	83 eb 01             	sub    $0x1,%ebx
c0107b6e:	89 c1                	mov    %eax,%ecx
c0107b70:	83 e1 02             	and    $0x2,%ecx
c0107b73:	85 c9                	test   %ecx,%ecx
c0107b75:	74 0f                	je     c0107b86 <task_schedule+0xd8>
c0107b77:	0f b7 0a             	movzwl (%edx),%ecx
c0107b7a:	66 89 08             	mov    %cx,(%eax)
c0107b7d:	83 c0 02             	add    $0x2,%eax
c0107b80:	83 c2 02             	add    $0x2,%edx
c0107b83:	83 eb 02             	sub    $0x2,%ebx
c0107b86:	89 d9                	mov    %ebx,%ecx
c0107b88:	c1 e9 02             	shr    $0x2,%ecx
c0107b8b:	89 c7                	mov    %eax,%edi
c0107b8d:	89 d6                	mov    %edx,%esi
c0107b8f:	f3 a5                	rep movsl %ds:(%esi),%es:(%edi)
c0107b91:	89 f2                	mov    %esi,%edx
c0107b93:	89 f8                	mov    %edi,%eax
c0107b95:	b9 00 00 00 00       	mov    $0x0,%ecx
c0107b9a:	89 de                	mov    %ebx,%esi
c0107b9c:	83 e6 02             	and    $0x2,%esi
c0107b9f:	85 f6                	test   %esi,%esi
c0107ba1:	74 0b                	je     c0107bae <task_schedule+0x100>
c0107ba3:	0f b7 34 0a          	movzwl (%edx,%ecx,1),%esi
c0107ba7:	66 89 34 08          	mov    %si,(%eax,%ecx,1)
c0107bab:	83 c1 02             	add    $0x2,%ecx
c0107bae:	83 e3 01             	and    $0x1,%ebx
c0107bb1:	85 db                	test   %ebx,%ebx
c0107bb3:	0f 84 f9 00 00 00    	je     c0107cb2 <task_schedule+0x204>
c0107bb9:	0f b6 14 0a          	movzbl (%edx,%ecx,1),%edx
c0107bbd:	88 14 08             	mov    %dl,(%eax,%ecx,1)
c0107bc0:	e9 ed 00 00 00       	jmp    c0107cb2 <task_schedule+0x204>
c0107bc5:	a1 dc 32 11 c0       	mov    0xc01132dc,%eax
c0107bca:	8b 40 0c             	mov    0xc(%eax),%eax
c0107bcd:	85 c0                	test   %eax,%eax
c0107bcf:	0f 85 cf 00 00 00    	jne    c0107ca4 <task_schedule+0x1f6>
c0107bd5:	a1 dc 32 11 c0       	mov    0xc01132dc,%eax
c0107bda:	c7 40 0c 0a 00 00 00 	movl   $0xa,0xc(%eax)
c0107be1:	a1 e0 32 11 c0       	mov    0xc01132e0,%eax
c0107be6:	89 04 24             	mov    %eax,(%esp)
c0107be9:	e8 71 2c 00 00       	call   c010a85f <list_next>
c0107bee:	a1 e0 32 11 c0       	mov    0xc01132e0,%eax
c0107bf3:	89 04 24             	mov    %eax,(%esp)
c0107bf6:	e8 91 2c 00 00       	call   c010a88c <list_is_last>
c0107bfb:	85 c0                	test   %eax,%eax
c0107bfd:	74 0d                	je     c0107c0c <task_schedule+0x15e>
c0107bff:	a1 e0 32 11 c0       	mov    0xc01132e0,%eax
c0107c04:	89 04 24             	mov    %eax,(%esp)
c0107c07:	e8 98 2c 00 00       	call   c010a8a4 <list_set_first>
c0107c0c:	a1 e0 32 11 c0       	mov    0xc01132e0,%eax
c0107c11:	89 04 24             	mov    %eax,(%esp)
c0107c14:	e8 38 2c 00 00       	call   c010a851 <list_get_current>
c0107c19:	a3 dc 32 11 c0       	mov    %eax,0xc01132dc
c0107c1e:	a1 dc 32 11 c0       	mov    0xc01132dc,%eax
c0107c23:	8b 40 08             	mov    0x8(%eax),%eax
c0107c26:	89 04 24             	mov    %eax,(%esp)
c0107c29:	e8 a2 ae ff ff       	call   c0102ad0 <vmm_switch_context>
c0107c2e:	a1 dc 32 11 c0       	mov    0xc01132dc,%eax
c0107c33:	8b 10                	mov    (%eax),%edx
c0107c35:	8b 45 08             	mov    0x8(%ebp),%eax
c0107c38:	bb 48 00 00 00       	mov    $0x48,%ebx
c0107c3d:	89 c1                	mov    %eax,%ecx
c0107c3f:	83 e1 01             	and    $0x1,%ecx
c0107c42:	85 c9                	test   %ecx,%ecx
c0107c44:	74 0e                	je     c0107c54 <task_schedule+0x1a6>
c0107c46:	0f b6 0a             	movzbl (%edx),%ecx
c0107c49:	88 08                	mov    %cl,(%eax)
c0107c4b:	83 c0 01             	add    $0x1,%eax
c0107c4e:	83 c2 01             	add    $0x1,%edx
c0107c51:	83 eb 01             	sub    $0x1,%ebx
c0107c54:	89 c1                	mov    %eax,%ecx
c0107c56:	83 e1 02             	and    $0x2,%ecx
c0107c59:	85 c9                	test   %ecx,%ecx
c0107c5b:	74 0f                	je     c0107c6c <task_schedule+0x1be>
c0107c5d:	0f b7 0a             	movzwl (%edx),%ecx
c0107c60:	66 89 08             	mov    %cx,(%eax)
c0107c63:	83 c0 02             	add    $0x2,%eax
c0107c66:	83 c2 02             	add    $0x2,%edx
c0107c69:	83 eb 02             	sub    $0x2,%ebx
c0107c6c:	89 d9                	mov    %ebx,%ecx
c0107c6e:	c1 e9 02             	shr    $0x2,%ecx
c0107c71:	89 c7                	mov    %eax,%edi
c0107c73:	89 d6                	mov    %edx,%esi
c0107c75:	f3 a5                	rep movsl %ds:(%esi),%es:(%edi)
c0107c77:	89 f2                	mov    %esi,%edx
c0107c79:	89 f8                	mov    %edi,%eax
c0107c7b:	b9 00 00 00 00       	mov    $0x0,%ecx
c0107c80:	89 de                	mov    %ebx,%esi
c0107c82:	83 e6 02             	and    $0x2,%esi
c0107c85:	85 f6                	test   %esi,%esi
c0107c87:	74 0b                	je     c0107c94 <task_schedule+0x1e6>
c0107c89:	0f b7 34 0a          	movzwl (%edx,%ecx,1),%esi
c0107c8d:	66 89 34 08          	mov    %si,(%eax,%ecx,1)
c0107c91:	83 c1 02             	add    $0x2,%ecx
c0107c94:	83 e3 01             	and    $0x1,%ebx
c0107c97:	85 db                	test   %ebx,%ebx
c0107c99:	74 17                	je     c0107cb2 <task_schedule+0x204>
c0107c9b:	0f b6 14 0a          	movzbl (%edx,%ecx,1),%edx
c0107c9f:	88 14 08             	mov    %dl,(%eax,%ecx,1)
c0107ca2:	eb 0e                	jmp    c0107cb2 <task_schedule+0x204>
c0107ca4:	a1 dc 32 11 c0       	mov    0xc01132dc,%eax
c0107ca9:	8b 50 0c             	mov    0xc(%eax),%edx
c0107cac:	83 ea 01             	sub    $0x1,%edx
c0107caf:	89 50 0c             	mov    %edx,0xc(%eax)
c0107cb2:	c7 04 24 00 00 00 00 	movl   $0x0,(%esp)
c0107cb9:	e8 e8 0a 00 00       	call   c01087a6 <EOI>
c0107cbe:	8b 45 08             	mov    0x8(%ebp),%eax
c0107cc1:	83 c4 1c             	add    $0x1c,%esp
c0107cc4:	5b                   	pop    %ebx
c0107cc5:	5e                   	pop    %esi
c0107cc6:	5f                   	pop    %edi
c0107cc7:	5d                   	pop    %ebp
c0107cc8:	c3                   	ret    
c0107cc9:	00 00                	add    %al,(%eax)
	...

c0107ccc <min>:
c0107ccc:	55                   	push   %ebp
c0107ccd:	89 e5                	mov    %esp,%ebp
c0107ccf:	8b 45 08             	mov    0x8(%ebp),%eax
c0107cd2:	39 45 0c             	cmp    %eax,0xc(%ebp)
c0107cd5:	0f 4e 45 0c          	cmovle 0xc(%ebp),%eax
c0107cd9:	5d                   	pop    %ebp
c0107cda:	c3                   	ret    

c0107cdb <process_create>:
c0107cdb:	55                   	push   %ebp
c0107cdc:	89 e5                	mov    %esp,%ebp
c0107cde:	57                   	push   %edi
c0107cdf:	83 ec 54             	sub    $0x54,%esp
c0107ce2:	8b 45 10             	mov    0x10(%ebp),%eax
c0107ce5:	66 89 45 c4          	mov    %ax,-0x3c(%ebp)
c0107ce9:	c7 04 24 34 00 00 00 	movl   $0x34,(%esp)
c0107cf0:	e8 6f da ff ff       	call   c0105764 <malloc>
c0107cf5:	89 45 f4             	mov    %eax,-0xc(%ebp)
c0107cf8:	8b 45 08             	mov    0x8(%ebp),%eax
c0107cfb:	c7 45 c0 ff ff ff ff 	movl   $0xffffffff,-0x40(%ebp)
c0107d02:	89 c2                	mov    %eax,%edx
c0107d04:	b8 00 00 00 00       	mov    $0x0,%eax
c0107d09:	8b 4d c0             	mov    -0x40(%ebp),%ecx
c0107d0c:	89 d7                	mov    %edx,%edi
c0107d0e:	f2 ae                	repnz scas %es:(%edi),%al
c0107d10:	89 c8                	mov    %ecx,%eax
c0107d12:	f7 d0                	not    %eax
c0107d14:	83 e8 01             	sub    $0x1,%eax
c0107d17:	c7 44 24 04 ff 00 00 	movl   $0xff,0x4(%esp)
c0107d1e:	00 
c0107d1f:	89 04 24             	mov    %eax,(%esp)
c0107d22:	e8 a5 ff ff ff       	call   c0107ccc <min>
c0107d27:	89 45 f0             	mov    %eax,-0x10(%ebp)
c0107d2a:	8b 45 f0             	mov    -0x10(%ebp),%eax
c0107d2d:	83 c0 01             	add    $0x1,%eax
c0107d30:	89 04 24             	mov    %eax,(%esp)
c0107d33:	e8 2c da ff ff       	call   c0105764 <malloc>
c0107d38:	89 c2                	mov    %eax,%edx
c0107d3a:	8b 45 f4             	mov    -0xc(%ebp),%eax
c0107d3d:	89 50 04             	mov    %edx,0x4(%eax)
c0107d40:	8b 55 f0             	mov    -0x10(%ebp),%edx
c0107d43:	8b 45 f4             	mov    -0xc(%ebp),%eax
c0107d46:	8b 40 04             	mov    0x4(%eax),%eax
c0107d49:	89 54 24 08          	mov    %edx,0x8(%esp)
c0107d4d:	8b 55 08             	mov    0x8(%ebp),%edx
c0107d50:	89 54 24 04          	mov    %edx,0x4(%esp)
c0107d54:	89 04 24             	mov    %eax,(%esp)
c0107d57:	e8 d4 1a 00 00       	call   c0109830 <strncpy>
c0107d5c:	8b 45 f4             	mov    -0xc(%ebp),%eax
c0107d5f:	8b 40 04             	mov    0x4(%eax),%eax
c0107d62:	8b 55 f0             	mov    -0x10(%ebp),%edx
c0107d65:	83 c2 01             	add    $0x1,%edx
c0107d68:	01 d0                	add    %edx,%eax
c0107d6a:	c6 00 00             	movb   $0x0,(%eax)
c0107d6d:	8b 45 0c             	mov    0xc(%ebp),%eax
c0107d70:	c7 45 c0 ff ff ff ff 	movl   $0xffffffff,-0x40(%ebp)
c0107d77:	89 c2                	mov    %eax,%edx
c0107d79:	b8 00 00 00 00       	mov    $0x0,%eax
c0107d7e:	8b 4d c0             	mov    -0x40(%ebp),%ecx
c0107d81:	89 d7                	mov    %edx,%edi
c0107d83:	f2 ae                	repnz scas %es:(%edi),%al
c0107d85:	89 c8                	mov    %ecx,%eax
c0107d87:	f7 d0                	not    %eax
c0107d89:	83 e8 01             	sub    $0x1,%eax
c0107d8c:	c7 44 24 04 ff 00 00 	movl   $0xff,0x4(%esp)
c0107d93:	00 
c0107d94:	89 04 24             	mov    %eax,(%esp)
c0107d97:	e8 30 ff ff ff       	call   c0107ccc <min>
c0107d9c:	89 45 f0             	mov    %eax,-0x10(%ebp)
c0107d9f:	8b 45 f0             	mov    -0x10(%ebp),%eax
c0107da2:	83 c0 01             	add    $0x1,%eax
c0107da5:	89 04 24             	mov    %eax,(%esp)
c0107da8:	e8 b7 d9 ff ff       	call   c0105764 <malloc>
c0107dad:	89 c2                	mov    %eax,%edx
c0107daf:	8b 45 f4             	mov    -0xc(%ebp),%eax
c0107db2:	89 50 08             	mov    %edx,0x8(%eax)
c0107db5:	8b 55 f0             	mov    -0x10(%ebp),%edx
c0107db8:	8b 45 f4             	mov    -0xc(%ebp),%eax
c0107dbb:	8b 40 08             	mov    0x8(%eax),%eax
c0107dbe:	89 54 24 08          	mov    %edx,0x8(%esp)
c0107dc2:	8b 55 0c             	mov    0xc(%ebp),%edx
c0107dc5:	89 54 24 04          	mov    %edx,0x4(%esp)
c0107dc9:	89 04 24             	mov    %eax,(%esp)
c0107dcc:	e8 5f 1a 00 00       	call   c0109830 <strncpy>
c0107dd1:	8b 45 f4             	mov    -0xc(%ebp),%eax
c0107dd4:	8b 40 08             	mov    0x8(%eax),%eax
c0107dd7:	8b 55 f0             	mov    -0x10(%ebp),%edx
c0107dda:	83 c2 01             	add    $0x1,%edx
c0107ddd:	01 d0                	add    %edx,%eax
c0107ddf:	c6 00 00             	movb   $0x0,(%eax)
c0107de2:	8b 45 f4             	mov    -0xc(%ebp),%eax
c0107de5:	0f b7 55 c4          	movzwl -0x3c(%ebp),%edx
c0107de9:	66 89 50 30          	mov    %dx,0x30(%eax)
c0107ded:	e8 2e 27 00 00       	call   c010a520 <list_create>
c0107df2:	8b 55 f4             	mov    -0xc(%ebp),%edx
c0107df5:	89 42 14             	mov    %eax,0x14(%edx)
c0107df8:	8b 15 60 10 11 c0    	mov    0xc0111060,%edx
c0107dfe:	8b 45 f4             	mov    -0xc(%ebp),%eax
c0107e01:	89 50 10             	mov    %edx,0x10(%eax)
c0107e04:	e8 17 27 00 00       	call   c010a520 <list_create>
c0107e09:	8b 55 f4             	mov    -0xc(%ebp),%edx
c0107e0c:	89 42 2c             	mov    %eax,0x2c(%edx)
c0107e0f:	e8 0c 27 00 00       	call   c010a520 <list_create>
c0107e14:	8b 55 f4             	mov    -0xc(%ebp),%edx
c0107e17:	89 42 28             	mov    %eax,0x28(%edx)
c0107e1a:	e8 01 27 00 00       	call   c010a520 <list_create>
c0107e1f:	8b 55 f4             	mov    -0xc(%ebp),%edx
c0107e22:	89 42 1c             	mov    %eax,0x1c(%edx)
c0107e25:	e8 f6 26 00 00       	call   c010a520 <list_create>
c0107e2a:	8b 55 f4             	mov    -0xc(%ebp),%edx
c0107e2d:	89 42 18             	mov    %eax,0x18(%edx)
c0107e30:	8b 45 f4             	mov    -0xc(%ebp),%eax
c0107e33:	c7 40 20 00 00 00 00 	movl   $0x0,0x20(%eax)
c0107e3a:	83 7d 14 00          	cmpl   $0x0,0x14(%ebp)
c0107e3e:	75 0e                	jne    c0107e4e <process_create+0x173>
c0107e40:	8b 15 d8 32 11 c0    	mov    0xc01132d8,%edx
c0107e46:	8b 45 f4             	mov    -0xc(%ebp),%eax
c0107e49:	89 50 0c             	mov    %edx,0xc(%eax)
c0107e4c:	eb 09                	jmp    c0107e57 <process_create+0x17c>
c0107e4e:	8b 45 f4             	mov    -0xc(%ebp),%eax
c0107e51:	8b 55 14             	mov    0x14(%ebp),%edx
c0107e54:	89 50 0c             	mov    %edx,0xc(%eax)
c0107e57:	a1 88 10 11 c0       	mov    0xc0111088,%eax
c0107e5c:	89 04 24             	mov    %eax,(%esp)
c0107e5f:	e8 6b 2a 00 00       	call   c010a8cf <list_is_empty>
c0107e64:	85 c0                	test   %eax,%eax
c0107e66:	74 14                	je     c0107e7c <process_create+0x1a1>
c0107e68:	a1 c8 f4 10 c0       	mov    0xc010f4c8,%eax
c0107e6d:	8b 55 f4             	mov    -0xc(%ebp),%edx
c0107e70:	89 02                	mov    %eax,(%edx)
c0107e72:	83 c0 01             	add    $0x1,%eax
c0107e75:	a3 c8 f4 10 c0       	mov    %eax,0xc010f4c8
c0107e7a:	eb 14                	jmp    c0107e90 <process_create+0x1b5>
c0107e7c:	a1 88 10 11 c0       	mov    0xc0111088,%eax
c0107e81:	89 04 24             	mov    %eax,(%esp)
c0107e84:	e8 4c 28 00 00       	call   c010a6d5 <list_pop_front>
c0107e89:	89 c2                	mov    %eax,%edx
c0107e8b:	8b 45 f4             	mov    -0xc(%ebp),%eax
c0107e8e:	89 10                	mov    %edx,(%eax)
c0107e90:	fa                   	cli    
c0107e91:	8b 45 f4             	mov    -0xc(%ebp),%eax
c0107e94:	8b 00                	mov    (%eax),%eax
c0107e96:	83 f8 01             	cmp    $0x1,%eax
c0107e99:	74 39                	je     c0107ed4 <process_create+0x1f9>
c0107e9b:	c7 04 24 08 00 00 00 	movl   $0x8,(%esp)
c0107ea2:	e8 bd d8 ff ff       	call   c0105764 <malloc>
c0107ea7:	89 45 ec             	mov    %eax,-0x14(%ebp)
c0107eaa:	8b 45 ec             	mov    -0x14(%ebp),%eax
c0107ead:	8b 55 f4             	mov    -0xc(%ebp),%edx
c0107eb0:	89 50 04             	mov    %edx,0x4(%eax)
c0107eb3:	8b 45 ec             	mov    -0x14(%ebp),%eax
c0107eb6:	c7 00 00 00 00 00    	movl   $0x0,(%eax)
c0107ebc:	8b 45 f4             	mov    -0xc(%ebp),%eax
c0107ebf:	8b 40 0c             	mov    0xc(%eax),%eax
c0107ec2:	8b 40 2c             	mov    0x2c(%eax),%eax
c0107ec5:	8b 55 ec             	mov    -0x14(%ebp),%edx
c0107ec8:	89 54 24 04          	mov    %edx,0x4(%esp)
c0107ecc:	89 04 24             	mov    %eax,(%esp)
c0107ecf:	e8 94 27 00 00       	call   c010a668 <list_push_front>
c0107ed4:	a1 84 10 11 c0       	mov    0xc0111084,%eax
c0107ed9:	8b 55 f4             	mov    -0xc(%ebp),%edx
c0107edc:	89 54 24 04          	mov    %edx,0x4(%esp)
c0107ee0:	89 04 24             	mov    %eax,(%esp)
c0107ee3:	e8 80 27 00 00       	call   c010a668 <list_push_front>
c0107ee8:	fb                   	sti    
c0107ee9:	c7 44 24 08 00 00 00 	movl   $0x0,0x8(%esp)
c0107ef0:	00 
c0107ef1:	c7 44 24 04 ff 07 00 	movl   $0x7ff,0x4(%esp)
c0107ef8:	00 
c0107ef9:	c7 04 24 10 c4 10 c0 	movl   $0xc010c410,(%esp)
c0107f00:	e8 2e c8 ff ff       	call   c0104733 <vfs_create_inode>
c0107f05:	89 45 e8             	mov    %eax,-0x18(%ebp)
c0107f08:	c7 44 24 08 00 00 00 	movl   $0x0,0x8(%esp)
c0107f0f:	00 
c0107f10:	c7 44 24 04 ff 07 00 	movl   $0x7ff,0x4(%esp)
c0107f17:	00 
c0107f18:	c7 04 24 16 c4 10 c0 	movl   $0xc010c416,(%esp)
c0107f1f:	e8 0f c8 ff ff       	call   c0104733 <vfs_create_inode>
c0107f24:	89 45 e4             	mov    %eax,-0x1c(%ebp)
c0107f27:	c7 44 24 08 00 00 00 	movl   $0x0,0x8(%esp)
c0107f2e:	00 
c0107f2f:	c7 44 24 04 ff 07 00 	movl   $0x7ff,0x4(%esp)
c0107f36:	00 
c0107f37:	c7 04 24 1d c4 10 c0 	movl   $0xc010c41d,(%esp)
c0107f3e:	e8 f0 c7 ff ff       	call   c0104733 <vfs_create_inode>
c0107f43:	89 45 e0             	mov    %eax,-0x20(%ebp)
c0107f46:	c7 04 24 14 00 00 00 	movl   $0x14,(%esp)
c0107f4d:	e8 12 d8 ff ff       	call   c0105764 <malloc>
c0107f52:	89 45 dc             	mov    %eax,-0x24(%ebp)
c0107f55:	8b 45 dc             	mov    -0x24(%ebp),%eax
c0107f58:	c7 00 00 00 00 00    	movl   $0x0,(%eax)
c0107f5e:	8b 45 dc             	mov    -0x24(%ebp),%eax
c0107f61:	c7 40 08 ff 07 00 00 	movl   $0x7ff,0x8(%eax)
c0107f68:	8b 45 dc             	mov    -0x24(%ebp),%eax
c0107f6b:	c7 40 0c 01 00 00 00 	movl   $0x1,0xc(%eax)
c0107f72:	8b 45 dc             	mov    -0x24(%ebp),%eax
c0107f75:	c7 40 10 00 00 00 00 	movl   $0x0,0x10(%eax)
c0107f7c:	8b 45 dc             	mov    -0x24(%ebp),%eax
c0107f7f:	8b 55 e8             	mov    -0x18(%ebp),%edx
c0107f82:	89 50 04             	mov    %edx,0x4(%eax)
c0107f85:	8b 45 f4             	mov    -0xc(%ebp),%eax
c0107f88:	8b 40 14             	mov    0x14(%eax),%eax
c0107f8b:	8b 55 dc             	mov    -0x24(%ebp),%edx
c0107f8e:	89 54 24 04          	mov    %edx,0x4(%esp)
c0107f92:	89 04 24             	mov    %eax,(%esp)
c0107f95:	e8 7c 26 00 00       	call   c010a616 <list_push_back>
c0107f9a:	c7 04 24 14 00 00 00 	movl   $0x14,(%esp)
c0107fa1:	e8 be d7 ff ff       	call   c0105764 <malloc>
c0107fa6:	89 45 d8             	mov    %eax,-0x28(%ebp)
c0107fa9:	8b 45 d8             	mov    -0x28(%ebp),%eax
c0107fac:	c7 00 01 00 00 00    	movl   $0x1,(%eax)
c0107fb2:	8b 45 d8             	mov    -0x28(%ebp),%eax
c0107fb5:	c7 40 08 ff 07 00 00 	movl   $0x7ff,0x8(%eax)
c0107fbc:	8b 45 d8             	mov    -0x28(%ebp),%eax
c0107fbf:	c7 40 0c 02 00 00 00 	movl   $0x2,0xc(%eax)
c0107fc6:	8b 45 d8             	mov    -0x28(%ebp),%eax
c0107fc9:	c7 40 10 00 00 00 00 	movl   $0x0,0x10(%eax)
c0107fd0:	8b 45 d8             	mov    -0x28(%ebp),%eax
c0107fd3:	8b 55 e4             	mov    -0x1c(%ebp),%edx
c0107fd6:	89 50 04             	mov    %edx,0x4(%eax)
c0107fd9:	8b 45 f4             	mov    -0xc(%ebp),%eax
c0107fdc:	8b 40 14             	mov    0x14(%eax),%eax
c0107fdf:	8b 55 d8             	mov    -0x28(%ebp),%edx
c0107fe2:	89 54 24 04          	mov    %edx,0x4(%esp)
c0107fe6:	89 04 24             	mov    %eax,(%esp)
c0107fe9:	e8 28 26 00 00       	call   c010a616 <list_push_back>
c0107fee:	c7 04 24 14 00 00 00 	movl   $0x14,(%esp)
c0107ff5:	e8 6a d7 ff ff       	call   c0105764 <malloc>
c0107ffa:	89 45 d4             	mov    %eax,-0x2c(%ebp)
c0107ffd:	8b 45 d4             	mov    -0x2c(%ebp),%eax
c0108000:	c7 00 02 00 00 00    	movl   $0x2,(%eax)
c0108006:	8b 45 d4             	mov    -0x2c(%ebp),%eax
c0108009:	c7 40 08 ff 07 00 00 	movl   $0x7ff,0x8(%eax)
c0108010:	8b 45 d4             	mov    -0x2c(%ebp),%eax
c0108013:	c7 40 0c 02 00 00 00 	movl   $0x2,0xc(%eax)
c010801a:	8b 45 d4             	mov    -0x2c(%ebp),%eax
c010801d:	c7 40 10 00 00 00 00 	movl   $0x0,0x10(%eax)
c0108024:	8b 45 d4             	mov    -0x2c(%ebp),%eax
c0108027:	8b 55 e0             	mov    -0x20(%ebp),%edx
c010802a:	89 50 04             	mov    %edx,0x4(%eax)
c010802d:	8b 45 f4             	mov    -0xc(%ebp),%eax
c0108030:	8b 40 14             	mov    0x14(%eax),%eax
c0108033:	8b 55 d4             	mov    -0x2c(%ebp),%edx
c0108036:	89 54 24 04          	mov    %edx,0x4(%esp)
c010803a:	89 04 24             	mov    %eax,(%esp)
c010803d:	e8 d4 25 00 00       	call   c010a616 <list_push_back>
c0108042:	eb fe                	jmp    c0108042 <process_create+0x367>

c0108044 <process_kill>:
c0108044:	55                   	push   %ebp
c0108045:	89 e5                	mov    %esp,%ebp
c0108047:	83 ec 28             	sub    $0x28,%esp
c010804a:	fa                   	cli    
c010804b:	8b 45 08             	mov    0x8(%ebp),%eax
c010804e:	8b 40 1c             	mov    0x1c(%eax),%eax
c0108051:	89 04 24             	mov    %eax,(%esp)
c0108054:	e8 4b 28 00 00       	call   c010a8a4 <list_set_first>
c0108059:	eb 51                	jmp    c01080ac <process_kill+0x68>
c010805b:	8b 45 08             	mov    0x8(%ebp),%eax
c010805e:	8b 40 1c             	mov    0x1c(%eax),%eax
c0108061:	89 04 24             	mov    %eax,(%esp)
c0108064:	e8 6c 26 00 00       	call   c010a6d5 <list_pop_front>
c0108069:	89 45 f4             	mov    %eax,-0xc(%ebp)
c010806c:	a1 dc 32 11 c0       	mov    0xc01132dc,%eax
c0108071:	39 45 f4             	cmp    %eax,-0xc(%ebp)
c0108074:	75 2b                	jne    c01080a1 <process_kill+0x5d>
c0108076:	a1 dc 32 11 c0       	mov    0xc01132dc,%eax
c010807b:	8b 15 dc 32 11 c0    	mov    0xc01132dc,%edx
c0108081:	0f b7 52 10          	movzwl 0x10(%edx),%edx
c0108085:	83 ca 08             	or     $0x8,%edx
c0108088:	66 89 50 10          	mov    %dx,0x10(%eax)
c010808c:	8b 45 08             	mov    0x8(%ebp),%eax
c010808f:	0f b7 40 30          	movzwl 0x30(%eax),%eax
c0108093:	89 c2                	mov    %eax,%edx
c0108095:	83 ca 04             	or     $0x4,%edx
c0108098:	8b 45 08             	mov    0x8(%ebp),%eax
c010809b:	66 89 50 30          	mov    %dx,0x30(%eax)
c010809f:	eb 0b                	jmp    c01080ac <process_kill+0x68>
c01080a1:	8b 45 f4             	mov    -0xc(%ebp),%eax
c01080a4:	89 04 24             	mov    %eax,(%esp)
c01080a7:	e8 06 15 00 00       	call   c01095b2 <thread_kill_sub>
c01080ac:	8b 45 08             	mov    0x8(%ebp),%eax
c01080af:	8b 40 1c             	mov    0x1c(%eax),%eax
c01080b2:	89 04 24             	mov    %eax,(%esp)
c01080b5:	e8 15 28 00 00       	call   c010a8cf <list_is_empty>
c01080ba:	85 c0                	test   %eax,%eax
c01080bc:	74 9d                	je     c010805b <process_kill+0x17>
c01080be:	8b 45 08             	mov    0x8(%ebp),%eax
c01080c1:	8b 40 2c             	mov    0x2c(%eax),%eax
c01080c4:	89 04 24             	mov    %eax,(%esp)
c01080c7:	e8 d8 27 00 00       	call   c010a8a4 <list_set_first>
c01080cc:	eb 2a                	jmp    c01080f8 <process_kill+0xb4>
c01080ce:	8b 45 08             	mov    0x8(%ebp),%eax
c01080d1:	8b 40 2c             	mov    0x2c(%eax),%eax
c01080d4:	89 04 24             	mov    %eax,(%esp)
c01080d7:	e8 f9 25 00 00       	call   c010a6d5 <list_pop_front>
c01080dc:	89 45 f0             	mov    %eax,-0x10(%ebp)
c01080df:	8b 45 f0             	mov    -0x10(%ebp),%eax
c01080e2:	8b 40 04             	mov    0x4(%eax),%eax
c01080e5:	89 04 24             	mov    %eax,(%esp)
c01080e8:	e8 57 ff ff ff       	call   c0108044 <process_kill>
c01080ed:	8b 45 f0             	mov    -0x10(%ebp),%eax
c01080f0:	89 04 24             	mov    %eax,(%esp)
c01080f3:	e8 87 d6 ff ff       	call   c010577f <free>
c01080f8:	8b 45 08             	mov    0x8(%ebp),%eax
c01080fb:	8b 40 2c             	mov    0x2c(%eax),%eax
c01080fe:	89 04 24             	mov    %eax,(%esp)
c0108101:	e8 c9 27 00 00       	call   c010a8cf <list_is_empty>
c0108106:	85 c0                	test   %eax,%eax
c0108108:	74 c4                	je     c01080ce <process_kill+0x8a>
c010810a:	8b 45 08             	mov    0x8(%ebp),%eax
c010810d:	8b 40 0c             	mov    0xc(%eax),%eax
c0108110:	8b 40 2c             	mov    0x2c(%eax),%eax
c0108113:	89 04 24             	mov    %eax,(%esp)
c0108116:	e8 89 27 00 00       	call   c010a8a4 <list_set_first>
c010811b:	eb 3c                	jmp    c0108159 <process_kill+0x115>
c010811d:	8b 45 08             	mov    0x8(%ebp),%eax
c0108120:	8b 40 0c             	mov    0xc(%eax),%eax
c0108123:	8b 40 2c             	mov    0x2c(%eax),%eax
c0108126:	89 04 24             	mov    %eax,(%esp)
c0108129:	e8 23 27 00 00       	call   c010a851 <list_get_current>
c010812e:	89 45 ec             	mov    %eax,-0x14(%ebp)
c0108131:	8b 45 ec             	mov    -0x14(%ebp),%eax
c0108134:	8b 40 04             	mov    0x4(%eax),%eax
c0108137:	3b 45 08             	cmp    0x8(%ebp),%eax
c010813a:	75 0c                	jne    c0108148 <process_kill+0x104>
c010813c:	8b 45 ec             	mov    -0x14(%ebp),%eax
c010813f:	c7 40 04 00 00 00 00 	movl   $0x0,0x4(%eax)
c0108146:	eb 26                	jmp    c010816e <process_kill+0x12a>
c0108148:	8b 45 08             	mov    0x8(%ebp),%eax
c010814b:	8b 40 0c             	mov    0xc(%eax),%eax
c010814e:	8b 40 2c             	mov    0x2c(%eax),%eax
c0108151:	89 04 24             	mov    %eax,(%esp)
c0108154:	e8 06 27 00 00       	call   c010a85f <list_next>
c0108159:	8b 45 08             	mov    0x8(%ebp),%eax
c010815c:	8b 40 0c             	mov    0xc(%eax),%eax
c010815f:	8b 40 2c             	mov    0x2c(%eax),%eax
c0108162:	89 04 24             	mov    %eax,(%esp)
c0108165:	e8 65 27 00 00       	call   c010a8cf <list_is_empty>
c010816a:	85 c0                	test   %eax,%eax
c010816c:	74 af                	je     c010811d <process_kill+0xd9>
c010816e:	8b 45 08             	mov    0x8(%ebp),%eax
c0108171:	83 c0 18             	add    $0x18,%eax
c0108174:	89 04 24             	mov    %eax,(%esp)
c0108177:	e8 03 24 00 00       	call   c010a57f <list_destroy>
c010817c:	8b 45 08             	mov    0x8(%ebp),%eax
c010817f:	83 c0 28             	add    $0x28,%eax
c0108182:	89 04 24             	mov    %eax,(%esp)
c0108185:	e8 f5 23 00 00       	call   c010a57f <list_destroy>
c010818a:	a1 84 10 11 c0       	mov    0xc0111084,%eax
c010818f:	89 04 24             	mov    %eax,(%esp)
c0108192:	e8 0d 27 00 00       	call   c010a8a4 <list_set_first>
c0108197:	eb 2e                	jmp    c01081c7 <process_kill+0x183>
c0108199:	a1 84 10 11 c0       	mov    0xc0111084,%eax
c010819e:	89 04 24             	mov    %eax,(%esp)
c01081a1:	e8 ab 26 00 00       	call   c010a851 <list_get_current>
c01081a6:	3b 45 08             	cmp    0x8(%ebp),%eax
c01081a9:	75 0f                	jne    c01081ba <process_kill+0x176>
c01081ab:	a1 84 10 11 c0       	mov    0xc0111084,%eax
c01081b0:	89 04 24             	mov    %eax,(%esp)
c01081b3:	e8 17 26 00 00       	call   c010a7cf <list_remove>
c01081b8:	eb 1e                	jmp    c01081d8 <process_kill+0x194>
c01081ba:	a1 84 10 11 c0       	mov    0xc0111084,%eax
c01081bf:	89 04 24             	mov    %eax,(%esp)
c01081c2:	e8 98 26 00 00       	call   c010a85f <list_next>
c01081c7:	a1 84 10 11 c0       	mov    0xc0111084,%eax
c01081cc:	89 04 24             	mov    %eax,(%esp)
c01081cf:	e8 b8 26 00 00       	call   c010a88c <list_is_last>
c01081d4:	85 c0                	test   %eax,%eax
c01081d6:	74 c1                	je     c0108199 <process_kill+0x155>
c01081d8:	8b 45 08             	mov    0x8(%ebp),%eax
c01081db:	8b 40 04             	mov    0x4(%eax),%eax
c01081de:	89 04 24             	mov    %eax,(%esp)
c01081e1:	e8 99 d5 ff ff       	call   c010577f <free>
c01081e6:	8b 45 08             	mov    0x8(%ebp),%eax
c01081e9:	8b 40 08             	mov    0x8(%eax),%eax
c01081ec:	89 04 24             	mov    %eax,(%esp)
c01081ef:	e8 8b d5 ff ff       	call   c010577f <free>
c01081f4:	8b 45 08             	mov    0x8(%ebp),%eax
c01081f7:	0f b7 40 30          	movzwl 0x30(%eax),%eax
c01081fb:	0f b7 c0             	movzwl %ax,%eax
c01081fe:	83 e0 04             	and    $0x4,%eax
c0108201:	85 c0                	test   %eax,%eax
c0108203:	75 2a                	jne    c010822f <process_kill+0x1eb>
c0108205:	8b 45 08             	mov    0x8(%ebp),%eax
c0108208:	89 04 24             	mov    %eax,(%esp)
c010820b:	e8 6f d5 ff ff       	call   c010577f <free>
c0108210:	a1 e0 32 11 c0       	mov    0xc01132e0,%eax
c0108215:	89 04 24             	mov    %eax,(%esp)
c0108218:	e8 87 26 00 00       	call   c010a8a4 <list_set_first>
c010821d:	a1 e0 32 11 c0       	mov    0xc01132e0,%eax
c0108222:	89 04 24             	mov    %eax,(%esp)
c0108225:	e8 27 26 00 00       	call   c010a851 <list_get_current>
c010822a:	a3 dc 32 11 c0       	mov    %eax,0xc01132dc
c010822f:	fb                   	sti    
c0108230:	c9                   	leave  
c0108231:	c3                   	ret    

c0108232 <process_find>:
c0108232:	55                   	push   %ebp
c0108233:	89 e5                	mov    %esp,%ebp
c0108235:	83 ec 18             	sub    $0x18,%esp
c0108238:	a1 84 10 11 c0       	mov    0xc0111084,%eax
c010823d:	89 04 24             	mov    %eax,(%esp)
c0108240:	e8 5f 26 00 00       	call   c010a8a4 <list_set_first>
c0108245:	eb 30                	jmp    c0108277 <process_find+0x45>
c0108247:	a1 84 10 11 c0       	mov    0xc0111084,%eax
c010824c:	89 04 24             	mov    %eax,(%esp)
c010824f:	e8 fd 25 00 00       	call   c010a851 <list_get_current>
c0108254:	8b 00                	mov    (%eax),%eax
c0108256:	3b 45 08             	cmp    0x8(%ebp),%eax
c0108259:	75 0f                	jne    c010826a <process_find+0x38>
c010825b:	a1 84 10 11 c0       	mov    0xc0111084,%eax
c0108260:	89 04 24             	mov    %eax,(%esp)
c0108263:	e8 e9 25 00 00       	call   c010a851 <list_get_current>
c0108268:	eb 23                	jmp    c010828d <process_find+0x5b>
c010826a:	a1 84 10 11 c0       	mov    0xc0111084,%eax
c010826f:	89 04 24             	mov    %eax,(%esp)
c0108272:	e8 e8 25 00 00       	call   c010a85f <list_next>
c0108277:	a1 84 10 11 c0       	mov    0xc0111084,%eax
c010827c:	89 04 24             	mov    %eax,(%esp)
c010827f:	e8 08 26 00 00       	call   c010a88c <list_is_last>
c0108284:	85 c0                	test   %eax,%eax
c0108286:	74 bf                	je     c0108247 <process_find+0x15>
c0108288:	b8 00 00 00 00       	mov    $0x0,%eax
c010828d:	c9                   	leave  
c010828e:	c3                   	ret    

c010828f <sys_exit>:
c010828f:	55                   	push   %ebp
c0108290:	89 e5                	mov    %esp,%ebp
c0108292:	83 ec 28             	sub    $0x28,%esp
c0108295:	a1 dc 32 11 c0       	mov    0xc01132dc,%eax
c010829a:	8b 40 04             	mov    0x4(%eax),%eax
c010829d:	8b 40 0c             	mov    0xc(%eax),%eax
c01082a0:	8b 40 2c             	mov    0x2c(%eax),%eax
c01082a3:	89 04 24             	mov    %eax,(%esp)
c01082a6:	e8 f9 25 00 00       	call   c010a8a4 <list_set_first>
c01082ab:	eb 52                	jmp    c01082ff <sys_exit+0x70>
c01082ad:	a1 dc 32 11 c0       	mov    0xc01132dc,%eax
c01082b2:	8b 40 04             	mov    0x4(%eax),%eax
c01082b5:	8b 40 0c             	mov    0xc(%eax),%eax
c01082b8:	8b 40 2c             	mov    0x2c(%eax),%eax
c01082bb:	89 04 24             	mov    %eax,(%esp)
c01082be:	e8 8e 25 00 00       	call   c010a851 <list_get_current>
c01082c3:	89 45 f4             	mov    %eax,-0xc(%ebp)
c01082c6:	8b 45 f4             	mov    -0xc(%ebp),%eax
c01082c9:	8b 50 04             	mov    0x4(%eax),%edx
c01082cc:	a1 dc 32 11 c0       	mov    0xc01132dc,%eax
c01082d1:	8b 40 04             	mov    0x4(%eax),%eax
c01082d4:	39 c2                	cmp    %eax,%edx
c01082d6:	75 11                	jne    c01082e9 <sys_exit+0x5a>
c01082d8:	8b 45 08             	mov    0x8(%ebp),%eax
c01082db:	8b 00                	mov    (%eax),%eax
c01082dd:	8b 40 1c             	mov    0x1c(%eax),%eax
c01082e0:	89 c2                	mov    %eax,%edx
c01082e2:	8b 45 f4             	mov    -0xc(%ebp),%eax
c01082e5:	89 10                	mov    %edx,(%eax)
c01082e7:	eb 30                	jmp    c0108319 <sys_exit+0x8a>
c01082e9:	a1 dc 32 11 c0       	mov    0xc01132dc,%eax
c01082ee:	8b 40 04             	mov    0x4(%eax),%eax
c01082f1:	8b 40 0c             	mov    0xc(%eax),%eax
c01082f4:	8b 40 2c             	mov    0x2c(%eax),%eax
c01082f7:	89 04 24             	mov    %eax,(%esp)
c01082fa:	e8 60 25 00 00       	call   c010a85f <list_next>
c01082ff:	a1 dc 32 11 c0       	mov    0xc01132dc,%eax
c0108304:	8b 40 04             	mov    0x4(%eax),%eax
c0108307:	8b 40 0c             	mov    0xc(%eax),%eax
c010830a:	8b 40 2c             	mov    0x2c(%eax),%eax
c010830d:	89 04 24             	mov    %eax,(%esp)
c0108310:	e8 77 25 00 00       	call   c010a88c <list_is_last>
c0108315:	85 c0                	test   %eax,%eax
c0108317:	75 94                	jne    c01082ad <sys_exit+0x1e>
c0108319:	a1 dc 32 11 c0       	mov    0xc01132dc,%eax
c010831e:	8b 40 04             	mov    0x4(%eax),%eax
c0108321:	89 04 24             	mov    %eax,(%esp)
c0108324:	e8 1b fd ff ff       	call   c0108044 <process_kill>
c0108329:	8b 45 08             	mov    0x8(%ebp),%eax
c010832c:	8b 00                	mov    (%eax),%eax
c010832e:	89 04 24             	mov    %eax,(%esp)
c0108331:	e8 78 f7 ff ff       	call   c0107aae <task_schedule>
c0108336:	8b 55 08             	mov    0x8(%ebp),%edx
c0108339:	89 02                	mov    %eax,(%edx)
c010833b:	c9                   	leave  
c010833c:	c3                   	ret    

c010833d <sys_fork>:
c010833d:	55                   	push   %ebp
c010833e:	89 e5                	mov    %esp,%ebp
c0108340:	57                   	push   %edi
c0108341:	56                   	push   %esi
c0108342:	53                   	push   %ebx
c0108343:	83 ec 4c             	sub    $0x4c,%esp
c0108346:	a1 dc 32 11 c0       	mov    0xc01132dc,%eax
c010834b:	8b 58 04             	mov    0x4(%eax),%ebx
c010834e:	a1 dc 32 11 c0       	mov    0xc01132dc,%eax
c0108353:	8b 40 04             	mov    0x4(%eax),%eax
c0108356:	0f b7 40 30          	movzwl 0x30(%eax),%eax
c010835a:	0f b7 c8             	movzwl %ax,%ecx
c010835d:	a1 dc 32 11 c0       	mov    0xc01132dc,%eax
c0108362:	8b 40 04             	mov    0x4(%eax),%eax
c0108365:	8b 50 08             	mov    0x8(%eax),%edx
c0108368:	a1 dc 32 11 c0       	mov    0xc01132dc,%eax
c010836d:	8b 40 04             	mov    0x4(%eax),%eax
c0108370:	8b 40 04             	mov    0x4(%eax),%eax
c0108373:	89 5c 24 0c          	mov    %ebx,0xc(%esp)
c0108377:	89 4c 24 08          	mov    %ecx,0x8(%esp)
c010837b:	89 54 24 04          	mov    %edx,0x4(%esp)
c010837f:	89 04 24             	mov    %eax,(%esp)
c0108382:	e8 54 f9 ff ff       	call   c0107cdb <process_create>
c0108387:	89 45 e0             	mov    %eax,-0x20(%ebp)
c010838a:	8b 45 08             	mov    0x8(%ebp),%eax
c010838d:	8b 10                	mov    (%eax),%edx
c010838f:	a1 dc 32 11 c0       	mov    0xc01132dc,%eax
c0108394:	0f b7 40 10          	movzwl 0x10(%eax),%eax
c0108398:	0f b7 c0             	movzwl %ax,%eax
c010839b:	83 e0 04             	and    $0x4,%eax
c010839e:	85 c0                	test   %eax,%eax
c01083a0:	0f 94 c0             	sete   %al
c01083a3:	0f b6 c0             	movzbl %al,%eax
c01083a6:	c7 44 24 18 00 00 00 	movl   $0x0,0x18(%esp)
c01083ad:	00 
c01083ae:	c7 44 24 14 00 00 00 	movl   $0x0,0x14(%esp)
c01083b5:	00 
c01083b6:	c7 44 24 10 00 00 00 	movl   $0x0,0x10(%esp)
c01083bd:	00 
c01083be:	89 54 24 0c          	mov    %edx,0xc(%esp)
c01083c2:	c7 44 24 08 00 00 00 	movl   $0x0,0x8(%esp)
c01083c9:	00 
c01083ca:	89 44 24 04          	mov    %eax,0x4(%esp)
c01083ce:	8b 45 e0             	mov    -0x20(%ebp),%eax
c01083d1:	89 04 24             	mov    %eax,(%esp)
c01083d4:	e8 d9 0e 00 00       	call   c01092b2 <thread_create>
c01083d9:	89 45 dc             	mov    %eax,-0x24(%ebp)
c01083dc:	c7 45 e4 00 00 00 00 	movl   $0x0,-0x1c(%ebp)
c01083e3:	e9 d0 00 00 00       	jmp    c01084b8 <sys_fork+0x17b>
c01083e8:	a1 dc 32 11 c0       	mov    0xc01132dc,%eax
c01083ed:	8b 40 08             	mov    0x8(%eax),%eax
c01083f0:	8b 00                	mov    (%eax),%eax
c01083f2:	8b 55 e4             	mov    -0x1c(%ebp),%edx
c01083f5:	c1 e2 02             	shl    $0x2,%edx
c01083f8:	01 d0                	add    %edx,%eax
c01083fa:	8b 00                	mov    (%eax),%eax
c01083fc:	85 c0                	test   %eax,%eax
c01083fe:	0f 84 b0 00 00 00    	je     c01084b4 <sys_fork+0x177>
c0108404:	8b 45 dc             	mov    -0x24(%ebp),%eax
c0108407:	8b 40 08             	mov    0x8(%eax),%eax
c010840a:	c7 44 24 08 05 00 00 	movl   $0x5,0x8(%esp)
c0108411:	00 
c0108412:	8b 55 e4             	mov    -0x1c(%ebp),%edx
c0108415:	89 54 24 04          	mov    %edx,0x4(%esp)
c0108419:	89 04 24             	mov    %eax,(%esp)
c010841c:	e8 95 ae ff ff       	call   c01032b6 <pt_create>
c0108421:	89 45 d8             	mov    %eax,-0x28(%ebp)
c0108424:	8b 45 dc             	mov    -0x24(%ebp),%eax
c0108427:	8b 40 08             	mov    0x8(%eax),%eax
c010842a:	c7 44 24 08 05 00 00 	movl   $0x5,0x8(%esp)
c0108431:	00 
c0108432:	8b 55 e4             	mov    -0x1c(%ebp),%edx
c0108435:	89 54 24 04          	mov    %edx,0x4(%esp)
c0108439:	89 04 24             	mov    %eax,(%esp)
c010843c:	e8 f0 ad ff ff       	call   c0103231 <pt_get>
c0108441:	89 45 d4             	mov    %eax,-0x2c(%ebp)
c0108444:	8b 45 d8             	mov    -0x28(%ebp),%eax
c0108447:	8b 55 d4             	mov    -0x2c(%ebp),%edx
c010844a:	bb 00 10 00 00       	mov    $0x1000,%ebx
c010844f:	89 c1                	mov    %eax,%ecx
c0108451:	83 e1 01             	and    $0x1,%ecx
c0108454:	85 c9                	test   %ecx,%ecx
c0108456:	74 0e                	je     c0108466 <sys_fork+0x129>
c0108458:	0f b6 0a             	movzbl (%edx),%ecx
c010845b:	88 08                	mov    %cl,(%eax)
c010845d:	83 c0 01             	add    $0x1,%eax
c0108460:	83 c2 01             	add    $0x1,%edx
c0108463:	83 eb 01             	sub    $0x1,%ebx
c0108466:	89 c1                	mov    %eax,%ecx
c0108468:	83 e1 02             	and    $0x2,%ecx
c010846b:	85 c9                	test   %ecx,%ecx
c010846d:	74 0f                	je     c010847e <sys_fork+0x141>
c010846f:	0f b7 0a             	movzwl (%edx),%ecx
c0108472:	66 89 08             	mov    %cx,(%eax)
c0108475:	83 c0 02             	add    $0x2,%eax
c0108478:	83 c2 02             	add    $0x2,%edx
c010847b:	83 eb 02             	sub    $0x2,%ebx
c010847e:	89 d9                	mov    %ebx,%ecx
c0108480:	c1 e9 02             	shr    $0x2,%ecx
c0108483:	89 c7                	mov    %eax,%edi
c0108485:	89 d6                	mov    %edx,%esi
c0108487:	f3 a5                	rep movsl %ds:(%esi),%es:(%edi)
c0108489:	89 f2                	mov    %esi,%edx
c010848b:	89 f8                	mov    %edi,%eax
c010848d:	b9 00 00 00 00       	mov    $0x0,%ecx
c0108492:	89 de                	mov    %ebx,%esi
c0108494:	83 e6 02             	and    $0x2,%esi
c0108497:	85 f6                	test   %esi,%esi
c0108499:	74 0b                	je     c01084a6 <sys_fork+0x169>
c010849b:	0f b7 34 0a          	movzwl (%edx,%ecx,1),%esi
c010849f:	66 89 34 08          	mov    %si,(%eax,%ecx,1)
c01084a3:	83 c1 02             	add    $0x2,%ecx
c01084a6:	83 e3 01             	and    $0x1,%ebx
c01084a9:	85 db                	test   %ebx,%ebx
c01084ab:	74 07                	je     c01084b4 <sys_fork+0x177>
c01084ad:	0f b6 14 0a          	movzbl (%edx,%ecx,1),%edx
c01084b1:	88 14 08             	mov    %dl,(%eax,%ecx,1)
c01084b4:	83 45 e4 01          	addl   $0x1,-0x1c(%ebp)
c01084b8:	8b 45 e4             	mov    -0x1c(%ebp),%eax
c01084bb:	3d ff 02 00 00       	cmp    $0x2ff,%eax
c01084c0:	0f 86 22 ff ff ff    	jbe    c01083e8 <sys_fork+0xab>
c01084c6:	8b 45 dc             	mov    -0x24(%ebp),%eax
c01084c9:	8b 00                	mov    (%eax),%eax
c01084cb:	c7 40 28 00 00 00 00 	movl   $0x0,0x28(%eax)
c01084d2:	a1 dc 32 11 c0       	mov    0xc01132dc,%eax
c01084d7:	8b 00                	mov    (%eax),%eax
c01084d9:	8b 55 e0             	mov    -0x20(%ebp),%edx
c01084dc:	8b 12                	mov    (%edx),%edx
c01084de:	89 50 28             	mov    %edx,0x28(%eax)
c01084e1:	83 c4 4c             	add    $0x4c,%esp
c01084e4:	5b                   	pop    %ebx
c01084e5:	5e                   	pop    %esi
c01084e6:	5f                   	pop    %edi
c01084e7:	5d                   	pop    %ebp
c01084e8:	c3                   	ret    

c01084e9 <sys_waitpid>:
c01084e9:	55                   	push   %ebp
c01084ea:	89 e5                	mov    %esp,%ebp
c01084ec:	83 ec 28             	sub    $0x28,%esp
c01084ef:	a1 dc 32 11 c0       	mov    0xc01132dc,%eax
c01084f4:	8b 40 04             	mov    0x4(%eax),%eax
c01084f7:	8b 40 2c             	mov    0x2c(%eax),%eax
c01084fa:	89 04 24             	mov    %eax,(%esp)
c01084fd:	e8 cd 23 00 00       	call   c010a8cf <list_is_empty>
c0108502:	85 c0                	test   %eax,%eax
c0108504:	75 76                	jne    c010857c <sys_waitpid+0x93>
c0108506:	a1 dc 32 11 c0       	mov    0xc01132dc,%eax
c010850b:	8b 40 04             	mov    0x4(%eax),%eax
c010850e:	8b 40 2c             	mov    0x2c(%eax),%eax
c0108511:	89 04 24             	mov    %eax,(%esp)
c0108514:	e8 8b 23 00 00       	call   c010a8a4 <list_set_first>
c0108519:	eb 4a                	jmp    c0108565 <sys_waitpid+0x7c>
c010851b:	a1 dc 32 11 c0       	mov    0xc01132dc,%eax
c0108520:	8b 40 04             	mov    0x4(%eax),%eax
c0108523:	8b 40 2c             	mov    0x2c(%eax),%eax
c0108526:	89 04 24             	mov    %eax,(%esp)
c0108529:	e8 23 23 00 00       	call   c010a851 <list_get_current>
c010852e:	89 45 f4             	mov    %eax,-0xc(%ebp)
c0108531:	8b 45 f4             	mov    -0xc(%ebp),%eax
c0108534:	8b 40 04             	mov    0x4(%eax),%eax
c0108537:	85 c0                	test   %eax,%eax
c0108539:	75 17                	jne    c0108552 <sys_waitpid+0x69>
c010853b:	8b 45 08             	mov    0x8(%ebp),%eax
c010853e:	8b 00                	mov    (%eax),%eax
c0108540:	8b 40 1c             	mov    0x1c(%eax),%eax
c0108543:	83 f8 ff             	cmp    $0xffffffff,%eax
c0108546:	74 0a                	je     c0108552 <sys_waitpid+0x69>
c0108548:	8b 45 08             	mov    0x8(%ebp),%eax
c010854b:	8b 00                	mov    (%eax),%eax
c010854d:	8b 40 1c             	mov    0x1c(%eax),%eax
c0108550:	85 c0                	test   %eax,%eax
c0108552:	a1 dc 32 11 c0       	mov    0xc01132dc,%eax
c0108557:	8b 40 04             	mov    0x4(%eax),%eax
c010855a:	8b 40 2c             	mov    0x2c(%eax),%eax
c010855d:	89 04 24             	mov    %eax,(%esp)
c0108560:	e8 fa 22 00 00       	call   c010a85f <list_next>
c0108565:	a1 dc 32 11 c0       	mov    0xc01132dc,%eax
c010856a:	8b 40 04             	mov    0x4(%eax),%eax
c010856d:	8b 40 2c             	mov    0x2c(%eax),%eax
c0108570:	89 04 24             	mov    %eax,(%esp)
c0108573:	e8 14 23 00 00       	call   c010a88c <list_is_last>
c0108578:	85 c0                	test   %eax,%eax
c010857a:	74 9f                	je     c010851b <sys_waitpid+0x32>
c010857c:	c9                   	leave  
c010857d:	c3                   	ret    
	...

c0108580 <isalnum>:
c0108580:	55                   	push   %ebp
c0108581:	89 e5                	mov    %esp,%ebp
c0108583:	83 7d 08 40          	cmpl   $0x40,0x8(%ebp)
c0108587:	7e 06                	jle    c010858f <isalnum+0xf>
c0108589:	83 7d 08 5a          	cmpl   $0x5a,0x8(%ebp)
c010858d:	7e 18                	jle    c01085a7 <isalnum+0x27>
c010858f:	83 7d 08 60          	cmpl   $0x60,0x8(%ebp)
c0108593:	7e 06                	jle    c010859b <isalnum+0x1b>
c0108595:	83 7d 08 7a          	cmpl   $0x7a,0x8(%ebp)
c0108599:	7e 0c                	jle    c01085a7 <isalnum+0x27>
c010859b:	83 7d 08 2f          	cmpl   $0x2f,0x8(%ebp)
c010859f:	7e 0d                	jle    c01085ae <isalnum+0x2e>
c01085a1:	83 7d 08 39          	cmpl   $0x39,0x8(%ebp)
c01085a5:	7f 07                	jg     c01085ae <isalnum+0x2e>
c01085a7:	b8 01 00 00 00       	mov    $0x1,%eax
c01085ac:	eb 05                	jmp    c01085b3 <isalnum+0x33>
c01085ae:	b8 00 00 00 00       	mov    $0x0,%eax
c01085b3:	5d                   	pop    %ebp
c01085b4:	c3                   	ret    

c01085b5 <isalpha>:
c01085b5:	55                   	push   %ebp
c01085b6:	89 e5                	mov    %esp,%ebp
c01085b8:	83 7d 08 40          	cmpl   $0x40,0x8(%ebp)
c01085bc:	7e 06                	jle    c01085c4 <isalpha+0xf>
c01085be:	83 7d 08 5a          	cmpl   $0x5a,0x8(%ebp)
c01085c2:	7e 0c                	jle    c01085d0 <isalpha+0x1b>
c01085c4:	83 7d 08 60          	cmpl   $0x60,0x8(%ebp)
c01085c8:	7e 0d                	jle    c01085d7 <isalpha+0x22>
c01085ca:	83 7d 08 7a          	cmpl   $0x7a,0x8(%ebp)
c01085ce:	7f 07                	jg     c01085d7 <isalpha+0x22>
c01085d0:	b8 01 00 00 00       	mov    $0x1,%eax
c01085d5:	eb 05                	jmp    c01085dc <isalpha+0x27>
c01085d7:	b8 00 00 00 00       	mov    $0x0,%eax
c01085dc:	5d                   	pop    %ebp
c01085dd:	c3                   	ret    

c01085de <iscntrl>:
c01085de:	55                   	push   %ebp
c01085df:	89 e5                	mov    %esp,%ebp
c01085e1:	83 7d 08 00          	cmpl   $0x0,0x8(%ebp)
c01085e5:	78 06                	js     c01085ed <iscntrl+0xf>
c01085e7:	83 7d 08 20          	cmpl   $0x20,0x8(%ebp)
c01085eb:	7f 06                	jg     c01085f3 <iscntrl+0x15>
c01085ed:	83 7d 08 7f          	cmpl   $0x7f,0x8(%ebp)
c01085f1:	75 07                	jne    c01085fa <iscntrl+0x1c>
c01085f3:	b8 01 00 00 00       	mov    $0x1,%eax
c01085f8:	eb 05                	jmp    c01085ff <iscntrl+0x21>
c01085fa:	b8 00 00 00 00       	mov    $0x0,%eax
c01085ff:	5d                   	pop    %ebp
c0108600:	c3                   	ret    

c0108601 <isdigit>:
c0108601:	55                   	push   %ebp
c0108602:	89 e5                	mov    %esp,%ebp
c0108604:	83 7d 08 2f          	cmpl   $0x2f,0x8(%ebp)
c0108608:	7e 0d                	jle    c0108617 <isdigit+0x16>
c010860a:	83 7d 08 39          	cmpl   $0x39,0x8(%ebp)
c010860e:	7f 07                	jg     c0108617 <isdigit+0x16>
c0108610:	b8 01 00 00 00       	mov    $0x1,%eax
c0108615:	eb 05                	jmp    c010861c <isdigit+0x1b>
c0108617:	b8 00 00 00 00       	mov    $0x0,%eax
c010861c:	5d                   	pop    %ebp
c010861d:	c3                   	ret    

c010861e <isgraph>:
c010861e:	55                   	push   %ebp
c010861f:	89 e5                	mov    %esp,%ebp
c0108621:	83 7d 08 20          	cmpl   $0x20,0x8(%ebp)
c0108625:	7e 0d                	jle    c0108634 <isgraph+0x16>
c0108627:	83 7d 08 7e          	cmpl   $0x7e,0x8(%ebp)
c010862b:	7f 07                	jg     c0108634 <isgraph+0x16>
c010862d:	b8 01 00 00 00       	mov    $0x1,%eax
c0108632:	eb 05                	jmp    c0108639 <isgraph+0x1b>
c0108634:	b8 00 00 00 00       	mov    $0x0,%eax
c0108639:	5d                   	pop    %ebp
c010863a:	c3                   	ret    

c010863b <islower>:
c010863b:	55                   	push   %ebp
c010863c:	89 e5                	mov    %esp,%ebp
c010863e:	83 7d 08 60          	cmpl   $0x60,0x8(%ebp)
c0108642:	7e 0d                	jle    c0108651 <islower+0x16>
c0108644:	83 7d 08 7a          	cmpl   $0x7a,0x8(%ebp)
c0108648:	7f 07                	jg     c0108651 <islower+0x16>
c010864a:	b8 01 00 00 00       	mov    $0x1,%eax
c010864f:	eb 05                	jmp    c0108656 <islower+0x1b>
c0108651:	b8 00 00 00 00       	mov    $0x0,%eax
c0108656:	5d                   	pop    %ebp
c0108657:	c3                   	ret    

c0108658 <isprint>:
c0108658:	55                   	push   %ebp
c0108659:	89 e5                	mov    %esp,%ebp
c010865b:	83 7d 08 1f          	cmpl   $0x1f,0x8(%ebp)
c010865f:	7e 0d                	jle    c010866e <isprint+0x16>
c0108661:	83 7d 08 7e          	cmpl   $0x7e,0x8(%ebp)
c0108665:	7f 07                	jg     c010866e <isprint+0x16>
c0108667:	b8 01 00 00 00       	mov    $0x1,%eax
c010866c:	eb 05                	jmp    c0108673 <isprint+0x1b>
c010866e:	b8 00 00 00 00       	mov    $0x0,%eax
c0108673:	5d                   	pop    %ebp
c0108674:	c3                   	ret    

c0108675 <ispunct>:
c0108675:	55                   	push   %ebp
c0108676:	89 e5                	mov    %esp,%ebp
c0108678:	83 7d 08 20          	cmpl   $0x20,0x8(%ebp)
c010867c:	7e 06                	jle    c0108684 <ispunct+0xf>
c010867e:	83 7d 08 2f          	cmpl   $0x2f,0x8(%ebp)
c0108682:	7e 24                	jle    c01086a8 <ispunct+0x33>
c0108684:	83 7d 08 39          	cmpl   $0x39,0x8(%ebp)
c0108688:	7e 06                	jle    c0108690 <ispunct+0x1b>
c010868a:	83 7d 08 40          	cmpl   $0x40,0x8(%ebp)
c010868e:	7e 18                	jle    c01086a8 <ispunct+0x33>
c0108690:	83 7d 08 5a          	cmpl   $0x5a,0x8(%ebp)
c0108694:	7e 06                	jle    c010869c <ispunct+0x27>
c0108696:	83 7d 08 60          	cmpl   $0x60,0x8(%ebp)
c010869a:	7e 0c                	jle    c01086a8 <ispunct+0x33>
c010869c:	83 7d 08 7a          	cmpl   $0x7a,0x8(%ebp)
c01086a0:	7e 0d                	jle    c01086af <ispunct+0x3a>
c01086a2:	83 7d 08 7e          	cmpl   $0x7e,0x8(%ebp)
c01086a6:	7f 07                	jg     c01086af <ispunct+0x3a>
c01086a8:	b8 01 00 00 00       	mov    $0x1,%eax
c01086ad:	eb 05                	jmp    c01086b4 <ispunct+0x3f>
c01086af:	b8 00 00 00 00       	mov    $0x0,%eax
c01086b4:	5d                   	pop    %ebp
c01086b5:	c3                   	ret    

c01086b6 <isspace>:
c01086b6:	55                   	push   %ebp
c01086b7:	89 e5                	mov    %esp,%ebp
c01086b9:	83 7d 08 20          	cmpl   $0x20,0x8(%ebp)
c01086bd:	74 1e                	je     c01086dd <isspace+0x27>
c01086bf:	83 7d 08 0c          	cmpl   $0xc,0x8(%ebp)
c01086c3:	74 18                	je     c01086dd <isspace+0x27>
c01086c5:	83 7d 08 0a          	cmpl   $0xa,0x8(%ebp)
c01086c9:	74 12                	je     c01086dd <isspace+0x27>
c01086cb:	83 7d 08 0d          	cmpl   $0xd,0x8(%ebp)
c01086cf:	74 0c                	je     c01086dd <isspace+0x27>
c01086d1:	83 7d 08 09          	cmpl   $0x9,0x8(%ebp)
c01086d5:	74 06                	je     c01086dd <isspace+0x27>
c01086d7:	83 7d 08 0b          	cmpl   $0xb,0x8(%ebp)
c01086db:	75 07                	jne    c01086e4 <isspace+0x2e>
c01086dd:	b8 01 00 00 00       	mov    $0x1,%eax
c01086e2:	eb 05                	jmp    c01086e9 <isspace+0x33>
c01086e4:	b8 00 00 00 00       	mov    $0x0,%eax
c01086e9:	5d                   	pop    %ebp
c01086ea:	c3                   	ret    

c01086eb <isupper>:
c01086eb:	55                   	push   %ebp
c01086ec:	89 e5                	mov    %esp,%ebp
c01086ee:	83 7d 08 40          	cmpl   $0x40,0x8(%ebp)
c01086f2:	7e 0d                	jle    c0108701 <isupper+0x16>
c01086f4:	83 7d 08 5a          	cmpl   $0x5a,0x8(%ebp)
c01086f8:	7f 07                	jg     c0108701 <isupper+0x16>
c01086fa:	b8 01 00 00 00       	mov    $0x1,%eax
c01086ff:	eb 05                	jmp    c0108706 <isupper+0x1b>
c0108701:	b8 00 00 00 00       	mov    $0x0,%eax
c0108706:	5d                   	pop    %ebp
c0108707:	c3                   	ret    

c0108708 <isxdigit>:
c0108708:	55                   	push   %ebp
c0108709:	89 e5                	mov    %esp,%ebp
c010870b:	83 7d 08 2f          	cmpl   $0x2f,0x8(%ebp)
c010870f:	7e 06                	jle    c0108717 <isxdigit+0xf>
c0108711:	83 7d 08 39          	cmpl   $0x39,0x8(%ebp)
c0108715:	7e 18                	jle    c010872f <isxdigit+0x27>
c0108717:	83 7d 08 40          	cmpl   $0x40,0x8(%ebp)
c010871b:	7e 06                	jle    c0108723 <isxdigit+0x1b>
c010871d:	83 7d 08 46          	cmpl   $0x46,0x8(%ebp)
c0108721:	7e 0c                	jle    c010872f <isxdigit+0x27>
c0108723:	83 7d 08 60          	cmpl   $0x60,0x8(%ebp)
c0108727:	7e 0d                	jle    c0108736 <isxdigit+0x2e>
c0108729:	83 7d 08 66          	cmpl   $0x66,0x8(%ebp)
c010872d:	7f 07                	jg     c0108736 <isxdigit+0x2e>
c010872f:	b8 01 00 00 00       	mov    $0x1,%eax
c0108734:	eb 05                	jmp    c010873b <isxdigit+0x33>
c0108736:	b8 00 00 00 00       	mov    $0x0,%eax
c010873b:	5d                   	pop    %ebp
c010873c:	c3                   	ret    

c010873d <tolower>:
c010873d:	55                   	push   %ebp
c010873e:	89 e5                	mov    %esp,%ebp
c0108740:	83 45 08 20          	addl   $0x20,0x8(%ebp)
c0108744:	8b 45 08             	mov    0x8(%ebp),%eax
c0108747:	5d                   	pop    %ebp
c0108748:	c3                   	ret    

c0108749 <toupper>:
c0108749:	55                   	push   %ebp
c010874a:	89 e5                	mov    %esp,%ebp
c010874c:	83 6d 08 20          	subl   $0x20,0x8(%ebp)
c0108750:	8b 45 08             	mov    0x8(%ebp),%eax
c0108753:	5d                   	pop    %ebp
c0108754:	c3                   	ret    
c0108755:	00 00                	add    %al,(%eax)
	...

c0108758 <outb>:
c0108758:	55                   	push   %ebp
c0108759:	89 e5                	mov    %esp,%ebp
c010875b:	83 ec 08             	sub    $0x8,%esp
c010875e:	8b 55 08             	mov    0x8(%ebp),%edx
c0108761:	8b 45 0c             	mov    0xc(%ebp),%eax
c0108764:	66 89 55 fc          	mov    %dx,-0x4(%ebp)
c0108768:	88 45 f8             	mov    %al,-0x8(%ebp)
c010876b:	0f b7 55 fc          	movzwl -0x4(%ebp),%edx
c010876f:	0f b6 45 f8          	movzbl -0x8(%ebp),%eax
c0108773:	ee                   	out    %al,(%dx)
c0108774:	c9                   	leave  
c0108775:	c3                   	ret    

c0108776 <lidt>:
c0108776:	55                   	push   %ebp
c0108777:	89 e5                	mov    %esp,%ebp
c0108779:	83 ec 04             	sub    $0x4,%esp
c010877c:	8b 45 08             	mov    0x8(%ebp),%eax
c010877f:	66 89 45 fc          	mov    %ax,-0x4(%ebp)
c0108783:	0f b7 45 fc          	movzwl -0x4(%ebp),%eax
c0108787:	c1 e0 03             	shl    $0x3,%eax
c010878a:	83 e8 01             	sub    $0x1,%eax
c010878d:	66 a3 a0 18 11 c0    	mov    %ax,0xc01118a0
c0108793:	c7 05 a2 18 11 c0 a0 	movl   $0xc01110a0,0xc01118a2
c010879a:	10 11 c0 
c010879d:	0f 01 1d a0 18 11 c0 	lidtl  0xc01118a0
c01087a4:	c9                   	leave  
c01087a5:	c3                   	ret    

c01087a6 <EOI>:
c01087a6:	55                   	push   %ebp
c01087a7:	89 e5                	mov    %esp,%ebp
c01087a9:	83 ec 08             	sub    $0x8,%esp
c01087ac:	c7 44 24 04 20 00 00 	movl   $0x20,0x4(%esp)
c01087b3:	00 
c01087b4:	c7 04 24 20 00 00 00 	movl   $0x20,(%esp)
c01087bb:	e8 98 ff ff ff       	call   c0108758 <outb>
c01087c0:	83 7d 08 07          	cmpl   $0x7,0x8(%ebp)
c01087c4:	7e 14                	jle    c01087da <EOI+0x34>
c01087c6:	c7 44 24 04 20 00 00 	movl   $0x20,0x4(%esp)
c01087cd:	00 
c01087ce:	c7 04 24 a0 00 00 00 	movl   $0xa0,(%esp)
c01087d5:	e8 7e ff ff ff       	call   c0108758 <outb>
c01087da:	c9                   	leave  
c01087db:	c3                   	ret    

c01087dc <pic_mask_irqs>:
c01087dc:	55                   	push   %ebp
c01087dd:	89 e5                	mov    %esp,%ebp
c01087df:	83 ec 0c             	sub    $0xc,%esp
c01087e2:	8b 45 08             	mov    0x8(%ebp),%eax
c01087e5:	66 89 45 fc          	mov    %ax,-0x4(%ebp)
c01087e9:	0f b7 45 fc          	movzwl -0x4(%ebp),%eax
c01087ed:	0f b6 c0             	movzbl %al,%eax
c01087f0:	89 44 24 04          	mov    %eax,0x4(%esp)
c01087f4:	c7 04 24 21 00 00 00 	movl   $0x21,(%esp)
c01087fb:	e8 58 ff ff ff       	call   c0108758 <outb>
c0108800:	0f b7 45 fc          	movzwl -0x4(%ebp),%eax
c0108804:	0f b6 c0             	movzbl %al,%eax
c0108807:	c1 f8 08             	sar    $0x8,%eax
c010880a:	0f b6 c0             	movzbl %al,%eax
c010880d:	89 44 24 04          	mov    %eax,0x4(%esp)
c0108811:	c7 04 24 a1 00 00 00 	movl   $0xa1,(%esp)
c0108818:	e8 3b ff ff ff       	call   c0108758 <outb>
c010881d:	c9                   	leave  
c010881e:	c3                   	ret    

c010881f <Set_IDT_Entry>:
c010881f:	55                   	push   %ebp
c0108820:	89 e5                	mov    %esp,%ebp
c0108822:	83 ec 08             	sub    $0x8,%esp
c0108825:	8b 55 0c             	mov    0xc(%ebp),%edx
c0108828:	8b 45 14             	mov    0x14(%ebp),%eax
c010882b:	66 89 55 fc          	mov    %dx,-0x4(%ebp)
c010882f:	66 89 45 f8          	mov    %ax,-0x8(%ebp)
c0108833:	8b 45 10             	mov    0x10(%ebp),%eax
c0108836:	89 c2                	mov    %eax,%edx
c0108838:	8b 45 08             	mov    0x8(%ebp),%eax
c010883b:	66 89 14 c5 a0 10 11 	mov    %dx,-0x3feeef60(,%eax,8)
c0108842:	c0 
c0108843:	8b 45 08             	mov    0x8(%ebp),%eax
c0108846:	0f b7 55 fc          	movzwl -0x4(%ebp),%edx
c010884a:	66 89 14 c5 a2 10 11 	mov    %dx,-0x3feeef5e(,%eax,8)
c0108851:	c0 
c0108852:	8b 45 08             	mov    0x8(%ebp),%eax
c0108855:	0f b7 55 f8          	movzwl -0x8(%ebp),%edx
c0108859:	66 89 14 c5 a4 10 11 	mov    %dx,-0x3feeef5c(,%eax,8)
c0108860:	c0 
c0108861:	8b 45 10             	mov    0x10(%ebp),%eax
c0108864:	c1 e8 10             	shr    $0x10,%eax
c0108867:	89 c2                	mov    %eax,%edx
c0108869:	8b 45 08             	mov    0x8(%ebp),%eax
c010886c:	66 89 14 c5 a6 10 11 	mov    %dx,-0x3feeef5a(,%eax,8)
c0108873:	c0 
c0108874:	c9                   	leave  
c0108875:	c3                   	ret    

c0108876 <install_irq>:
c0108876:	55                   	push   %ebp
c0108877:	89 e5                	mov    %esp,%ebp
c0108879:	8b 45 08             	mov    0x8(%ebp),%eax
c010887c:	8b 04 85 c0 18 11 c0 	mov    -0x3feee740(,%eax,4),%eax
c0108883:	85 c0                	test   %eax,%eax
c0108885:	74 07                	je     c010888e <install_irq+0x18>
c0108887:	b8 00 00 00 00       	mov    $0x0,%eax
c010888c:	eb 12                	jmp    c01088a0 <install_irq+0x2a>
c010888e:	8b 55 0c             	mov    0xc(%ebp),%edx
c0108891:	8b 45 08             	mov    0x8(%ebp),%eax
c0108894:	89 14 85 c0 18 11 c0 	mov    %edx,-0x3feee740(,%eax,4)
c010889b:	b8 01 00 00 00       	mov    $0x1,%eax
c01088a0:	5d                   	pop    %ebp
c01088a1:	c3                   	ret    

c01088a2 <install_exc>:
c01088a2:	55                   	push   %ebp
c01088a3:	89 e5                	mov    %esp,%ebp
c01088a5:	8b 45 08             	mov    0x8(%ebp),%eax
c01088a8:	8b 04 85 00 19 11 c0 	mov    -0x3feee700(,%eax,4),%eax
c01088af:	85 c0                	test   %eax,%eax
c01088b1:	74 07                	je     c01088ba <install_exc+0x18>
c01088b3:	b8 00 00 00 00       	mov    $0x0,%eax
c01088b8:	eb 12                	jmp    c01088cc <install_exc+0x2a>
c01088ba:	8b 55 0c             	mov    0xc(%ebp),%edx
c01088bd:	8b 45 08             	mov    0x8(%ebp),%eax
c01088c0:	89 14 85 00 19 11 c0 	mov    %edx,-0x3feee700(,%eax,4)
c01088c7:	b8 01 00 00 00       	mov    $0x1,%eax
c01088cc:	5d                   	pop    %ebp
c01088cd:	c3                   	ret    

c01088ce <deinstall_irq>:
c01088ce:	55                   	push   %ebp
c01088cf:	89 e5                	mov    %esp,%ebp
c01088d1:	8b 45 08             	mov    0x8(%ebp),%eax
c01088d4:	c7 04 85 c0 18 11 c0 	movl   $0x0,-0x3feee740(,%eax,4)
c01088db:	00 00 00 00 
c01088df:	5d                   	pop    %ebp
c01088e0:	c3                   	ret    

c01088e1 <deinstall_exc>:
c01088e1:	55                   	push   %ebp
c01088e2:	89 e5                	mov    %esp,%ebp
c01088e4:	8b 45 08             	mov    0x8(%ebp),%eax
c01088e7:	c7 04 85 00 19 11 c0 	movl   $0x0,-0x3feee700(,%eax,4)
c01088ee:	00 00 00 00 
c01088f2:	5d                   	pop    %ebp
c01088f3:	c3                   	ret    

c01088f4 <irq_handler>:
c01088f4:	55                   	push   %ebp
c01088f5:	89 e5                	mov    %esp,%ebp
c01088f7:	83 ec 28             	sub    $0x28,%esp
c01088fa:	8b 45 08             	mov    0x8(%ebp),%eax
c01088fd:	8b 40 2c             	mov    0x2c(%eax),%eax
c0108900:	83 f8 1f             	cmp    $0x1f,%eax
c0108903:	77 3e                	ja     c0108943 <irq_handler+0x4f>
c0108905:	8b 45 08             	mov    0x8(%ebp),%eax
c0108908:	8b 40 2c             	mov    0x2c(%eax),%eax
c010890b:	8b 04 85 00 19 11 c0 	mov    -0x3feee700(,%eax,4),%eax
c0108912:	85 c0                	test   %eax,%eax
c0108914:	74 1d                	je     c0108933 <irq_handler+0x3f>
c0108916:	8b 45 08             	mov    0x8(%ebp),%eax
c0108919:	8b 40 2c             	mov    0x2c(%eax),%eax
c010891c:	8b 04 85 00 19 11 c0 	mov    -0x3feee700(,%eax,4),%eax
c0108923:	8d 55 08             	lea    0x8(%ebp),%edx
c0108926:	89 14 24             	mov    %edx,(%esp)
c0108929:	ff d0                	call   *%eax
c010892b:	8b 45 08             	mov    0x8(%ebp),%eax
c010892e:	e9 c8 00 00 00       	jmp    c01089fb <irq_handler+0x107>
c0108933:	8b 45 08             	mov    0x8(%ebp),%eax
c0108936:	89 04 24             	mov    %eax,(%esp)
c0108939:	e8 1b a0 ff ff       	call   c0102959 <exc_panic>
c010893e:	e9 b5 00 00 00       	jmp    c01089f8 <irq_handler+0x104>
c0108943:	8b 45 08             	mov    0x8(%ebp),%eax
c0108946:	8b 40 2c             	mov    0x2c(%eax),%eax
c0108949:	83 f8 20             	cmp    $0x20,%eax
c010894c:	75 13                	jne    c0108961 <irq_handler+0x6d>
c010894e:	8b 45 08             	mov    0x8(%ebp),%eax
c0108951:	89 04 24             	mov    %eax,(%esp)
c0108954:	e8 55 f1 ff ff       	call   c0107aae <task_schedule>
c0108959:	89 45 08             	mov    %eax,0x8(%ebp)
c010895c:	e9 97 00 00 00       	jmp    c01089f8 <irq_handler+0x104>
c0108961:	8b 45 08             	mov    0x8(%ebp),%eax
c0108964:	8b 40 2c             	mov    0x2c(%eax),%eax
c0108967:	83 f8 2d             	cmp    $0x2d,%eax
c010896a:	77 3c                	ja     c01089a8 <irq_handler+0xb4>
c010896c:	8b 45 08             	mov    0x8(%ebp),%eax
c010896f:	8b 40 2c             	mov    0x2c(%eax),%eax
c0108972:	83 e8 20             	sub    $0x20,%eax
c0108975:	89 45 f4             	mov    %eax,-0xc(%ebp)
c0108978:	8b 45 f4             	mov    -0xc(%ebp),%eax
c010897b:	8b 04 85 c0 18 11 c0 	mov    -0x3feee740(,%eax,4),%eax
c0108982:	85 c0                	test   %eax,%eax
c0108984:	74 12                	je     c0108998 <irq_handler+0xa4>
c0108986:	8b 45 f4             	mov    -0xc(%ebp),%eax
c0108989:	8b 04 85 c0 18 11 c0 	mov    -0x3feee740(,%eax,4),%eax
c0108990:	8d 55 08             	lea    0x8(%ebp),%edx
c0108993:	89 14 24             	mov    %edx,(%esp)
c0108996:	ff d0                	call   *%eax
c0108998:	8b 45 f4             	mov    -0xc(%ebp),%eax
c010899b:	89 04 24             	mov    %eax,(%esp)
c010899e:	e8 03 fe ff ff       	call   c01087a6 <EOI>
c01089a3:	8b 45 08             	mov    0x8(%ebp),%eax
c01089a6:	eb 53                	jmp    c01089fb <irq_handler+0x107>
c01089a8:	8b 45 08             	mov    0x8(%ebp),%eax
c01089ab:	8b 40 2c             	mov    0x2c(%eax),%eax
c01089ae:	83 f8 70             	cmp    $0x70,%eax
c01089b1:	75 0d                	jne    c01089c0 <irq_handler+0xcc>
c01089b3:	8d 45 08             	lea    0x8(%ebp),%eax
c01089b6:	89 04 24             	mov    %eax,(%esp)
c01089b9:	e8 22 1b 00 00       	call   c010a4e0 <universe_syscall_handler>
c01089be:	eb 38                	jmp    c01089f8 <irq_handler+0x104>
c01089c0:	8b 45 08             	mov    0x8(%ebp),%eax
c01089c3:	8b 40 2c             	mov    0x2c(%eax),%eax
c01089c6:	3d 80 00 00 00       	cmp    $0x80,%eax
c01089cb:	75 0d                	jne    c01089da <irq_handler+0xe6>
c01089cd:	8d 55 08             	lea    0x8(%ebp),%edx
c01089d0:	89 14 24             	mov    %edx,(%esp)
c01089d3:	e8 c9 1a 00 00       	call   c010a4a1 <linux_syscall_handler>
c01089d8:	eb 1e                	jmp    c01089f8 <irq_handler+0x104>
c01089da:	8b 45 08             	mov    0x8(%ebp),%eax
c01089dd:	8b 40 2c             	mov    0x2c(%eax),%eax
c01089e0:	83 f8 32             	cmp    $0x32,%eax
c01089e3:	75 07                	jne    c01089ec <irq_handler+0xf8>
c01089e5:	e8 d2 e0 ff ff       	call   c0106abc <pci_irq_handler>
c01089ea:	eb 0c                	jmp    c01089f8 <irq_handler+0x104>
c01089ec:	c7 04 24 24 c4 10 c0 	movl   $0xc010c424,(%esp)
c01089f3:	e8 88 9c ff ff       	call   c0102680 <panic>
c01089f8:	8b 45 08             	mov    0x8(%ebp),%eax
c01089fb:	c9                   	leave  
c01089fc:	c3                   	ret    

c01089fd <remap_pic>:
c01089fd:	55                   	push   %ebp
c01089fe:	89 e5                	mov    %esp,%ebp
c0108a00:	83 ec 08             	sub    $0x8,%esp
c0108a03:	c7 44 24 04 11 00 00 	movl   $0x11,0x4(%esp)
c0108a0a:	00 
c0108a0b:	c7 04 24 20 00 00 00 	movl   $0x20,(%esp)
c0108a12:	e8 41 fd ff ff       	call   c0108758 <outb>
c0108a17:	c7 44 24 04 11 00 00 	movl   $0x11,0x4(%esp)
c0108a1e:	00 
c0108a1f:	c7 04 24 a0 00 00 00 	movl   $0xa0,(%esp)
c0108a26:	e8 2d fd ff ff       	call   c0108758 <outb>
c0108a2b:	c7 44 24 04 20 00 00 	movl   $0x20,0x4(%esp)
c0108a32:	00 
c0108a33:	c7 04 24 21 00 00 00 	movl   $0x21,(%esp)
c0108a3a:	e8 19 fd ff ff       	call   c0108758 <outb>
c0108a3f:	c7 44 24 04 28 00 00 	movl   $0x28,0x4(%esp)
c0108a46:	00 
c0108a47:	c7 04 24 a1 00 00 00 	movl   $0xa1,(%esp)
c0108a4e:	e8 05 fd ff ff       	call   c0108758 <outb>
c0108a53:	c7 44 24 04 04 00 00 	movl   $0x4,0x4(%esp)
c0108a5a:	00 
c0108a5b:	c7 04 24 21 00 00 00 	movl   $0x21,(%esp)
c0108a62:	e8 f1 fc ff ff       	call   c0108758 <outb>
c0108a67:	c7 44 24 04 02 00 00 	movl   $0x2,0x4(%esp)
c0108a6e:	00 
c0108a6f:	c7 04 24 a1 00 00 00 	movl   $0xa1,(%esp)
c0108a76:	e8 dd fc ff ff       	call   c0108758 <outb>
c0108a7b:	c7 44 24 04 01 00 00 	movl   $0x1,0x4(%esp)
c0108a82:	00 
c0108a83:	c7 04 24 21 00 00 00 	movl   $0x21,(%esp)
c0108a8a:	e8 c9 fc ff ff       	call   c0108758 <outb>
c0108a8f:	c7 44 24 04 01 00 00 	movl   $0x1,0x4(%esp)
c0108a96:	00 
c0108a97:	c7 04 24 a1 00 00 00 	movl   $0xa1,(%esp)
c0108a9e:	e8 b5 fc ff ff       	call   c0108758 <outb>
c0108aa3:	c7 44 24 04 00 00 00 	movl   $0x0,0x4(%esp)
c0108aaa:	00 
c0108aab:	c7 04 24 21 00 00 00 	movl   $0x21,(%esp)
c0108ab2:	e8 a1 fc ff ff       	call   c0108758 <outb>
c0108ab7:	c7 44 24 04 00 00 00 	movl   $0x0,0x4(%esp)
c0108abe:	00 
c0108abf:	c7 04 24 a1 00 00 00 	movl   $0xa1,(%esp)
c0108ac6:	e8 8d fc ff ff       	call   c0108758 <outb>
c0108acb:	c9                   	leave  
c0108acc:	c3                   	ret    

c0108acd <INIT_IDT>:
c0108acd:	55                   	push   %ebp
c0108ace:	89 e5                	mov    %esp,%ebp
c0108ad0:	83 ec 20             	sub    $0x20,%esp
c0108ad3:	e8 25 ff ff ff       	call   c01089fd <remap_pic>
c0108ad8:	c7 45 fc 00 00 00 00 	movl   $0x0,-0x4(%ebp)
c0108adf:	eb 28                	jmp    c0108b09 <INIT_IDT+0x3c>
c0108ae1:	ba 3f aa 10 c0       	mov    $0xc010aa3f,%edx
c0108ae6:	8b 45 fc             	mov    -0x4(%ebp),%eax
c0108ae9:	c7 44 24 0c 00 ee 00 	movl   $0xee00,0xc(%esp)
c0108af0:	00 
c0108af1:	89 54 24 08          	mov    %edx,0x8(%esp)
c0108af5:	c7 44 24 04 08 00 00 	movl   $0x8,0x4(%esp)
c0108afc:	00 
c0108afd:	89 04 24             	mov    %eax,(%esp)
c0108b00:	e8 1a fd ff ff       	call   c010881f <Set_IDT_Entry>
c0108b05:	83 45 fc 01          	addl   $0x1,-0x4(%ebp)
c0108b09:	81 7d fc ff 00 00 00 	cmpl   $0xff,-0x4(%ebp)
c0108b10:	7e cf                	jle    c0108ae1 <INIT_IDT+0x14>
c0108b12:	b8 30 a9 10 c0       	mov    $0xc010a930,%eax
c0108b17:	c7 44 24 0c 00 ee 00 	movl   $0xee00,0xc(%esp)
c0108b1e:	00 
c0108b1f:	89 44 24 08          	mov    %eax,0x8(%esp)
c0108b23:	c7 44 24 04 08 00 00 	movl   $0x8,0x4(%esp)
c0108b2a:	00 
c0108b2b:	c7 04 24 00 00 00 00 	movl   $0x0,(%esp)
c0108b32:	e8 e8 fc ff ff       	call   c010881f <Set_IDT_Entry>
c0108b37:	b8 39 a9 10 c0       	mov    $0xc010a939,%eax
c0108b3c:	c7 44 24 0c 00 ee 00 	movl   $0xee00,0xc(%esp)
c0108b43:	00 
c0108b44:	89 44 24 08          	mov    %eax,0x8(%esp)
c0108b48:	c7 44 24 04 08 00 00 	movl   $0x8,0x4(%esp)
c0108b4f:	00 
c0108b50:	c7 04 24 01 00 00 00 	movl   $0x1,(%esp)
c0108b57:	e8 c3 fc ff ff       	call   c010881f <Set_IDT_Entry>
c0108b5c:	b8 42 a9 10 c0       	mov    $0xc010a942,%eax
c0108b61:	c7 44 24 0c 00 ee 00 	movl   $0xee00,0xc(%esp)
c0108b68:	00 
c0108b69:	89 44 24 08          	mov    %eax,0x8(%esp)
c0108b6d:	c7 44 24 04 08 00 00 	movl   $0x8,0x4(%esp)
c0108b74:	00 
c0108b75:	c7 04 24 02 00 00 00 	movl   $0x2,(%esp)
c0108b7c:	e8 9e fc ff ff       	call   c010881f <Set_IDT_Entry>
c0108b81:	b8 4b a9 10 c0       	mov    $0xc010a94b,%eax
c0108b86:	c7 44 24 0c 00 ee 00 	movl   $0xee00,0xc(%esp)
c0108b8d:	00 
c0108b8e:	89 44 24 08          	mov    %eax,0x8(%esp)
c0108b92:	c7 44 24 04 08 00 00 	movl   $0x8,0x4(%esp)
c0108b99:	00 
c0108b9a:	c7 04 24 03 00 00 00 	movl   $0x3,(%esp)
c0108ba1:	e8 79 fc ff ff       	call   c010881f <Set_IDT_Entry>
c0108ba6:	b8 54 a9 10 c0       	mov    $0xc010a954,%eax
c0108bab:	c7 44 24 0c 00 ee 00 	movl   $0xee00,0xc(%esp)
c0108bb2:	00 
c0108bb3:	89 44 24 08          	mov    %eax,0x8(%esp)
c0108bb7:	c7 44 24 04 08 00 00 	movl   $0x8,0x4(%esp)
c0108bbe:	00 
c0108bbf:	c7 04 24 04 00 00 00 	movl   $0x4,(%esp)
c0108bc6:	e8 54 fc ff ff       	call   c010881f <Set_IDT_Entry>
c0108bcb:	b8 5d a9 10 c0       	mov    $0xc010a95d,%eax
c0108bd0:	c7 44 24 0c 00 ee 00 	movl   $0xee00,0xc(%esp)
c0108bd7:	00 
c0108bd8:	89 44 24 08          	mov    %eax,0x8(%esp)
c0108bdc:	c7 44 24 04 08 00 00 	movl   $0x8,0x4(%esp)
c0108be3:	00 
c0108be4:	c7 04 24 05 00 00 00 	movl   $0x5,(%esp)
c0108beb:	e8 2f fc ff ff       	call   c010881f <Set_IDT_Entry>
c0108bf0:	b8 66 a9 10 c0       	mov    $0xc010a966,%eax
c0108bf5:	c7 44 24 0c 00 ee 00 	movl   $0xee00,0xc(%esp)
c0108bfc:	00 
c0108bfd:	89 44 24 08          	mov    %eax,0x8(%esp)
c0108c01:	c7 44 24 04 08 00 00 	movl   $0x8,0x4(%esp)
c0108c08:	00 
c0108c09:	c7 04 24 06 00 00 00 	movl   $0x6,(%esp)
c0108c10:	e8 0a fc ff ff       	call   c010881f <Set_IDT_Entry>
c0108c15:	b8 6f a9 10 c0       	mov    $0xc010a96f,%eax
c0108c1a:	c7 44 24 0c 00 ee 00 	movl   $0xee00,0xc(%esp)
c0108c21:	00 
c0108c22:	89 44 24 08          	mov    %eax,0x8(%esp)
c0108c26:	c7 44 24 04 08 00 00 	movl   $0x8,0x4(%esp)
c0108c2d:	00 
c0108c2e:	c7 04 24 07 00 00 00 	movl   $0x7,(%esp)
c0108c35:	e8 e5 fb ff ff       	call   c010881f <Set_IDT_Entry>
c0108c3a:	b8 78 a9 10 c0       	mov    $0xc010a978,%eax
c0108c3f:	c7 44 24 0c 00 ee 00 	movl   $0xee00,0xc(%esp)
c0108c46:	00 
c0108c47:	89 44 24 08          	mov    %eax,0x8(%esp)
c0108c4b:	c7 44 24 04 08 00 00 	movl   $0x8,0x4(%esp)
c0108c52:	00 
c0108c53:	c7 04 24 08 00 00 00 	movl   $0x8,(%esp)
c0108c5a:	e8 c0 fb ff ff       	call   c010881f <Set_IDT_Entry>
c0108c5f:	b8 7f a9 10 c0       	mov    $0xc010a97f,%eax
c0108c64:	c7 44 24 0c 00 ee 00 	movl   $0xee00,0xc(%esp)
c0108c6b:	00 
c0108c6c:	89 44 24 08          	mov    %eax,0x8(%esp)
c0108c70:	c7 44 24 04 08 00 00 	movl   $0x8,0x4(%esp)
c0108c77:	00 
c0108c78:	c7 04 24 09 00 00 00 	movl   $0x9,(%esp)
c0108c7f:	e8 9b fb ff ff       	call   c010881f <Set_IDT_Entry>
c0108c84:	b8 88 a9 10 c0       	mov    $0xc010a988,%eax
c0108c89:	c7 44 24 0c 00 ee 00 	movl   $0xee00,0xc(%esp)
c0108c90:	00 
c0108c91:	89 44 24 08          	mov    %eax,0x8(%esp)
c0108c95:	c7 44 24 04 08 00 00 	movl   $0x8,0x4(%esp)
c0108c9c:	00 
c0108c9d:	c7 04 24 0a 00 00 00 	movl   $0xa,(%esp)
c0108ca4:	e8 76 fb ff ff       	call   c010881f <Set_IDT_Entry>
c0108ca9:	b8 8f a9 10 c0       	mov    $0xc010a98f,%eax
c0108cae:	c7 44 24 0c 00 ee 00 	movl   $0xee00,0xc(%esp)
c0108cb5:	00 
c0108cb6:	89 44 24 08          	mov    %eax,0x8(%esp)
c0108cba:	c7 44 24 04 08 00 00 	movl   $0x8,0x4(%esp)
c0108cc1:	00 
c0108cc2:	c7 04 24 0b 00 00 00 	movl   $0xb,(%esp)
c0108cc9:	e8 51 fb ff ff       	call   c010881f <Set_IDT_Entry>
c0108cce:	b8 96 a9 10 c0       	mov    $0xc010a996,%eax
c0108cd3:	c7 44 24 0c 00 ee 00 	movl   $0xee00,0xc(%esp)
c0108cda:	00 
c0108cdb:	89 44 24 08          	mov    %eax,0x8(%esp)
c0108cdf:	c7 44 24 04 08 00 00 	movl   $0x8,0x4(%esp)
c0108ce6:	00 
c0108ce7:	c7 04 24 0c 00 00 00 	movl   $0xc,(%esp)
c0108cee:	e8 2c fb ff ff       	call   c010881f <Set_IDT_Entry>
c0108cf3:	b8 9d a9 10 c0       	mov    $0xc010a99d,%eax
c0108cf8:	c7 44 24 0c 00 ee 00 	movl   $0xee00,0xc(%esp)
c0108cff:	00 
c0108d00:	89 44 24 08          	mov    %eax,0x8(%esp)
c0108d04:	c7 44 24 04 08 00 00 	movl   $0x8,0x4(%esp)
c0108d0b:	00 
c0108d0c:	c7 04 24 0d 00 00 00 	movl   $0xd,(%esp)
c0108d13:	e8 07 fb ff ff       	call   c010881f <Set_IDT_Entry>
c0108d18:	b8 a4 a9 10 c0       	mov    $0xc010a9a4,%eax
c0108d1d:	c7 44 24 0c 00 ee 00 	movl   $0xee00,0xc(%esp)
c0108d24:	00 
c0108d25:	89 44 24 08          	mov    %eax,0x8(%esp)
c0108d29:	c7 44 24 04 08 00 00 	movl   $0x8,0x4(%esp)
c0108d30:	00 
c0108d31:	c7 04 24 0e 00 00 00 	movl   $0xe,(%esp)
c0108d38:	e8 e2 fa ff ff       	call   c010881f <Set_IDT_Entry>
c0108d3d:	b8 ab a9 10 c0       	mov    $0xc010a9ab,%eax
c0108d42:	c7 44 24 0c 00 ee 00 	movl   $0xee00,0xc(%esp)
c0108d49:	00 
c0108d4a:	89 44 24 08          	mov    %eax,0x8(%esp)
c0108d4e:	c7 44 24 04 08 00 00 	movl   $0x8,0x4(%esp)
c0108d55:	00 
c0108d56:	c7 04 24 0f 00 00 00 	movl   $0xf,(%esp)
c0108d5d:	e8 bd fa ff ff       	call   c010881f <Set_IDT_Entry>
c0108d62:	b8 b4 a9 10 c0       	mov    $0xc010a9b4,%eax
c0108d67:	c7 44 24 0c 00 ee 00 	movl   $0xee00,0xc(%esp)
c0108d6e:	00 
c0108d6f:	89 44 24 08          	mov    %eax,0x8(%esp)
c0108d73:	c7 44 24 04 08 00 00 	movl   $0x8,0x4(%esp)
c0108d7a:	00 
c0108d7b:	c7 04 24 10 00 00 00 	movl   $0x10,(%esp)
c0108d82:	e8 98 fa ff ff       	call   c010881f <Set_IDT_Entry>
c0108d87:	b8 bd a9 10 c0       	mov    $0xc010a9bd,%eax
c0108d8c:	c7 44 24 0c 00 ee 00 	movl   $0xee00,0xc(%esp)
c0108d93:	00 
c0108d94:	89 44 24 08          	mov    %eax,0x8(%esp)
c0108d98:	c7 44 24 04 08 00 00 	movl   $0x8,0x4(%esp)
c0108d9f:	00 
c0108da0:	c7 04 24 11 00 00 00 	movl   $0x11,(%esp)
c0108da7:	e8 73 fa ff ff       	call   c010881f <Set_IDT_Entry>
c0108dac:	b8 c4 a9 10 c0       	mov    $0xc010a9c4,%eax
c0108db1:	c7 44 24 0c 00 ee 00 	movl   $0xee00,0xc(%esp)
c0108db8:	00 
c0108db9:	89 44 24 08          	mov    %eax,0x8(%esp)
c0108dbd:	c7 44 24 04 08 00 00 	movl   $0x8,0x4(%esp)
c0108dc4:	00 
c0108dc5:	c7 04 24 12 00 00 00 	movl   $0x12,(%esp)
c0108dcc:	e8 4e fa ff ff       	call   c010881f <Set_IDT_Entry>
c0108dd1:	b8 cd a9 10 c0       	mov    $0xc010a9cd,%eax
c0108dd6:	c7 44 24 0c 00 ee 00 	movl   $0xee00,0xc(%esp)
c0108ddd:	00 
c0108dde:	89 44 24 08          	mov    %eax,0x8(%esp)
c0108de2:	c7 44 24 04 08 00 00 	movl   $0x8,0x4(%esp)
c0108de9:	00 
c0108dea:	c7 04 24 13 00 00 00 	movl   $0x13,(%esp)
c0108df1:	e8 29 fa ff ff       	call   c010881f <Set_IDT_Entry>
c0108df6:	b8 d6 a9 10 c0       	mov    $0xc010a9d6,%eax
c0108dfb:	c7 44 24 0c 00 ee 00 	movl   $0xee00,0xc(%esp)
c0108e02:	00 
c0108e03:	89 44 24 08          	mov    %eax,0x8(%esp)
c0108e07:	c7 44 24 04 08 00 00 	movl   $0x8,0x4(%esp)
c0108e0e:	00 
c0108e0f:	c7 04 24 14 00 00 00 	movl   $0x14,(%esp)
c0108e16:	e8 04 fa ff ff       	call   c010881f <Set_IDT_Entry>
c0108e1b:	b8 df a9 10 c0       	mov    $0xc010a9df,%eax
c0108e20:	c7 44 24 0c 00 ee 00 	movl   $0xee00,0xc(%esp)
c0108e27:	00 
c0108e28:	89 44 24 08          	mov    %eax,0x8(%esp)
c0108e2c:	c7 44 24 04 08 00 00 	movl   $0x8,0x4(%esp)
c0108e33:	00 
c0108e34:	c7 04 24 15 00 00 00 	movl   $0x15,(%esp)
c0108e3b:	e8 df f9 ff ff       	call   c010881f <Set_IDT_Entry>
c0108e40:	b8 e8 a9 10 c0       	mov    $0xc010a9e8,%eax
c0108e45:	c7 44 24 0c 00 ee 00 	movl   $0xee00,0xc(%esp)
c0108e4c:	00 
c0108e4d:	89 44 24 08          	mov    %eax,0x8(%esp)
c0108e51:	c7 44 24 04 08 00 00 	movl   $0x8,0x4(%esp)
c0108e58:	00 
c0108e59:	c7 04 24 16 00 00 00 	movl   $0x16,(%esp)
c0108e60:	e8 ba f9 ff ff       	call   c010881f <Set_IDT_Entry>
c0108e65:	b8 f1 a9 10 c0       	mov    $0xc010a9f1,%eax
c0108e6a:	c7 44 24 0c 00 ee 00 	movl   $0xee00,0xc(%esp)
c0108e71:	00 
c0108e72:	89 44 24 08          	mov    %eax,0x8(%esp)
c0108e76:	c7 44 24 04 08 00 00 	movl   $0x8,0x4(%esp)
c0108e7d:	00 
c0108e7e:	c7 04 24 17 00 00 00 	movl   $0x17,(%esp)
c0108e85:	e8 95 f9 ff ff       	call   c010881f <Set_IDT_Entry>
c0108e8a:	b8 fa a9 10 c0       	mov    $0xc010a9fa,%eax
c0108e8f:	c7 44 24 0c 00 ee 00 	movl   $0xee00,0xc(%esp)
c0108e96:	00 
c0108e97:	89 44 24 08          	mov    %eax,0x8(%esp)
c0108e9b:	c7 44 24 04 08 00 00 	movl   $0x8,0x4(%esp)
c0108ea2:	00 
c0108ea3:	c7 04 24 18 00 00 00 	movl   $0x18,(%esp)
c0108eaa:	e8 70 f9 ff ff       	call   c010881f <Set_IDT_Entry>
c0108eaf:	b8 03 aa 10 c0       	mov    $0xc010aa03,%eax
c0108eb4:	c7 44 24 0c 00 ee 00 	movl   $0xee00,0xc(%esp)
c0108ebb:	00 
c0108ebc:	89 44 24 08          	mov    %eax,0x8(%esp)
c0108ec0:	c7 44 24 04 08 00 00 	movl   $0x8,0x4(%esp)
c0108ec7:	00 
c0108ec8:	c7 04 24 19 00 00 00 	movl   $0x19,(%esp)
c0108ecf:	e8 4b f9 ff ff       	call   c010881f <Set_IDT_Entry>
c0108ed4:	b8 0c aa 10 c0       	mov    $0xc010aa0c,%eax
c0108ed9:	c7 44 24 0c 00 ee 00 	movl   $0xee00,0xc(%esp)
c0108ee0:	00 
c0108ee1:	89 44 24 08          	mov    %eax,0x8(%esp)
c0108ee5:	c7 44 24 04 08 00 00 	movl   $0x8,0x4(%esp)
c0108eec:	00 
c0108eed:	c7 04 24 1a 00 00 00 	movl   $0x1a,(%esp)
c0108ef4:	e8 26 f9 ff ff       	call   c010881f <Set_IDT_Entry>
c0108ef9:	b8 15 aa 10 c0       	mov    $0xc010aa15,%eax
c0108efe:	c7 44 24 0c 00 ee 00 	movl   $0xee00,0xc(%esp)
c0108f05:	00 
c0108f06:	89 44 24 08          	mov    %eax,0x8(%esp)
c0108f0a:	c7 44 24 04 08 00 00 	movl   $0x8,0x4(%esp)
c0108f11:	00 
c0108f12:	c7 04 24 1b 00 00 00 	movl   $0x1b,(%esp)
c0108f19:	e8 01 f9 ff ff       	call   c010881f <Set_IDT_Entry>
c0108f1e:	b8 1e aa 10 c0       	mov    $0xc010aa1e,%eax
c0108f23:	c7 44 24 0c 00 ee 00 	movl   $0xee00,0xc(%esp)
c0108f2a:	00 
c0108f2b:	89 44 24 08          	mov    %eax,0x8(%esp)
c0108f2f:	c7 44 24 04 08 00 00 	movl   $0x8,0x4(%esp)
c0108f36:	00 
c0108f37:	c7 04 24 1c 00 00 00 	movl   $0x1c,(%esp)
c0108f3e:	e8 dc f8 ff ff       	call   c010881f <Set_IDT_Entry>
c0108f43:	b8 27 aa 10 c0       	mov    $0xc010aa27,%eax
c0108f48:	c7 44 24 0c 00 ee 00 	movl   $0xee00,0xc(%esp)
c0108f4f:	00 
c0108f50:	89 44 24 08          	mov    %eax,0x8(%esp)
c0108f54:	c7 44 24 04 08 00 00 	movl   $0x8,0x4(%esp)
c0108f5b:	00 
c0108f5c:	c7 04 24 1d 00 00 00 	movl   $0x1d,(%esp)
c0108f63:	e8 b7 f8 ff ff       	call   c010881f <Set_IDT_Entry>
c0108f68:	b8 30 aa 10 c0       	mov    $0xc010aa30,%eax
c0108f6d:	c7 44 24 0c 00 ee 00 	movl   $0xee00,0xc(%esp)
c0108f74:	00 
c0108f75:	89 44 24 08          	mov    %eax,0x8(%esp)
c0108f79:	c7 44 24 04 08 00 00 	movl   $0x8,0x4(%esp)
c0108f80:	00 
c0108f81:	c7 04 24 1e 00 00 00 	movl   $0x1e,(%esp)
c0108f88:	e8 92 f8 ff ff       	call   c010881f <Set_IDT_Entry>
c0108f8d:	b8 39 aa 10 c0       	mov    $0xc010aa39,%eax
c0108f92:	c7 44 24 0c 00 ee 00 	movl   $0xee00,0xc(%esp)
c0108f99:	00 
c0108f9a:	89 44 24 08          	mov    %eax,0x8(%esp)
c0108f9e:	c7 44 24 04 08 00 00 	movl   $0x8,0x4(%esp)
c0108fa5:	00 
c0108fa6:	c7 04 24 1f 00 00 00 	movl   $0x1f,(%esp)
c0108fad:	e8 6d f8 ff ff       	call   c010881f <Set_IDT_Entry>
c0108fb2:	b8 45 aa 10 c0       	mov    $0xc010aa45,%eax
c0108fb7:	c7 44 24 0c 00 ee 00 	movl   $0xee00,0xc(%esp)
c0108fbe:	00 
c0108fbf:	89 44 24 08          	mov    %eax,0x8(%esp)
c0108fc3:	c7 44 24 04 08 00 00 	movl   $0x8,0x4(%esp)
c0108fca:	00 
c0108fcb:	c7 04 24 20 00 00 00 	movl   $0x20,(%esp)
c0108fd2:	e8 48 f8 ff ff       	call   c010881f <Set_IDT_Entry>
c0108fd7:	b8 4b aa 10 c0       	mov    $0xc010aa4b,%eax
c0108fdc:	c7 44 24 0c 00 ee 00 	movl   $0xee00,0xc(%esp)
c0108fe3:	00 
c0108fe4:	89 44 24 08          	mov    %eax,0x8(%esp)
c0108fe8:	c7 44 24 04 08 00 00 	movl   $0x8,0x4(%esp)
c0108fef:	00 
c0108ff0:	c7 04 24 21 00 00 00 	movl   $0x21,(%esp)
c0108ff7:	e8 23 f8 ff ff       	call   c010881f <Set_IDT_Entry>
c0108ffc:	b8 51 aa 10 c0       	mov    $0xc010aa51,%eax
c0109001:	c7 44 24 0c 00 ee 00 	movl   $0xee00,0xc(%esp)
c0109008:	00 
c0109009:	89 44 24 08          	mov    %eax,0x8(%esp)
c010900d:	c7 44 24 04 08 00 00 	movl   $0x8,0x4(%esp)
c0109014:	00 
c0109015:	c7 04 24 22 00 00 00 	movl   $0x22,(%esp)
c010901c:	e8 fe f7 ff ff       	call   c010881f <Set_IDT_Entry>
c0109021:	b8 57 aa 10 c0       	mov    $0xc010aa57,%eax
c0109026:	c7 44 24 0c 00 ee 00 	movl   $0xee00,0xc(%esp)
c010902d:	00 
c010902e:	89 44 24 08          	mov    %eax,0x8(%esp)
c0109032:	c7 44 24 04 08 00 00 	movl   $0x8,0x4(%esp)
c0109039:	00 
c010903a:	c7 04 24 23 00 00 00 	movl   $0x23,(%esp)
c0109041:	e8 d9 f7 ff ff       	call   c010881f <Set_IDT_Entry>
c0109046:	b8 5d aa 10 c0       	mov    $0xc010aa5d,%eax
c010904b:	c7 44 24 0c 00 ee 00 	movl   $0xee00,0xc(%esp)
c0109052:	00 
c0109053:	89 44 24 08          	mov    %eax,0x8(%esp)
c0109057:	c7 44 24 04 08 00 00 	movl   $0x8,0x4(%esp)
c010905e:	00 
c010905f:	c7 04 24 24 00 00 00 	movl   $0x24,(%esp)
c0109066:	e8 b4 f7 ff ff       	call   c010881f <Set_IDT_Entry>
c010906b:	b8 63 aa 10 c0       	mov    $0xc010aa63,%eax
c0109070:	c7 44 24 0c 00 ee 00 	movl   $0xee00,0xc(%esp)
c0109077:	00 
c0109078:	89 44 24 08          	mov    %eax,0x8(%esp)
c010907c:	c7 44 24 04 08 00 00 	movl   $0x8,0x4(%esp)
c0109083:	00 
c0109084:	c7 04 24 25 00 00 00 	movl   $0x25,(%esp)
c010908b:	e8 8f f7 ff ff       	call   c010881f <Set_IDT_Entry>
c0109090:	b8 69 aa 10 c0       	mov    $0xc010aa69,%eax
c0109095:	c7 44 24 0c 00 ee 00 	movl   $0xee00,0xc(%esp)
c010909c:	00 
c010909d:	89 44 24 08          	mov    %eax,0x8(%esp)
c01090a1:	c7 44 24 04 08 00 00 	movl   $0x8,0x4(%esp)
c01090a8:	00 
c01090a9:	c7 04 24 26 00 00 00 	movl   $0x26,(%esp)
c01090b0:	e8 6a f7 ff ff       	call   c010881f <Set_IDT_Entry>
c01090b5:	b8 6f aa 10 c0       	mov    $0xc010aa6f,%eax
c01090ba:	c7 44 24 0c 00 ee 00 	movl   $0xee00,0xc(%esp)
c01090c1:	00 
c01090c2:	89 44 24 08          	mov    %eax,0x8(%esp)
c01090c6:	c7 44 24 04 08 00 00 	movl   $0x8,0x4(%esp)
c01090cd:	00 
c01090ce:	c7 04 24 27 00 00 00 	movl   $0x27,(%esp)
c01090d5:	e8 45 f7 ff ff       	call   c010881f <Set_IDT_Entry>
c01090da:	b8 75 aa 10 c0       	mov    $0xc010aa75,%eax
c01090df:	c7 44 24 0c 00 ee 00 	movl   $0xee00,0xc(%esp)
c01090e6:	00 
c01090e7:	89 44 24 08          	mov    %eax,0x8(%esp)
c01090eb:	c7 44 24 04 08 00 00 	movl   $0x8,0x4(%esp)
c01090f2:	00 
c01090f3:	c7 04 24 28 00 00 00 	movl   $0x28,(%esp)
c01090fa:	e8 20 f7 ff ff       	call   c010881f <Set_IDT_Entry>
c01090ff:	b8 7b aa 10 c0       	mov    $0xc010aa7b,%eax
c0109104:	c7 44 24 0c 00 ee 00 	movl   $0xee00,0xc(%esp)
c010910b:	00 
c010910c:	89 44 24 08          	mov    %eax,0x8(%esp)
c0109110:	c7 44 24 04 08 00 00 	movl   $0x8,0x4(%esp)
c0109117:	00 
c0109118:	c7 04 24 29 00 00 00 	movl   $0x29,(%esp)
c010911f:	e8 fb f6 ff ff       	call   c010881f <Set_IDT_Entry>
c0109124:	b8 81 aa 10 c0       	mov    $0xc010aa81,%eax
c0109129:	c7 44 24 0c 00 ee 00 	movl   $0xee00,0xc(%esp)
c0109130:	00 
c0109131:	89 44 24 08          	mov    %eax,0x8(%esp)
c0109135:	c7 44 24 04 08 00 00 	movl   $0x8,0x4(%esp)
c010913c:	00 
c010913d:	c7 04 24 2a 00 00 00 	movl   $0x2a,(%esp)
c0109144:	e8 d6 f6 ff ff       	call   c010881f <Set_IDT_Entry>
c0109149:	b8 87 aa 10 c0       	mov    $0xc010aa87,%eax
c010914e:	c7 44 24 0c 00 ee 00 	movl   $0xee00,0xc(%esp)
c0109155:	00 
c0109156:	89 44 24 08          	mov    %eax,0x8(%esp)
c010915a:	c7 44 24 04 08 00 00 	movl   $0x8,0x4(%esp)
c0109161:	00 
c0109162:	c7 04 24 2b 00 00 00 	movl   $0x2b,(%esp)
c0109169:	e8 b1 f6 ff ff       	call   c010881f <Set_IDT_Entry>
c010916e:	b8 8d aa 10 c0       	mov    $0xc010aa8d,%eax
c0109173:	c7 44 24 0c 00 ee 00 	movl   $0xee00,0xc(%esp)
c010917a:	00 
c010917b:	89 44 24 08          	mov    %eax,0x8(%esp)
c010917f:	c7 44 24 04 08 00 00 	movl   $0x8,0x4(%esp)
c0109186:	00 
c0109187:	c7 04 24 2c 00 00 00 	movl   $0x2c,(%esp)
c010918e:	e8 8c f6 ff ff       	call   c010881f <Set_IDT_Entry>
c0109193:	b8 93 aa 10 c0       	mov    $0xc010aa93,%eax
c0109198:	c7 44 24 0c 00 ee 00 	movl   $0xee00,0xc(%esp)
c010919f:	00 
c01091a0:	89 44 24 08          	mov    %eax,0x8(%esp)
c01091a4:	c7 44 24 04 08 00 00 	movl   $0x8,0x4(%esp)
c01091ab:	00 
c01091ac:	c7 04 24 2d 00 00 00 	movl   $0x2d,(%esp)
c01091b3:	e8 67 f6 ff ff       	call   c010881f <Set_IDT_Entry>
c01091b8:	b8 99 aa 10 c0       	mov    $0xc010aa99,%eax
c01091bd:	c7 44 24 0c 00 ee 00 	movl   $0xee00,0xc(%esp)
c01091c4:	00 
c01091c5:	89 44 24 08          	mov    %eax,0x8(%esp)
c01091c9:	c7 44 24 04 08 00 00 	movl   $0x8,0x4(%esp)
c01091d0:	00 
c01091d1:	c7 04 24 2e 00 00 00 	movl   $0x2e,(%esp)
c01091d8:	e8 42 f6 ff ff       	call   c010881f <Set_IDT_Entry>
c01091dd:	b8 9f aa 10 c0       	mov    $0xc010aa9f,%eax
c01091e2:	c7 44 24 0c 00 ee 00 	movl   $0xee00,0xc(%esp)
c01091e9:	00 
c01091ea:	89 44 24 08          	mov    %eax,0x8(%esp)
c01091ee:	c7 44 24 04 08 00 00 	movl   $0x8,0x4(%esp)
c01091f5:	00 
c01091f6:	c7 04 24 2f 00 00 00 	movl   $0x2f,(%esp)
c01091fd:	e8 1d f6 ff ff       	call   c010881f <Set_IDT_Entry>
c0109202:	b8 a5 aa 10 c0       	mov    $0xc010aaa5,%eax
c0109207:	c7 44 24 0c 00 ee 00 	movl   $0xee00,0xc(%esp)
c010920e:	00 
c010920f:	89 44 24 08          	mov    %eax,0x8(%esp)
c0109213:	c7 44 24 04 08 00 00 	movl   $0x8,0x4(%esp)
c010921a:	00 
c010921b:	c7 04 24 70 00 00 00 	movl   $0x70,(%esp)
c0109222:	e8 f8 f5 ff ff       	call   c010881f <Set_IDT_Entry>
c0109227:	b8 ab aa 10 c0       	mov    $0xc010aaab,%eax
c010922c:	c7 44 24 0c 00 ee 00 	movl   $0xee00,0xc(%esp)
c0109233:	00 
c0109234:	89 44 24 08          	mov    %eax,0x8(%esp)
c0109238:	c7 44 24 04 08 00 00 	movl   $0x8,0x4(%esp)
c010923f:	00 
c0109240:	c7 04 24 80 00 00 00 	movl   $0x80,(%esp)
c0109247:	e8 d3 f5 ff ff       	call   c010881f <Set_IDT_Entry>
c010924c:	c7 04 24 81 00 00 00 	movl   $0x81,(%esp)
c0109253:	e8 1e f5 ff ff       	call   c0108776 <lidt>
c0109258:	c9                   	leave  
c0109259:	c3                   	ret    
	...

c010925c <thread_sync_context>:
c010925c:	55                   	push   %ebp
c010925d:	89 e5                	mov    %esp,%ebp
c010925f:	83 ec 28             	sub    $0x28,%esp
c0109262:	8b 45 08             	mov    0x8(%ebp),%eax
c0109265:	8b 40 04             	mov    0x4(%eax),%eax
c0109268:	8b 40 24             	mov    0x24(%eax),%eax
c010926b:	89 45 f4             	mov    %eax,-0xc(%ebp)
c010926e:	8b 45 08             	mov    0x8(%ebp),%eax
c0109271:	3b 45 f4             	cmp    -0xc(%ebp),%eax
c0109274:	74 3a                	je     c01092b0 <thread_sync_context+0x54>
c0109276:	83 7d f4 00          	cmpl   $0x0,-0xc(%ebp)
c010927a:	74 34                	je     c01092b0 <thread_sync_context+0x54>
c010927c:	83 7d 08 00          	cmpl   $0x0,0x8(%ebp)
c0109280:	74 2e                	je     c01092b0 <thread_sync_context+0x54>
c0109282:	c7 45 f0 c0 02 00 00 	movl   $0x2c0,-0x10(%ebp)
c0109289:	8b 45 08             	mov    0x8(%ebp),%eax
c010928c:	8b 50 08             	mov    0x8(%eax),%edx
c010928f:	8b 45 f4             	mov    -0xc(%ebp),%eax
c0109292:	8b 40 08             	mov    0x8(%eax),%eax
c0109295:	8b 4d f0             	mov    -0x10(%ebp),%ecx
c0109298:	89 4c 24 0c          	mov    %ecx,0xc(%esp)
c010929c:	c7 44 24 08 00 00 00 	movl   $0x0,0x8(%esp)
c01092a3:	00 
c01092a4:	89 54 24 04          	mov    %edx,0x4(%esp)
c01092a8:	89 04 24             	mov    %eax,(%esp)
c01092ab:	e8 47 9f ff ff       	call   c01031f7 <arch_sync_pts>
c01092b0:	c9                   	leave  
c01092b1:	c3                   	ret    

c01092b2 <thread_create>:
c01092b2:	55                   	push   %ebp
c01092b3:	89 e5                	mov    %esp,%ebp
c01092b5:	57                   	push   %edi
c01092b6:	56                   	push   %esi
c01092b7:	53                   	push   %ebx
c01092b8:	83 ec 3c             	sub    $0x3c,%esp
c01092bb:	c7 04 24 1c 00 00 00 	movl   $0x1c,(%esp)
c01092c2:	e8 9d c4 ff ff       	call   c0105764 <malloc>
c01092c7:	89 45 e4             	mov    %eax,-0x1c(%ebp)
c01092ca:	8b 45 e4             	mov    -0x1c(%ebp),%eax
c01092cd:	66 c7 40 10 01 00    	movw   $0x1,0x10(%eax)
c01092d3:	8b 45 e4             	mov    -0x1c(%ebp),%eax
c01092d6:	8b 55 08             	mov    0x8(%ebp),%edx
c01092d9:	89 50 04             	mov    %edx,0x4(%eax)
c01092dc:	8b 45 e4             	mov    -0x1c(%ebp),%eax
c01092df:	83 c0 08             	add    $0x8,%eax
c01092e2:	89 04 24             	mov    %eax,(%esp)
c01092e5:	e8 bd 97 ff ff       	call   c0102aa7 <vmm_create_context>
c01092ea:	8b 45 e4             	mov    -0x1c(%ebp),%eax
c01092ed:	89 04 24             	mov    %eax,(%esp)
c01092f0:	e8 67 ff ff ff       	call   c010925c <thread_sync_context>
c01092f5:	8b 45 e4             	mov    -0x1c(%ebp),%eax
c01092f8:	c7 40 0c 0a 00 00 00 	movl   $0xa,0xc(%eax)
c01092ff:	8b 45 e4             	mov    -0x1c(%ebp),%eax
c0109302:	c7 40 14 00 00 00 00 	movl   $0x0,0x14(%eax)
c0109309:	c7 04 24 00 10 00 00 	movl   $0x1000,(%esp)
c0109310:	e8 4f c4 ff ff       	call   c0105764 <malloc>
c0109315:	89 45 e0             	mov    %eax,-0x20(%ebp)
c0109318:	8b 45 e0             	mov    -0x20(%ebp),%eax
c010931b:	05 b8 0f 00 00       	add    $0xfb8,%eax
c0109320:	89 45 dc             	mov    %eax,-0x24(%ebp)
c0109323:	8b 45 e4             	mov    -0x1c(%ebp),%eax
c0109326:	8b 55 dc             	mov    -0x24(%ebp),%edx
c0109329:	89 10                	mov    %edx,(%eax)
c010932b:	8b 45 08             	mov    0x8(%ebp),%eax
c010932e:	8b 40 24             	mov    0x24(%eax),%eax
c0109331:	85 c0                	test   %eax,%eax
c0109333:	75 09                	jne    c010933e <thread_create+0x8c>
c0109335:	8b 45 08             	mov    0x8(%ebp),%eax
c0109338:	8b 55 e4             	mov    -0x1c(%ebp),%edx
c010933b:	89 50 24             	mov    %edx,0x24(%eax)
c010933e:	83 7d 14 00          	cmpl   $0x0,0x14(%ebp)
c0109342:	74 72                	je     c01093b6 <thread_create+0x104>
c0109344:	8b 45 dc             	mov    -0x24(%ebp),%eax
c0109347:	8b 55 14             	mov    0x14(%ebp),%edx
c010934a:	bb 48 00 00 00       	mov    $0x48,%ebx
c010934f:	89 c1                	mov    %eax,%ecx
c0109351:	83 e1 01             	and    $0x1,%ecx
c0109354:	85 c9                	test   %ecx,%ecx
c0109356:	74 0e                	je     c0109366 <thread_create+0xb4>
c0109358:	0f b6 0a             	movzbl (%edx),%ecx
c010935b:	88 08                	mov    %cl,(%eax)
c010935d:	83 c0 01             	add    $0x1,%eax
c0109360:	83 c2 01             	add    $0x1,%edx
c0109363:	83 eb 01             	sub    $0x1,%ebx
c0109366:	89 c1                	mov    %eax,%ecx
c0109368:	83 e1 02             	and    $0x2,%ecx
c010936b:	85 c9                	test   %ecx,%ecx
c010936d:	74 0f                	je     c010937e <thread_create+0xcc>
c010936f:	0f b7 0a             	movzwl (%edx),%ecx
c0109372:	66 89 08             	mov    %cx,(%eax)
c0109375:	83 c0 02             	add    $0x2,%eax
c0109378:	83 c2 02             	add    $0x2,%edx
c010937b:	83 eb 02             	sub    $0x2,%ebx
c010937e:	89 d9                	mov    %ebx,%ecx
c0109380:	c1 e9 02             	shr    $0x2,%ecx
c0109383:	89 c7                	mov    %eax,%edi
c0109385:	89 d6                	mov    %edx,%esi
c0109387:	f3 a5                	rep movsl %ds:(%esi),%es:(%edi)
c0109389:	89 f2                	mov    %esi,%edx
c010938b:	89 f8                	mov    %edi,%eax
c010938d:	b9 00 00 00 00       	mov    $0x0,%ecx
c0109392:	89 de                	mov    %ebx,%esi
c0109394:	83 e6 02             	and    $0x2,%esi
c0109397:	85 f6                	test   %esi,%esi
c0109399:	74 0b                	je     c01093a6 <thread_create+0xf4>
c010939b:	0f b7 34 0a          	movzwl (%edx,%ecx,1),%esi
c010939f:	66 89 34 08          	mov    %si,(%eax,%ecx,1)
c01093a3:	83 c1 02             	add    $0x2,%ecx
c01093a6:	83 e3 01             	and    $0x1,%ebx
c01093a9:	85 db                	test   %ebx,%ebx
c01093ab:	74 76                	je     c0109423 <thread_create+0x171>
c01093ad:	0f b6 14 0a          	movzbl (%edx,%ecx,1),%edx
c01093b1:	88 14 08             	mov    %dl,(%eax,%ecx,1)
c01093b4:	eb 6d                	jmp    c0109423 <thread_create+0x171>
c01093b6:	8b 45 dc             	mov    -0x24(%ebp),%eax
c01093b9:	89 c2                	mov    %eax,%edx
c01093bb:	bb 48 00 00 00       	mov    $0x48,%ebx
c01093c0:	b8 00 00 00 00       	mov    $0x0,%eax
c01093c5:	89 d1                	mov    %edx,%ecx
c01093c7:	83 e1 01             	and    $0x1,%ecx
c01093ca:	85 c9                	test   %ecx,%ecx
c01093cc:	74 08                	je     c01093d6 <thread_create+0x124>
c01093ce:	88 02                	mov    %al,(%edx)
c01093d0:	83 c2 01             	add    $0x1,%edx
c01093d3:	83 eb 01             	sub    $0x1,%ebx
c01093d6:	89 d1                	mov    %edx,%ecx
c01093d8:	83 e1 02             	and    $0x2,%ecx
c01093db:	85 c9                	test   %ecx,%ecx
c01093dd:	74 09                	je     c01093e8 <thread_create+0x136>
c01093df:	66 89 02             	mov    %ax,(%edx)
c01093e2:	83 c2 02             	add    $0x2,%edx
c01093e5:	83 eb 02             	sub    $0x2,%ebx
c01093e8:	89 d9                	mov    %ebx,%ecx
c01093ea:	c1 e9 02             	shr    $0x2,%ecx
c01093ed:	89 d7                	mov    %edx,%edi
c01093ef:	f3 ab                	rep stos %eax,%es:(%edi)
c01093f1:	89 fa                	mov    %edi,%edx
c01093f3:	89 d9                	mov    %ebx,%ecx
c01093f5:	83 e1 02             	and    $0x2,%ecx
c01093f8:	85 c9                	test   %ecx,%ecx
c01093fa:	74 06                	je     c0109402 <thread_create+0x150>
c01093fc:	66 89 02             	mov    %ax,(%edx)
c01093ff:	83 c2 02             	add    $0x2,%edx
c0109402:	89 d9                	mov    %ebx,%ecx
c0109404:	83 e1 01             	and    $0x1,%ecx
c0109407:	85 c9                	test   %ecx,%ecx
c0109409:	74 05                	je     c0109410 <thread_create+0x15e>
c010940b:	88 02                	mov    %al,(%edx)
c010940d:	83 c2 01             	add    $0x1,%edx
c0109410:	8b 45 dc             	mov    -0x24(%ebp),%eax
c0109413:	8b 55 10             	mov    0x10(%ebp),%edx
c0109416:	89 50 34             	mov    %edx,0x34(%eax)
c0109419:	8b 45 dc             	mov    -0x24(%ebp),%eax
c010941c:	c7 40 3c 02 02 00 00 	movl   $0x202,0x3c(%eax)
c0109423:	83 7d 0c 00          	cmpl   $0x0,0xc(%ebp)
c0109427:	75 49                	jne    c0109472 <thread_create+0x1c0>
c0109429:	8b 45 e4             	mov    -0x1c(%ebp),%eax
c010942c:	0f b7 40 10          	movzwl 0x10(%eax),%eax
c0109430:	89 c2                	mov    %eax,%edx
c0109432:	83 ca 04             	or     $0x4,%edx
c0109435:	8b 45 e4             	mov    -0x1c(%ebp),%eax
c0109438:	66 89 50 10          	mov    %dx,0x10(%eax)
c010943c:	8b 45 dc             	mov    -0x24(%ebp),%eax
c010943f:	c7 40 38 08 00 00 00 	movl   $0x8,0x38(%eax)
c0109446:	8b 45 dc             	mov    -0x24(%ebp),%eax
c0109449:	c7 40 0c 10 00 00 00 	movl   $0x10,0xc(%eax)
c0109450:	8b 45 dc             	mov    -0x24(%ebp),%eax
c0109453:	c7 40 08 10 00 00 00 	movl   $0x10,0x8(%eax)
c010945a:	8b 45 dc             	mov    -0x24(%ebp),%eax
c010945d:	c7 40 04 10 00 00 00 	movl   $0x10,0x4(%eax)
c0109464:	8b 45 dc             	mov    -0x24(%ebp),%eax
c0109467:	c7 00 10 00 00 00    	movl   $0x10,(%eax)
c010946d:	e9 99 00 00 00       	jmp    c010950b <thread_create+0x259>
c0109472:	83 7d 14 00          	cmpl   $0x0,0x14(%ebp)
c0109476:	75 7f                	jne    c01094f7 <thread_create+0x245>
c0109478:	e8 97 0c 00 00       	call   c010a114 <pmm_alloc_page>
c010947d:	89 45 d8             	mov    %eax,-0x28(%ebp)
c0109480:	8b 45 e4             	mov    -0x1c(%ebp),%eax
c0109483:	8d 50 08             	lea    0x8(%eax),%edx
c0109486:	c7 44 24 0c 07 00 00 	movl   $0x7,0xc(%esp)
c010948d:	00 
c010948e:	c7 44 24 08 00 f0 ff 	movl   $0xbffff000,0x8(%esp)
c0109495:	bf 
c0109496:	8b 45 d8             	mov    -0x28(%ebp),%eax
c0109499:	89 44 24 04          	mov    %eax,0x4(%esp)
c010949d:	89 14 24             	mov    %edx,(%esp)
c01094a0:	e8 5f 96 ff ff       	call   c0102b04 <vmm_map>
c01094a5:	8b 45 dc             	mov    -0x24(%ebp),%eax
c01094a8:	c7 40 40 f4 ff ff bf 	movl   $0xbffffff4,0x40(%eax)
c01094af:	a1 00 10 11 c0       	mov    0xc0111000,%eax
c01094b4:	c7 44 24 08 07 00 00 	movl   $0x7,0x8(%esp)
c01094bb:	00 
c01094bc:	8b 55 d8             	mov    -0x28(%ebp),%edx
c01094bf:	89 54 24 04          	mov    %edx,0x4(%esp)
c01094c3:	89 04 24             	mov    %eax,(%esp)
c01094c6:	e8 17 97 ff ff       	call   c0102be2 <vmm_automap_kernel>
c01094cb:	05 00 10 00 00       	add    $0x1000,%eax
c01094d0:	89 45 d4             	mov    %eax,-0x2c(%ebp)
c01094d3:	83 6d d4 04          	subl   $0x4,-0x2c(%ebp)
c01094d7:	8b 55 1c             	mov    0x1c(%ebp),%edx
c01094da:	8b 45 d4             	mov    -0x2c(%ebp),%eax
c01094dd:	89 10                	mov    %edx,(%eax)
c01094df:	83 6d d4 04          	subl   $0x4,-0x2c(%ebp)
c01094e3:	8b 55 18             	mov    0x18(%ebp),%edx
c01094e6:	8b 45 d4             	mov    -0x2c(%ebp),%eax
c01094e9:	89 10                	mov    %edx,(%eax)
c01094eb:	83 6d d4 04          	subl   $0x4,-0x2c(%ebp)
c01094ef:	8b 55 20             	mov    0x20(%ebp),%edx
c01094f2:	8b 45 d4             	mov    -0x2c(%ebp),%eax
c01094f5:	89 10                	mov    %edx,(%eax)
c01094f7:	8b 45 dc             	mov    -0x24(%ebp),%eax
c01094fa:	c7 40 38 1b 00 00 00 	movl   $0x1b,0x38(%eax)
c0109501:	8b 45 dc             	mov    -0x24(%ebp),%eax
c0109504:	c7 40 44 23 00 00 00 	movl   $0x23,0x44(%eax)
c010950b:	8b 45 08             	mov    0x8(%ebp),%eax
c010950e:	8b 40 28             	mov    0x28(%eax),%eax
c0109511:	89 04 24             	mov    %eax,(%esp)
c0109514:	e8 b6 13 00 00       	call   c010a8cf <list_is_empty>
c0109519:	85 c0                	test   %eax,%eax
c010951b:	74 17                	je     c0109534 <thread_create+0x282>
c010951d:	8b 45 08             	mov    0x8(%ebp),%eax
c0109520:	8b 40 20             	mov    0x20(%eax),%eax
c0109523:	8b 55 e4             	mov    -0x1c(%ebp),%edx
c0109526:	89 42 18             	mov    %eax,0x18(%edx)
c0109529:	8d 50 01             	lea    0x1(%eax),%edx
c010952c:	8b 45 08             	mov    0x8(%ebp),%eax
c010952f:	89 50 20             	mov    %edx,0x20(%eax)
c0109532:	eb 16                	jmp    c010954a <thread_create+0x298>
c0109534:	8b 45 08             	mov    0x8(%ebp),%eax
c0109537:	8b 40 28             	mov    0x28(%eax),%eax
c010953a:	89 04 24             	mov    %eax,(%esp)
c010953d:	e8 75 11 00 00       	call   c010a6b7 <list_pop_back>
c0109542:	89 c2                	mov    %eax,%edx
c0109544:	8b 45 e4             	mov    -0x1c(%ebp),%eax
c0109547:	89 50 18             	mov    %edx,0x18(%eax)
c010954a:	8b 45 08             	mov    0x8(%ebp),%eax
c010954d:	8b 40 1c             	mov    0x1c(%eax),%eax
c0109550:	8b 55 e4             	mov    -0x1c(%ebp),%edx
c0109553:	89 54 24 04          	mov    %edx,0x4(%esp)
c0109557:	89 04 24             	mov    %eax,(%esp)
c010955a:	e8 09 11 00 00       	call   c010a668 <list_push_front>
c010955f:	a1 e0 32 11 c0       	mov    0xc01132e0,%eax
c0109564:	8b 55 e4             	mov    -0x1c(%ebp),%edx
c0109567:	89 54 24 04          	mov    %edx,0x4(%esp)
c010956b:	89 04 24             	mov    %eax,(%esp)
c010956e:	e8 f5 10 00 00       	call   c010a668 <list_push_front>
c0109573:	8b 45 e4             	mov    -0x1c(%ebp),%eax
c0109576:	83 c4 3c             	add    $0x3c,%esp
c0109579:	5b                   	pop    %ebx
c010957a:	5e                   	pop    %esi
c010957b:	5f                   	pop    %edi
c010957c:	5d                   	pop    %ebp
c010957d:	c3                   	ret    

c010957e <thread_kill>:
c010957e:	55                   	push   %ebp
c010957f:	89 e5                	mov    %esp,%ebp
c0109581:	83 ec 18             	sub    $0x18,%esp
c0109584:	fa                   	cli    
c0109585:	a1 dc 32 11 c0       	mov    0xc01132dc,%eax
c010958a:	3b 45 08             	cmp    0x8(%ebp),%eax
c010958d:	75 15                	jne    c01095a4 <thread_kill+0x26>
c010958f:	8b 45 08             	mov    0x8(%ebp),%eax
c0109592:	0f b7 40 10          	movzwl 0x10(%eax),%eax
c0109596:	89 c2                	mov    %eax,%edx
c0109598:	83 ca 08             	or     $0x8,%edx
c010959b:	8b 45 08             	mov    0x8(%ebp),%eax
c010959e:	66 89 50 10          	mov    %dx,0x10(%eax)
c01095a2:	eb 0b                	jmp    c01095af <thread_kill+0x31>
c01095a4:	8b 45 08             	mov    0x8(%ebp),%eax
c01095a7:	89 04 24             	mov    %eax,(%esp)
c01095aa:	e8 03 00 00 00       	call   c01095b2 <thread_kill_sub>
c01095af:	fb                   	sti    
c01095b0:	c9                   	leave  
c01095b1:	c3                   	ret    

c01095b2 <thread_kill_sub>:
c01095b2:	55                   	push   %ebp
c01095b3:	89 e5                	mov    %esp,%ebp
c01095b5:	83 ec 28             	sub    $0x28,%esp
c01095b8:	8b 45 08             	mov    0x8(%ebp),%eax
c01095bb:	0f b7 40 10          	movzwl 0x10(%eax),%eax
c01095bf:	0f b7 c0             	movzwl %ax,%eax
c01095c2:	83 e0 01             	and    $0x1,%eax
c01095c5:	84 c0                	test   %al,%al
c01095c7:	75 11                	jne    c01095da <thread_kill_sub+0x28>
c01095c9:	8b 45 08             	mov    0x8(%ebp),%eax
c01095cc:	0f b7 40 10          	movzwl 0x10(%eax),%eax
c01095d0:	0f b7 c0             	movzwl %ax,%eax
c01095d3:	83 e0 08             	and    $0x8,%eax
c01095d6:	85 c0                	test   %eax,%eax
c01095d8:	74 47                	je     c0109621 <thread_kill_sub+0x6f>
c01095da:	a1 e0 32 11 c0       	mov    0xc01132e0,%eax
c01095df:	89 04 24             	mov    %eax,(%esp)
c01095e2:	e8 bd 12 00 00       	call   c010a8a4 <list_set_first>
c01095e7:	eb 27                	jmp    c0109610 <thread_kill_sub+0x5e>
c01095e9:	a1 e0 32 11 c0       	mov    0xc01132e0,%eax
c01095ee:	89 04 24             	mov    %eax,(%esp)
c01095f1:	e8 5b 12 00 00       	call   c010a851 <list_get_current>
c01095f6:	89 45 f4             	mov    %eax,-0xc(%ebp)
c01095f9:	8b 45 f4             	mov    -0xc(%ebp),%eax
c01095fc:	3b 45 08             	cmp    0x8(%ebp),%eax
c01095ff:	75 0f                	jne    c0109610 <thread_kill_sub+0x5e>
c0109601:	a1 e0 32 11 c0       	mov    0xc01132e0,%eax
c0109606:	89 04 24             	mov    %eax,(%esp)
c0109609:	e8 c1 11 00 00       	call   c010a7cf <list_remove>
c010960e:	eb 11                	jmp    c0109621 <thread_kill_sub+0x6f>
c0109610:	a1 e0 32 11 c0       	mov    0xc01132e0,%eax
c0109615:	89 04 24             	mov    %eax,(%esp)
c0109618:	e8 6f 12 00 00       	call   c010a88c <list_is_last>
c010961d:	85 c0                	test   %eax,%eax
c010961f:	74 c8                	je     c01095e9 <thread_kill_sub+0x37>
c0109621:	8b 45 08             	mov    0x8(%ebp),%eax
c0109624:	8b 00                	mov    (%eax),%eax
c0109626:	89 04 24             	mov    %eax,(%esp)
c0109629:	e8 51 c1 ff ff       	call   c010577f <free>
c010962e:	8b 45 08             	mov    0x8(%ebp),%eax
c0109631:	8b 40 04             	mov    0x4(%eax),%eax
c0109634:	0f b7 40 30          	movzwl 0x30(%eax),%eax
c0109638:	0f b7 c0             	movzwl %ax,%eax
c010963b:	83 e0 04             	and    $0x4,%eax
c010963e:	85 c0                	test   %eax,%eax
c0109640:	0f 85 9a 00 00 00    	jne    c01096e0 <thread_kill_sub+0x12e>
c0109646:	8b 45 08             	mov    0x8(%ebp),%eax
c0109649:	8b 40 18             	mov    0x18(%eax),%eax
c010964c:	89 c2                	mov    %eax,%edx
c010964e:	8b 45 08             	mov    0x8(%ebp),%eax
c0109651:	8b 40 04             	mov    0x4(%eax),%eax
c0109654:	8b 40 28             	mov    0x28(%eax),%eax
c0109657:	89 54 24 04          	mov    %edx,0x4(%esp)
c010965b:	89 04 24             	mov    %eax,(%esp)
c010965e:	e8 05 10 00 00       	call   c010a668 <list_push_front>
c0109663:	8b 45 08             	mov    0x8(%ebp),%eax
c0109666:	8b 40 04             	mov    0x4(%eax),%eax
c0109669:	8b 40 1c             	mov    0x1c(%eax),%eax
c010966c:	89 04 24             	mov    %eax,(%esp)
c010966f:	e8 30 12 00 00       	call   c010a8a4 <list_set_first>
c0109674:	eb 52                	jmp    c01096c8 <thread_kill_sub+0x116>
c0109676:	8b 45 08             	mov    0x8(%ebp),%eax
c0109679:	8b 40 04             	mov    0x4(%eax),%eax
c010967c:	8b 40 1c             	mov    0x1c(%eax),%eax
c010967f:	89 04 24             	mov    %eax,(%esp)
c0109682:	e8 ca 11 00 00       	call   c010a851 <list_get_current>
c0109687:	89 45 f0             	mov    %eax,-0x10(%ebp)
c010968a:	8b 45 f0             	mov    -0x10(%ebp),%eax
c010968d:	3b 45 08             	cmp    0x8(%ebp),%eax
c0109690:	75 36                	jne    c01096c8 <thread_kill_sub+0x116>
c0109692:	8b 45 08             	mov    0x8(%ebp),%eax
c0109695:	8b 40 04             	mov    0x4(%eax),%eax
c0109698:	8b 40 1c             	mov    0x1c(%eax),%eax
c010969b:	89 04 24             	mov    %eax,(%esp)
c010969e:	e8 2c 11 00 00       	call   c010a7cf <list_remove>
c01096a3:	8b 45 08             	mov    0x8(%ebp),%eax
c01096a6:	8b 40 04             	mov    0x4(%eax),%eax
c01096a9:	8b 40 1c             	mov    0x1c(%eax),%eax
c01096ac:	89 04 24             	mov    %eax,(%esp)
c01096af:	e8 1b 12 00 00       	call   c010a8cf <list_is_empty>
c01096b4:	85 c0                	test   %eax,%eax
c01096b6:	74 27                	je     c01096df <thread_kill_sub+0x12d>
c01096b8:	8b 45 08             	mov    0x8(%ebp),%eax
c01096bb:	8b 40 04             	mov    0x4(%eax),%eax
c01096be:	89 04 24             	mov    %eax,(%esp)
c01096c1:	e8 7e e9 ff ff       	call   c0108044 <process_kill>
c01096c6:	eb 17                	jmp    c01096df <thread_kill_sub+0x12d>
c01096c8:	8b 45 08             	mov    0x8(%ebp),%eax
c01096cb:	8b 40 04             	mov    0x4(%eax),%eax
c01096ce:	8b 40 1c             	mov    0x1c(%eax),%eax
c01096d1:	89 04 24             	mov    %eax,(%esp)
c01096d4:	e8 b3 11 00 00       	call   c010a88c <list_is_last>
c01096d9:	85 c0                	test   %eax,%eax
c01096db:	74 99                	je     c0109676 <thread_kill_sub+0xc4>
c01096dd:	eb 01                	jmp    c01096e0 <thread_kill_sub+0x12e>
c01096df:	90                   	nop
c01096e0:	8b 45 08             	mov    0x8(%ebp),%eax
c01096e3:	89 04 24             	mov    %eax,(%esp)
c01096e6:	e8 94 c0 ff ff       	call   c010577f <free>
c01096eb:	c9                   	leave  
c01096ec:	c3                   	ret    

c01096ed <thread_exit>:
c01096ed:	55                   	push   %ebp
c01096ee:	89 e5                	mov    %esp,%ebp
c01096f0:	83 ec 18             	sub    $0x18,%esp
c01096f3:	a1 dc 32 11 c0       	mov    0xc01132dc,%eax
c01096f8:	8b 15 dc 32 11 c0    	mov    0xc01132dc,%edx
c01096fe:	0f b7 52 10          	movzwl 0x10(%edx),%edx
c0109702:	83 ca 08             	or     $0x8,%edx
c0109705:	66 89 50 10          	mov    %dx,0x10(%eax)
c0109709:	8b 45 08             	mov    0x8(%ebp),%eax
c010970c:	8b 00                	mov    (%eax),%eax
c010970e:	89 04 24             	mov    %eax,(%esp)
c0109711:	e8 98 e3 ff ff       	call   c0107aae <task_schedule>
c0109716:	8b 55 08             	mov    0x8(%ebp),%edx
c0109719:	89 02                	mov    %eax,(%edx)
c010971b:	c9                   	leave  
c010971c:	c3                   	ret    

c010971d <launch_thread>:
c010971d:	55                   	push   %ebp
c010971e:	89 e5                	mov    %esp,%ebp
c0109720:	56                   	push   %esi
c0109721:	53                   	push   %ebx
c0109722:	83 ec 20             	sub    $0x20,%esp
c0109725:	8b 45 08             	mov    0x8(%ebp),%eax
c0109728:	8b 00                	mov    (%eax),%eax
c010972a:	8b 40 14             	mov    0x14(%eax),%eax
c010972d:	89 c6                	mov    %eax,%esi
c010972f:	8b 45 08             	mov    0x8(%ebp),%eax
c0109732:	8b 00                	mov    (%eax),%eax
c0109734:	8b 40 20             	mov    0x20(%eax),%eax
c0109737:	89 c3                	mov    %eax,%ebx
c0109739:	8b 45 08             	mov    0x8(%ebp),%eax
c010973c:	8b 00                	mov    (%eax),%eax
c010973e:	8b 40 24             	mov    0x24(%eax),%eax
c0109741:	89 c1                	mov    %eax,%ecx
c0109743:	8b 45 08             	mov    0x8(%ebp),%eax
c0109746:	8b 00                	mov    (%eax),%eax
c0109748:	8b 50 1c             	mov    0x1c(%eax),%edx
c010974b:	a1 dc 32 11 c0       	mov    0xc01132dc,%eax
c0109750:	8b 40 04             	mov    0x4(%eax),%eax
c0109753:	89 74 24 18          	mov    %esi,0x18(%esp)
c0109757:	89 5c 24 14          	mov    %ebx,0x14(%esp)
c010975b:	89 4c 24 10          	mov    %ecx,0x10(%esp)
c010975f:	c7 44 24 0c 00 00 00 	movl   $0x0,0xc(%esp)
c0109766:	00 
c0109767:	89 54 24 08          	mov    %edx,0x8(%esp)
c010976b:	c7 44 24 04 03 00 00 	movl   $0x3,0x4(%esp)
c0109772:	00 
c0109773:	89 04 24             	mov    %eax,(%esp)
c0109776:	e8 37 fb ff ff       	call   c01092b2 <thread_create>
c010977b:	83 c4 20             	add    $0x20,%esp
c010977e:	5b                   	pop    %ebx
c010977f:	5e                   	pop    %esi
c0109780:	5d                   	pop    %ebp
c0109781:	c3                   	ret    
	...

c0109784 <strnlen>:
c0109784:	55                   	push   %ebp
c0109785:	89 e5                	mov    %esp,%ebp
c0109787:	83 ec 10             	sub    $0x10,%esp
c010978a:	8b 45 08             	mov    0x8(%ebp),%eax
c010978d:	89 45 fc             	mov    %eax,-0x4(%ebp)
c0109790:	eb 08                	jmp    c010979a <strnlen+0x16>
c0109792:	83 45 fc 01          	addl   $0x1,-0x4(%ebp)
c0109796:	83 6d 0c 01          	subl   $0x1,0xc(%ebp)
c010979a:	8b 45 fc             	mov    -0x4(%ebp),%eax
c010979d:	0f b6 00             	movzbl (%eax),%eax
c01097a0:	84 c0                	test   %al,%al
c01097a2:	74 06                	je     c01097aa <strnlen+0x26>
c01097a4:	83 7d 0c 00          	cmpl   $0x0,0xc(%ebp)
c01097a8:	75 e8                	jne    c0109792 <strnlen+0xe>
c01097aa:	8b 55 fc             	mov    -0x4(%ebp),%edx
c01097ad:	8b 45 08             	mov    0x8(%ebp),%eax
c01097b0:	89 d1                	mov    %edx,%ecx
c01097b2:	29 c1                	sub    %eax,%ecx
c01097b4:	89 c8                	mov    %ecx,%eax
c01097b6:	c9                   	leave  
c01097b7:	c3                   	ret    

c01097b8 <strlen>:
c01097b8:	55                   	push   %ebp
c01097b9:	89 e5                	mov    %esp,%ebp
c01097bb:	83 ec 10             	sub    $0x10,%esp
c01097be:	c7 45 fc 00 00 00 00 	movl   $0x0,-0x4(%ebp)
c01097c5:	eb 04                	jmp    c01097cb <strlen+0x13>
c01097c7:	83 45 fc 01          	addl   $0x1,-0x4(%ebp)
c01097cb:	8b 45 fc             	mov    -0x4(%ebp),%eax
c01097ce:	8b 55 08             	mov    0x8(%ebp),%edx
c01097d1:	01 d0                	add    %edx,%eax
c01097d3:	0f b6 00             	movzbl (%eax),%eax
c01097d6:	84 c0                	test   %al,%al
c01097d8:	75 ed                	jne    c01097c7 <strlen+0xf>
c01097da:	8b 45 fc             	mov    -0x4(%ebp),%eax
c01097dd:	c9                   	leave  
c01097de:	c3                   	ret    

c01097df <strcpy>:
c01097df:	55                   	push   %ebp
c01097e0:	89 e5                	mov    %esp,%ebp
c01097e2:	83 ec 10             	sub    $0x10,%esp
c01097e5:	c7 45 fc 00 00 00 00 	movl   $0x0,-0x4(%ebp)
c01097ec:	eb 19                	jmp    c0109807 <strcpy+0x28>
c01097ee:	8b 45 fc             	mov    -0x4(%ebp),%eax
c01097f1:	8b 55 08             	mov    0x8(%ebp),%edx
c01097f4:	01 c2                	add    %eax,%edx
c01097f6:	8b 45 fc             	mov    -0x4(%ebp),%eax
c01097f9:	8b 4d 0c             	mov    0xc(%ebp),%ecx
c01097fc:	01 c8                	add    %ecx,%eax
c01097fe:	0f b6 00             	movzbl (%eax),%eax
c0109801:	88 02                	mov    %al,(%edx)
c0109803:	83 45 fc 01          	addl   $0x1,-0x4(%ebp)
c0109807:	8b 45 fc             	mov    -0x4(%ebp),%eax
c010980a:	8b 55 0c             	mov    0xc(%ebp),%edx
c010980d:	01 d0                	add    %edx,%eax
c010980f:	0f b6 00             	movzbl (%eax),%eax
c0109812:	84 c0                	test   %al,%al
c0109814:	75 d8                	jne    c01097ee <strcpy+0xf>
c0109816:	8b 45 fc             	mov    -0x4(%ebp),%eax
c0109819:	8b 55 08             	mov    0x8(%ebp),%edx
c010981c:	01 c2                	add    %eax,%edx
c010981e:	8b 45 fc             	mov    -0x4(%ebp),%eax
c0109821:	8b 4d 0c             	mov    0xc(%ebp),%ecx
c0109824:	01 c8                	add    %ecx,%eax
c0109826:	0f b6 00             	movzbl (%eax),%eax
c0109829:	88 02                	mov    %al,(%edx)
c010982b:	8b 45 08             	mov    0x8(%ebp),%eax
c010982e:	c9                   	leave  
c010982f:	c3                   	ret    

c0109830 <strncpy>:
c0109830:	55                   	push   %ebp
c0109831:	89 e5                	mov    %esp,%ebp
c0109833:	83 ec 10             	sub    $0x10,%esp
c0109836:	c7 45 f8 00 00 00 00 	movl   $0x0,-0x8(%ebp)
c010983d:	c7 45 fc 00 00 00 00 	movl   $0x0,-0x4(%ebp)
c0109844:	eb 42                	jmp    c0109888 <strncpy+0x58>
c0109846:	83 7d f8 00          	cmpl   $0x0,-0x8(%ebp)
c010984a:	75 2d                	jne    c0109879 <strncpy+0x49>
c010984c:	8b 45 fc             	mov    -0x4(%ebp),%eax
c010984f:	8b 55 0c             	mov    0xc(%ebp),%edx
c0109852:	01 d0                	add    %edx,%eax
c0109854:	0f b6 00             	movzbl (%eax),%eax
c0109857:	84 c0                	test   %al,%al
c0109859:	75 07                	jne    c0109862 <strncpy+0x32>
c010985b:	c7 45 f8 01 00 00 00 	movl   $0x1,-0x8(%ebp)
c0109862:	8b 45 fc             	mov    -0x4(%ebp),%eax
c0109865:	8b 55 08             	mov    0x8(%ebp),%edx
c0109868:	01 c2                	add    %eax,%edx
c010986a:	8b 45 fc             	mov    -0x4(%ebp),%eax
c010986d:	8b 4d 0c             	mov    0xc(%ebp),%ecx
c0109870:	01 c8                	add    %ecx,%eax
c0109872:	0f b6 00             	movzbl (%eax),%eax
c0109875:	88 02                	mov    %al,(%edx)
c0109877:	eb 0b                	jmp    c0109884 <strncpy+0x54>
c0109879:	8b 45 fc             	mov    -0x4(%ebp),%eax
c010987c:	8b 55 08             	mov    0x8(%ebp),%edx
c010987f:	01 d0                	add    %edx,%eax
c0109881:	c6 00 00             	movb   $0x0,(%eax)
c0109884:	83 45 fc 01          	addl   $0x1,-0x4(%ebp)
c0109888:	8b 45 fc             	mov    -0x4(%ebp),%eax
c010988b:	3b 45 10             	cmp    0x10(%ebp),%eax
c010988e:	72 b6                	jb     c0109846 <strncpy+0x16>
c0109890:	8b 45 08             	mov    0x8(%ebp),%eax
c0109893:	c9                   	leave  
c0109894:	c3                   	ret    

c0109895 <strcat>:
c0109895:	55                   	push   %ebp
c0109896:	89 e5                	mov    %esp,%ebp
c0109898:	83 ec 18             	sub    $0x18,%esp
c010989b:	8b 45 08             	mov    0x8(%ebp),%eax
c010989e:	89 04 24             	mov    %eax,(%esp)
c01098a1:	e8 12 ff ff ff       	call   c01097b8 <strlen>
c01098a6:	89 45 fc             	mov    %eax,-0x4(%ebp)
c01098a9:	8b 45 fc             	mov    -0x4(%ebp),%eax
c01098ac:	8b 55 08             	mov    0x8(%ebp),%edx
c01098af:	01 c2                	add    %eax,%edx
c01098b1:	8b 45 0c             	mov    0xc(%ebp),%eax
c01098b4:	89 44 24 04          	mov    %eax,0x4(%esp)
c01098b8:	89 14 24             	mov    %edx,(%esp)
c01098bb:	e8 1f ff ff ff       	call   c01097df <strcpy>
c01098c0:	8b 45 08             	mov    0x8(%ebp),%eax
c01098c3:	c9                   	leave  
c01098c4:	c3                   	ret    

c01098c5 <strncat>:
c01098c5:	55                   	push   %ebp
c01098c6:	89 e5                	mov    %esp,%ebp
c01098c8:	83 ec 1c             	sub    $0x1c,%esp
c01098cb:	8b 45 08             	mov    0x8(%ebp),%eax
c01098ce:	89 04 24             	mov    %eax,(%esp)
c01098d1:	e8 e2 fe ff ff       	call   c01097b8 <strlen>
c01098d6:	89 45 fc             	mov    %eax,-0x4(%ebp)
c01098d9:	8b 45 fc             	mov    -0x4(%ebp),%eax
c01098dc:	8b 55 08             	mov    0x8(%ebp),%edx
c01098df:	01 c2                	add    %eax,%edx
c01098e1:	8b 45 10             	mov    0x10(%ebp),%eax
c01098e4:	89 44 24 08          	mov    %eax,0x8(%esp)
c01098e8:	8b 45 0c             	mov    0xc(%ebp),%eax
c01098eb:	89 44 24 04          	mov    %eax,0x4(%esp)
c01098ef:	89 14 24             	mov    %edx,(%esp)
c01098f2:	e8 39 ff ff ff       	call   c0109830 <strncpy>
c01098f7:	8b 45 08             	mov    0x8(%ebp),%eax
c01098fa:	c9                   	leave  
c01098fb:	c3                   	ret    

c01098fc <strcmp>:
c01098fc:	55                   	push   %ebp
c01098fd:	89 e5                	mov    %esp,%ebp
c01098ff:	83 ec 10             	sub    $0x10,%esp
c0109902:	c7 45 fc 00 00 00 00 	movl   $0x0,-0x4(%ebp)
c0109909:	eb 21                	jmp    c010992c <strcmp+0x30>
c010990b:	8b 45 fc             	mov    -0x4(%ebp),%eax
c010990e:	03 45 08             	add    0x8(%ebp),%eax
c0109911:	0f b6 10             	movzbl (%eax),%edx
c0109914:	8b 45 fc             	mov    -0x4(%ebp),%eax
c0109917:	03 45 0c             	add    0xc(%ebp),%eax
c010991a:	0f b6 00             	movzbl (%eax),%eax
c010991d:	38 c2                	cmp    %al,%dl
c010991f:	74 07                	je     c0109928 <strcmp+0x2c>
c0109921:	b8 00 00 00 00       	mov    $0x0,%eax
c0109926:	eb 5e                	jmp    c0109986 <strcmp+0x8a>
c0109928:	83 45 fc 01          	addl   $0x1,-0x4(%ebp)
c010992c:	8b 45 fc             	mov    -0x4(%ebp),%eax
c010992f:	03 45 08             	add    0x8(%ebp),%eax
c0109932:	0f b6 00             	movzbl (%eax),%eax
c0109935:	84 c0                	test   %al,%al
c0109937:	74 0d                	je     c0109946 <strcmp+0x4a>
c0109939:	8b 45 fc             	mov    -0x4(%ebp),%eax
c010993c:	03 45 0c             	add    0xc(%ebp),%eax
c010993f:	0f b6 00             	movzbl (%eax),%eax
c0109942:	84 c0                	test   %al,%al
c0109944:	75 c5                	jne    c010990b <strcmp+0xf>
c0109946:	8b 45 fc             	mov    -0x4(%ebp),%eax
c0109949:	03 45 08             	add    0x8(%ebp),%eax
c010994c:	0f b6 00             	movzbl (%eax),%eax
c010994f:	84 c0                	test   %al,%al
c0109951:	75 0d                	jne    c0109960 <strcmp+0x64>
c0109953:	8b 45 fc             	mov    -0x4(%ebp),%eax
c0109956:	03 45 0c             	add    0xc(%ebp),%eax
c0109959:	0f b6 00             	movzbl (%eax),%eax
c010995c:	84 c0                	test   %al,%al
c010995e:	75 1a                	jne    c010997a <strcmp+0x7e>
c0109960:	8b 45 fc             	mov    -0x4(%ebp),%eax
c0109963:	03 45 08             	add    0x8(%ebp),%eax
c0109966:	0f b6 00             	movzbl (%eax),%eax
c0109969:	84 c0                	test   %al,%al
c010996b:	74 14                	je     c0109981 <strcmp+0x85>
c010996d:	8b 45 fc             	mov    -0x4(%ebp),%eax
c0109970:	03 45 0c             	add    0xc(%ebp),%eax
c0109973:	0f b6 00             	movzbl (%eax),%eax
c0109976:	84 c0                	test   %al,%al
c0109978:	75 07                	jne    c0109981 <strcmp+0x85>
c010997a:	b8 00 00 00 00       	mov    $0x0,%eax
c010997f:	eb 05                	jmp    c0109986 <strcmp+0x8a>
c0109981:	b8 01 00 00 00       	mov    $0x1,%eax
c0109986:	c9                   	leave  
c0109987:	c3                   	ret    

c0109988 <strncmp>:
c0109988:	55                   	push   %ebp
c0109989:	89 e5                	mov    %esp,%ebp
c010998b:	83 ec 10             	sub    $0x10,%esp
c010998e:	c7 45 f8 00 00 00 00 	movl   $0x0,-0x8(%ebp)
c0109995:	c7 45 fc 00 00 00 00 	movl   $0x0,-0x4(%ebp)
c010999c:	eb 04                	jmp    c01099a2 <strncmp+0x1a>
c010999e:	83 45 fc 01          	addl   $0x1,-0x4(%ebp)
c01099a2:	8b 45 fc             	mov    -0x4(%ebp),%eax
c01099a5:	8b 55 08             	mov    0x8(%ebp),%edx
c01099a8:	01 d0                	add    %edx,%eax
c01099aa:	0f b6 10             	movzbl (%eax),%edx
c01099ad:	8b 45 fc             	mov    -0x4(%ebp),%eax
c01099b0:	8b 4d 0c             	mov    0xc(%ebp),%ecx
c01099b3:	01 c8                	add    %ecx,%eax
c01099b5:	0f b6 00             	movzbl (%eax),%eax
c01099b8:	38 c2                	cmp    %al,%dl
c01099ba:	75 17                	jne    c01099d3 <strncmp+0x4b>
c01099bc:	8b 45 fc             	mov    -0x4(%ebp),%eax
c01099bf:	8b 55 08             	mov    0x8(%ebp),%edx
c01099c2:	01 d0                	add    %edx,%eax
c01099c4:	0f b6 00             	movzbl (%eax),%eax
c01099c7:	84 c0                	test   %al,%al
c01099c9:	74 08                	je     c01099d3 <strncmp+0x4b>
c01099cb:	8b 45 fc             	mov    -0x4(%ebp),%eax
c01099ce:	3b 45 10             	cmp    0x10(%ebp),%eax
c01099d1:	72 cb                	jb     c010999e <strncmp+0x16>
c01099d3:	8b 45 fc             	mov    -0x4(%ebp),%eax
c01099d6:	8b 55 08             	mov    0x8(%ebp),%edx
c01099d9:	01 d0                	add    %edx,%eax
c01099db:	0f b6 00             	movzbl (%eax),%eax
c01099de:	0f be d0             	movsbl %al,%edx
c01099e1:	8b 45 fc             	mov    -0x4(%ebp),%eax
c01099e4:	8b 4d 0c             	mov    0xc(%ebp),%ecx
c01099e7:	01 c8                	add    %ecx,%eax
c01099e9:	0f b6 00             	movzbl (%eax),%eax
c01099ec:	0f be c0             	movsbl %al,%eax
c01099ef:	89 d1                	mov    %edx,%ecx
c01099f1:	29 c1                	sub    %eax,%ecx
c01099f3:	89 c8                	mov    %ecx,%eax
c01099f5:	89 45 f8             	mov    %eax,-0x8(%ebp)
c01099f8:	83 7d f8 00          	cmpl   $0x0,-0x8(%ebp)
c01099fc:	79 09                	jns    c0109a07 <strncmp+0x7f>
c01099fe:	c7 45 f8 ff ff ff ff 	movl   $0xffffffff,-0x8(%ebp)
c0109a05:	eb 0d                	jmp    c0109a14 <strncmp+0x8c>
c0109a07:	83 7d f8 00          	cmpl   $0x0,-0x8(%ebp)
c0109a0b:	7e 07                	jle    c0109a14 <strncmp+0x8c>
c0109a0d:	c7 45 f8 01 00 00 00 	movl   $0x1,-0x8(%ebp)
c0109a14:	8b 45 f8             	mov    -0x8(%ebp),%eax
c0109a17:	c9                   	leave  
c0109a18:	c3                   	ret    

c0109a19 <strchr>:
c0109a19:	55                   	push   %ebp
c0109a1a:	89 e5                	mov    %esp,%ebp
c0109a1c:	83 ec 10             	sub    $0x10,%esp
c0109a1f:	c7 45 fc 00 00 00 00 	movl   $0x0,-0x4(%ebp)
c0109a26:	eb 04                	jmp    c0109a2c <strchr+0x13>
c0109a28:	83 45 fc 01          	addl   $0x1,-0x4(%ebp)
c0109a2c:	8b 45 fc             	mov    -0x4(%ebp),%eax
c0109a2f:	03 45 08             	add    0x8(%ebp),%eax
c0109a32:	0f b6 10             	movzbl (%eax),%edx
c0109a35:	8b 45 0c             	mov    0xc(%ebp),%eax
c0109a38:	38 c2                	cmp    %al,%dl
c0109a3a:	74 0d                	je     c0109a49 <strchr+0x30>
c0109a3c:	8b 45 fc             	mov    -0x4(%ebp),%eax
c0109a3f:	03 45 08             	add    0x8(%ebp),%eax
c0109a42:	0f b6 00             	movzbl (%eax),%eax
c0109a45:	84 c0                	test   %al,%al
c0109a47:	75 df                	jne    c0109a28 <strchr+0xf>
c0109a49:	8b 45 fc             	mov    -0x4(%ebp),%eax
c0109a4c:	03 45 08             	add    0x8(%ebp),%eax
c0109a4f:	0f b6 00             	movzbl (%eax),%eax
c0109a52:	84 c0                	test   %al,%al
c0109a54:	74 08                	je     c0109a5e <strchr+0x45>
c0109a56:	8b 45 fc             	mov    -0x4(%ebp),%eax
c0109a59:	03 45 08             	add    0x8(%ebp),%eax
c0109a5c:	eb 05                	jmp    c0109a63 <strchr+0x4a>
c0109a5e:	b8 00 00 00 00       	mov    $0x0,%eax
c0109a63:	c9                   	leave  
c0109a64:	c3                   	ret    

c0109a65 <strrchr>:
c0109a65:	55                   	push   %ebp
c0109a66:	89 e5                	mov    %esp,%ebp
c0109a68:	83 ec 10             	sub    $0x10,%esp
c0109a6b:	c7 45 fc 00 00 00 00 	movl   $0x0,-0x4(%ebp)
c0109a72:	c7 45 f8 00 00 00 00 	movl   $0x0,-0x8(%ebp)
c0109a79:	eb 1d                	jmp    c0109a98 <strrchr+0x33>
c0109a7b:	8b 45 fc             	mov    -0x4(%ebp),%eax
c0109a7e:	03 45 08             	add    0x8(%ebp),%eax
c0109a81:	0f b6 10             	movzbl (%eax),%edx
c0109a84:	8b 45 0c             	mov    0xc(%ebp),%eax
c0109a87:	38 c2                	cmp    %al,%dl
c0109a89:	75 09                	jne    c0109a94 <strrchr+0x2f>
c0109a8b:	8b 45 fc             	mov    -0x4(%ebp),%eax
c0109a8e:	03 45 08             	add    0x8(%ebp),%eax
c0109a91:	89 45 f8             	mov    %eax,-0x8(%ebp)
c0109a94:	83 45 fc 01          	addl   $0x1,-0x4(%ebp)
c0109a98:	8b 45 fc             	mov    -0x4(%ebp),%eax
c0109a9b:	03 45 08             	add    0x8(%ebp),%eax
c0109a9e:	0f b6 00             	movzbl (%eax),%eax
c0109aa1:	84 c0                	test   %al,%al
c0109aa3:	75 d6                	jne    c0109a7b <strrchr+0x16>
c0109aa5:	8b 45 f8             	mov    -0x8(%ebp),%eax
c0109aa8:	c9                   	leave  
c0109aa9:	c3                   	ret    

c0109aaa <strtok>:
c0109aaa:	55                   	push   %ebp
c0109aab:	89 e5                	mov    %esp,%ebp
c0109aad:	83 ec 38             	sub    $0x38,%esp
c0109ab0:	c7 45 f4 00 00 00 00 	movl   $0x0,-0xc(%ebp)
c0109ab7:	c7 45 f0 00 00 00 00 	movl   $0x0,-0x10(%ebp)
c0109abe:	83 7d 08 00          	cmpl   $0x0,0x8(%ebp)
c0109ac2:	74 16                	je     c0109ada <strtok+0x30>
c0109ac4:	8b 45 08             	mov    0x8(%ebp),%eax
c0109ac7:	89 45 f4             	mov    %eax,-0xc(%ebp)
c0109aca:	8b 45 0c             	mov    0xc(%ebp),%eax
c0109acd:	89 04 24             	mov    %eax,(%esp)
c0109ad0:	e8 e3 fc ff ff       	call   c01097b8 <strlen>
c0109ad5:	89 45 f0             	mov    %eax,-0x10(%ebp)
c0109ad8:	eb 16                	jmp    c0109af0 <strtok+0x46>
c0109ada:	83 7d f4 00          	cmpl   $0x0,-0xc(%ebp)
c0109ade:	75 0a                	jne    c0109aea <strtok+0x40>
c0109ae0:	b8 00 00 00 00       	mov    $0x0,%eax
c0109ae5:	e9 b2 00 00 00       	jmp    c0109b9c <strtok+0xf2>
c0109aea:	8b 45 f4             	mov    -0xc(%ebp),%eax
c0109aed:	89 45 08             	mov    %eax,0x8(%ebp)
c0109af0:	c7 45 e8 00 00 00 00 	movl   $0x0,-0x18(%ebp)
c0109af7:	eb 6c                	jmp    c0109b65 <strtok+0xbb>
c0109af9:	c7 45 ec 00 00 00 00 	movl   $0x0,-0x14(%ebp)
c0109b00:	eb 53                	jmp    c0109b55 <strtok+0xab>
c0109b02:	8b 45 f4             	mov    -0xc(%ebp),%eax
c0109b05:	0f b6 10             	movzbl (%eax),%edx
c0109b08:	8b 45 ec             	mov    -0x14(%ebp),%eax
c0109b0b:	03 45 0c             	add    0xc(%ebp),%eax
c0109b0e:	0f b6 00             	movzbl (%eax),%eax
c0109b11:	38 c2                	cmp    %al,%dl
c0109b13:	75 3c                	jne    c0109b51 <strtok+0xa7>
c0109b15:	83 45 f4 01          	addl   $0x1,-0xc(%ebp)
c0109b19:	8b 45 e8             	mov    -0x18(%ebp),%eax
c0109b1c:	83 c0 01             	add    $0x1,%eax
c0109b1f:	89 04 24             	mov    %eax,(%esp)
c0109b22:	e8 3d bc ff ff       	call   c0105764 <malloc>
c0109b27:	89 45 e4             	mov    %eax,-0x1c(%ebp)
c0109b2a:	8b 4d e8             	mov    -0x18(%ebp),%ecx
c0109b2d:	8b 45 e4             	mov    -0x1c(%ebp),%eax
c0109b30:	8b 55 08             	mov    0x8(%ebp),%edx
c0109b33:	89 4c 24 08          	mov    %ecx,0x8(%esp)
c0109b37:	89 54 24 04          	mov    %edx,0x4(%esp)
c0109b3b:	89 04 24             	mov    %eax,(%esp)
c0109b3e:	e8 5b 00 00 00       	call   c0109b9e <memcpy>
c0109b43:	8b 45 e8             	mov    -0x18(%ebp),%eax
c0109b46:	03 45 e4             	add    -0x1c(%ebp),%eax
c0109b49:	c6 00 00             	movb   $0x0,(%eax)
c0109b4c:	8b 45 e4             	mov    -0x1c(%ebp),%eax
c0109b4f:	eb 4b                	jmp    c0109b9c <strtok+0xf2>
c0109b51:	83 45 ec 01          	addl   $0x1,-0x14(%ebp)
c0109b55:	8b 45 ec             	mov    -0x14(%ebp),%eax
c0109b58:	3b 45 f0             	cmp    -0x10(%ebp),%eax
c0109b5b:	7c a5                	jl     c0109b02 <strtok+0x58>
c0109b5d:	83 45 f4 01          	addl   $0x1,-0xc(%ebp)
c0109b61:	83 45 e8 01          	addl   $0x1,-0x18(%ebp)
c0109b65:	8b 45 f4             	mov    -0xc(%ebp),%eax
c0109b68:	0f b6 00             	movzbl (%eax),%eax
c0109b6b:	84 c0                	test   %al,%al
c0109b6d:	75 8a                	jne    c0109af9 <strtok+0x4f>
c0109b6f:	8b 45 e8             	mov    -0x18(%ebp),%eax
c0109b72:	83 c0 01             	add    $0x1,%eax
c0109b75:	89 04 24             	mov    %eax,(%esp)
c0109b78:	e8 e7 bb ff ff       	call   c0105764 <malloc>
c0109b7d:	89 45 e0             	mov    %eax,-0x20(%ebp)
c0109b80:	8b 45 08             	mov    0x8(%ebp),%eax
c0109b83:	89 44 24 04          	mov    %eax,0x4(%esp)
c0109b87:	8b 45 e0             	mov    -0x20(%ebp),%eax
c0109b8a:	89 04 24             	mov    %eax,(%esp)
c0109b8d:	e8 4d fc ff ff       	call   c01097df <strcpy>
c0109b92:	c7 45 f4 00 00 00 00 	movl   $0x0,-0xc(%ebp)
c0109b99:	8b 45 e0             	mov    -0x20(%ebp),%eax
c0109b9c:	c9                   	leave  
c0109b9d:	c3                   	ret    

c0109b9e <memcpy>:
c0109b9e:	55                   	push   %ebp
c0109b9f:	89 e5                	mov    %esp,%ebp
c0109ba1:	83 ec 10             	sub    $0x10,%esp
c0109ba4:	8b 45 08             	mov    0x8(%ebp),%eax
c0109ba7:	89 45 f8             	mov    %eax,-0x8(%ebp)
c0109baa:	8b 45 0c             	mov    0xc(%ebp),%eax
c0109bad:	89 45 f4             	mov    %eax,-0xc(%ebp)
c0109bb0:	c7 45 fc 00 00 00 00 	movl   $0x0,-0x4(%ebp)
c0109bb7:	eb 19                	jmp    c0109bd2 <memcpy+0x34>
c0109bb9:	8b 45 fc             	mov    -0x4(%ebp),%eax
c0109bbc:	8b 55 f8             	mov    -0x8(%ebp),%edx
c0109bbf:	01 c2                	add    %eax,%edx
c0109bc1:	8b 45 fc             	mov    -0x4(%ebp),%eax
c0109bc4:	8b 4d f4             	mov    -0xc(%ebp),%ecx
c0109bc7:	01 c8                	add    %ecx,%eax
c0109bc9:	0f b6 00             	movzbl (%eax),%eax
c0109bcc:	88 02                	mov    %al,(%edx)
c0109bce:	83 45 fc 01          	addl   $0x1,-0x4(%ebp)
c0109bd2:	8b 45 fc             	mov    -0x4(%ebp),%eax
c0109bd5:	3b 45 10             	cmp    0x10(%ebp),%eax
c0109bd8:	72 df                	jb     c0109bb9 <memcpy+0x1b>
c0109bda:	8b 45 08             	mov    0x8(%ebp),%eax
c0109bdd:	c9                   	leave  
c0109bde:	c3                   	ret    

c0109bdf <memmove>:
c0109bdf:	55                   	push   %ebp
c0109be0:	89 e5                	mov    %esp,%ebp
c0109be2:	83 ec 1c             	sub    $0x1c,%esp
c0109be5:	8b 45 08             	mov    0x8(%ebp),%eax
c0109be8:	89 45 f4             	mov    %eax,-0xc(%ebp)
c0109beb:	8b 45 0c             	mov    0xc(%ebp),%eax
c0109bee:	89 45 f0             	mov    %eax,-0x10(%ebp)
c0109bf1:	c6 45 fb 00          	movb   $0x0,-0x5(%ebp)
c0109bf5:	8b 45 f0             	mov    -0x10(%ebp),%eax
c0109bf8:	89 45 fc             	mov    %eax,-0x4(%ebp)
c0109bfb:	eb 10                	jmp    c0109c0d <memmove+0x2e>
c0109bfd:	8b 45 fc             	mov    -0x4(%ebp),%eax
c0109c00:	3b 45 f4             	cmp    -0xc(%ebp),%eax
c0109c03:	75 04                	jne    c0109c09 <memmove+0x2a>
c0109c05:	c6 45 fb 01          	movb   $0x1,-0x5(%ebp)
c0109c09:	83 45 fc 01          	addl   $0x1,-0x4(%ebp)
c0109c0d:	8b 45 10             	mov    0x10(%ebp),%eax
c0109c10:	8b 55 f0             	mov    -0x10(%ebp),%edx
c0109c13:	01 d0                	add    %edx,%eax
c0109c15:	3b 45 fc             	cmp    -0x4(%ebp),%eax
c0109c18:	77 e3                	ja     c0109bfd <memmove+0x1e>
c0109c1a:	80 7d fb 00          	cmpb   $0x0,-0x5(%ebp)
c0109c1e:	74 33                	je     c0109c53 <memmove+0x74>
c0109c20:	8b 45 10             	mov    0x10(%ebp),%eax
c0109c23:	83 e8 01             	sub    $0x1,%eax
c0109c26:	03 45 f0             	add    -0x10(%ebp),%eax
c0109c29:	89 45 fc             	mov    %eax,-0x4(%ebp)
c0109c2c:	eb 1b                	jmp    c0109c49 <memmove+0x6a>
c0109c2e:	8b 55 f4             	mov    -0xc(%ebp),%edx
c0109c31:	8b 45 f0             	mov    -0x10(%ebp),%eax
c0109c34:	89 d1                	mov    %edx,%ecx
c0109c36:	29 c1                	sub    %eax,%ecx
c0109c38:	89 c8                	mov    %ecx,%eax
c0109c3a:	03 45 fc             	add    -0x4(%ebp),%eax
c0109c3d:	8b 55 fc             	mov    -0x4(%ebp),%edx
c0109c40:	0f b6 12             	movzbl (%edx),%edx
c0109c43:	88 10                	mov    %dl,(%eax)
c0109c45:	83 6d fc 01          	subl   $0x1,-0x4(%ebp)
c0109c49:	8b 45 fc             	mov    -0x4(%ebp),%eax
c0109c4c:	3b 45 f0             	cmp    -0x10(%ebp),%eax
c0109c4f:	73 dd                	jae    c0109c2e <memmove+0x4f>
c0109c51:	eb 19                	jmp    c0109c6c <memmove+0x8d>
c0109c53:	8b 45 10             	mov    0x10(%ebp),%eax
c0109c56:	89 44 24 08          	mov    %eax,0x8(%esp)
c0109c5a:	8b 45 f0             	mov    -0x10(%ebp),%eax
c0109c5d:	89 44 24 04          	mov    %eax,0x4(%esp)
c0109c61:	8b 45 f4             	mov    -0xc(%ebp),%eax
c0109c64:	89 04 24             	mov    %eax,(%esp)
c0109c67:	e8 32 ff ff ff       	call   c0109b9e <memcpy>
c0109c6c:	8b 45 08             	mov    0x8(%ebp),%eax
c0109c6f:	c9                   	leave  
c0109c70:	c3                   	ret    

c0109c71 <memcmp>:
c0109c71:	55                   	push   %ebp
c0109c72:	89 e5                	mov    %esp,%ebp
c0109c74:	83 ec 10             	sub    $0x10,%esp
c0109c77:	8b 45 08             	mov    0x8(%ebp),%eax
c0109c7a:	89 45 f4             	mov    %eax,-0xc(%ebp)
c0109c7d:	8b 45 0c             	mov    0xc(%ebp),%eax
c0109c80:	89 45 f0             	mov    %eax,-0x10(%ebp)
c0109c83:	c7 45 f8 00 00 00 00 	movl   $0x0,-0x8(%ebp)
c0109c8a:	c7 45 fc 00 00 00 00 	movl   $0x0,-0x4(%ebp)
c0109c91:	eb 04                	jmp    c0109c97 <memcmp+0x26>
c0109c93:	83 45 fc 01          	addl   $0x1,-0x4(%ebp)
c0109c97:	8b 45 fc             	mov    -0x4(%ebp),%eax
c0109c9a:	8b 55 f4             	mov    -0xc(%ebp),%edx
c0109c9d:	01 d0                	add    %edx,%eax
c0109c9f:	0f b6 10             	movzbl (%eax),%edx
c0109ca2:	8b 45 fc             	mov    -0x4(%ebp),%eax
c0109ca5:	8b 4d f0             	mov    -0x10(%ebp),%ecx
c0109ca8:	01 c8                	add    %ecx,%eax
c0109caa:	0f b6 00             	movzbl (%eax),%eax
c0109cad:	38 c2                	cmp    %al,%dl
c0109caf:	75 17                	jne    c0109cc8 <memcmp+0x57>
c0109cb1:	8b 45 fc             	mov    -0x4(%ebp),%eax
c0109cb4:	8b 55 f4             	mov    -0xc(%ebp),%edx
c0109cb7:	01 d0                	add    %edx,%eax
c0109cb9:	0f b6 00             	movzbl (%eax),%eax
c0109cbc:	84 c0                	test   %al,%al
c0109cbe:	74 08                	je     c0109cc8 <memcmp+0x57>
c0109cc0:	8b 45 fc             	mov    -0x4(%ebp),%eax
c0109cc3:	3b 45 10             	cmp    0x10(%ebp),%eax
c0109cc6:	72 cb                	jb     c0109c93 <memcmp+0x22>
c0109cc8:	8b 45 fc             	mov    -0x4(%ebp),%eax
c0109ccb:	8b 55 f4             	mov    -0xc(%ebp),%edx
c0109cce:	01 d0                	add    %edx,%eax
c0109cd0:	0f b6 00             	movzbl (%eax),%eax
c0109cd3:	0f be d0             	movsbl %al,%edx
c0109cd6:	8b 45 fc             	mov    -0x4(%ebp),%eax
c0109cd9:	8b 4d f0             	mov    -0x10(%ebp),%ecx
c0109cdc:	01 c8                	add    %ecx,%eax
c0109cde:	0f b6 00             	movzbl (%eax),%eax
c0109ce1:	0f be c0             	movsbl %al,%eax
c0109ce4:	89 d1                	mov    %edx,%ecx
c0109ce6:	29 c1                	sub    %eax,%ecx
c0109ce8:	89 c8                	mov    %ecx,%eax
c0109cea:	89 45 f8             	mov    %eax,-0x8(%ebp)
c0109ced:	83 7d f8 00          	cmpl   $0x0,-0x8(%ebp)
c0109cf1:	79 09                	jns    c0109cfc <memcmp+0x8b>
c0109cf3:	c7 45 f8 ff ff ff ff 	movl   $0xffffffff,-0x8(%ebp)
c0109cfa:	eb 0d                	jmp    c0109d09 <memcmp+0x98>
c0109cfc:	83 7d f8 00          	cmpl   $0x0,-0x8(%ebp)
c0109d00:	7e 07                	jle    c0109d09 <memcmp+0x98>
c0109d02:	c7 45 f8 01 00 00 00 	movl   $0x1,-0x8(%ebp)
c0109d09:	8b 45 f8             	mov    -0x8(%ebp),%eax
c0109d0c:	c9                   	leave  
c0109d0d:	c3                   	ret    

c0109d0e <memchr>:
c0109d0e:	55                   	push   %ebp
c0109d0f:	89 e5                	mov    %esp,%ebp
c0109d11:	83 ec 10             	sub    $0x10,%esp
c0109d14:	c7 45 fc 00 00 00 00 	movl   $0x0,-0x4(%ebp)
c0109d1b:	8b 45 08             	mov    0x8(%ebp),%eax
c0109d1e:	89 45 f8             	mov    %eax,-0x8(%ebp)
c0109d21:	eb 04                	jmp    c0109d27 <memchr+0x19>
c0109d23:	83 45 fc 01          	addl   $0x1,-0x4(%ebp)
c0109d27:	8b 45 fc             	mov    -0x4(%ebp),%eax
c0109d2a:	8b 55 f8             	mov    -0x8(%ebp),%edx
c0109d2d:	01 d0                	add    %edx,%eax
c0109d2f:	0f b6 10             	movzbl (%eax),%edx
c0109d32:	8b 45 0c             	mov    0xc(%ebp),%eax
c0109d35:	38 c2                	cmp    %al,%dl
c0109d37:	74 08                	je     c0109d41 <memchr+0x33>
c0109d39:	8b 45 fc             	mov    -0x4(%ebp),%eax
c0109d3c:	3b 45 10             	cmp    0x10(%ebp),%eax
c0109d3f:	72 e2                	jb     c0109d23 <memchr+0x15>
c0109d41:	8b 45 fc             	mov    -0x4(%ebp),%eax
c0109d44:	8b 55 f8             	mov    -0x8(%ebp),%edx
c0109d47:	01 d0                	add    %edx,%eax
c0109d49:	0f b6 00             	movzbl (%eax),%eax
c0109d4c:	84 c0                	test   %al,%al
c0109d4e:	74 0a                	je     c0109d5a <memchr+0x4c>
c0109d50:	8b 45 fc             	mov    -0x4(%ebp),%eax
c0109d53:	8b 55 f8             	mov    -0x8(%ebp),%edx
c0109d56:	01 d0                	add    %edx,%eax
c0109d58:	eb 05                	jmp    c0109d5f <memchr+0x51>
c0109d5a:	b8 00 00 00 00       	mov    $0x0,%eax
c0109d5f:	c9                   	leave  
c0109d60:	c3                   	ret    

c0109d61 <memset>:
c0109d61:	55                   	push   %ebp
c0109d62:	89 e5                	mov    %esp,%ebp
c0109d64:	83 ec 10             	sub    $0x10,%esp
c0109d67:	8b 45 08             	mov    0x8(%ebp),%eax
c0109d6a:	89 45 f8             	mov    %eax,-0x8(%ebp)
c0109d6d:	c7 45 fc 00 00 00 00 	movl   $0x0,-0x4(%ebp)
c0109d74:	eb 11                	jmp    c0109d87 <memset+0x26>
c0109d76:	8b 45 fc             	mov    -0x4(%ebp),%eax
c0109d79:	8b 55 f8             	mov    -0x8(%ebp),%edx
c0109d7c:	01 c2                	add    %eax,%edx
c0109d7e:	8b 45 0c             	mov    0xc(%ebp),%eax
c0109d81:	88 02                	mov    %al,(%edx)
c0109d83:	83 45 fc 01          	addl   $0x1,-0x4(%ebp)
c0109d87:	8b 45 fc             	mov    -0x4(%ebp),%eax
c0109d8a:	3b 45 10             	cmp    0x10(%ebp),%eax
c0109d8d:	72 e7                	jb     c0109d76 <memset+0x15>
c0109d8f:	8b 45 08             	mov    0x8(%ebp),%eax
c0109d92:	c9                   	leave  
c0109d93:	c3                   	ret    

c0109d94 <pmm_count_free_pages>:
c0109d94:	55                   	push   %ebp
c0109d95:	89 e5                	mov    %esp,%ebp
c0109d97:	56                   	push   %esi
c0109d98:	53                   	push   %ebx
c0109d99:	83 ec 10             	sub    $0x10,%esp
c0109d9c:	c7 45 f4 00 00 00 00 	movl   $0x0,-0xc(%ebp)
c0109da3:	c7 45 f0 00 00 00 00 	movl   $0x0,-0x10(%ebp)
c0109daa:	eb 3b                	jmp    c0109de7 <pmm_count_free_pages+0x53>
c0109dac:	c7 45 ec 00 00 00 00 	movl   $0x0,-0x14(%ebp)
c0109db3:	eb 28                	jmp    c0109ddd <pmm_count_free_pages+0x49>
c0109db5:	8b 45 f0             	mov    -0x10(%ebp),%eax
c0109db8:	8b 14 85 00 33 11 c0 	mov    -0x3feecd00(,%eax,4),%edx
c0109dbf:	8b 45 ec             	mov    -0x14(%ebp),%eax
c0109dc2:	bb 01 00 00 00       	mov    $0x1,%ebx
c0109dc7:	89 de                	mov    %ebx,%esi
c0109dc9:	89 c1                	mov    %eax,%ecx
c0109dcb:	d3 e6                	shl    %cl,%esi
c0109dcd:	89 f0                	mov    %esi,%eax
c0109dcf:	21 d0                	and    %edx,%eax
c0109dd1:	85 c0                	test   %eax,%eax
c0109dd3:	74 04                	je     c0109dd9 <pmm_count_free_pages+0x45>
c0109dd5:	83 45 f4 01          	addl   $0x1,-0xc(%ebp)
c0109dd9:	83 45 ec 01          	addl   $0x1,-0x14(%ebp)
c0109ddd:	83 7d ec 1f          	cmpl   $0x1f,-0x14(%ebp)
c0109de1:	7e d2                	jle    c0109db5 <pmm_count_free_pages+0x21>
c0109de3:	83 45 f0 01          	addl   $0x1,-0x10(%ebp)
c0109de7:	81 7d f0 ff 7f 00 00 	cmpl   $0x7fff,-0x10(%ebp)
c0109dee:	7e bc                	jle    c0109dac <pmm_count_free_pages+0x18>
c0109df0:	8b 45 f4             	mov    -0xc(%ebp),%eax
c0109df3:	83 c4 10             	add    $0x10,%esp
c0109df6:	5b                   	pop    %ebx
c0109df7:	5e                   	pop    %esi
c0109df8:	5d                   	pop    %ebp
c0109df9:	c3                   	ret    

c0109dfa <pmm_mark_page_as_free>:
c0109dfa:	55                   	push   %ebp
c0109dfb:	89 e5                	mov    %esp,%ebp
c0109dfd:	57                   	push   %edi
c0109dfe:	56                   	push   %esi
c0109dff:	53                   	push   %ebx
c0109e00:	8b 45 08             	mov    0x8(%ebp),%eax
c0109e03:	c1 e8 11             	shr    $0x11,%eax
c0109e06:	8b 1c 85 00 33 11 c0 	mov    -0x3feecd00(,%eax,4),%ebx
c0109e0d:	8b 55 08             	mov    0x8(%ebp),%edx
c0109e10:	c1 ea 0c             	shr    $0xc,%edx
c0109e13:	83 e2 1f             	and    $0x1f,%edx
c0109e16:	be 01 00 00 00       	mov    $0x1,%esi
c0109e1b:	89 f7                	mov    %esi,%edi
c0109e1d:	89 d1                	mov    %edx,%ecx
c0109e1f:	d3 e7                	shl    %cl,%edi
c0109e21:	89 fa                	mov    %edi,%edx
c0109e23:	09 da                	or     %ebx,%edx
c0109e25:	89 14 85 00 33 11 c0 	mov    %edx,-0x3feecd00(,%eax,4)
c0109e2c:	5b                   	pop    %ebx
c0109e2d:	5e                   	pop    %esi
c0109e2e:	5f                   	pop    %edi
c0109e2f:	5d                   	pop    %ebp
c0109e30:	c3                   	ret    

c0109e31 <pmm_mark_page_range_as_free>:
c0109e31:	55                   	push   %ebp
c0109e32:	89 e5                	mov    %esp,%ebp
c0109e34:	83 ec 28             	sub    $0x28,%esp
c0109e37:	83 7d 0c 00          	cmpl   $0x0,0xc(%ebp)
c0109e3b:	75 0c                	jne    c0109e49 <pmm_mark_page_range_as_free+0x18>
c0109e3d:	c7 04 24 44 c4 10 c0 	movl   $0xc010c444,(%esp)
c0109e44:	e8 37 88 ff ff       	call   c0102680 <panic>
c0109e49:	8b 45 08             	mov    0x8(%ebp),%eax
c0109e4c:	c1 e8 0c             	shr    $0xc,%eax
c0109e4f:	03 45 0c             	add    0xc(%ebp),%eax
c0109e52:	3d 00 00 10 00       	cmp    $0x100000,%eax
c0109e57:	76 0c                	jbe    c0109e65 <pmm_mark_page_range_as_free+0x34>
c0109e59:	c7 04 24 74 c4 10 c0 	movl   $0xc010c474,(%esp)
c0109e60:	e8 1b 88 ff ff       	call   c0102680 <panic>
c0109e65:	c7 45 f4 00 00 00 00 	movl   $0x0,-0xc(%ebp)
c0109e6c:	eb 15                	jmp    c0109e83 <pmm_mark_page_range_as_free+0x52>
c0109e6e:	8b 45 f4             	mov    -0xc(%ebp),%eax
c0109e71:	c1 e0 0c             	shl    $0xc,%eax
c0109e74:	03 45 08             	add    0x8(%ebp),%eax
c0109e77:	89 04 24             	mov    %eax,(%esp)
c0109e7a:	e8 7b ff ff ff       	call   c0109dfa <pmm_mark_page_as_free>
c0109e7f:	83 45 f4 01          	addl   $0x1,-0xc(%ebp)
c0109e83:	8b 45 f4             	mov    -0xc(%ebp),%eax
c0109e86:	3b 45 0c             	cmp    0xc(%ebp),%eax
c0109e89:	72 e3                	jb     c0109e6e <pmm_mark_page_range_as_free+0x3d>
c0109e8b:	c9                   	leave  
c0109e8c:	c3                   	ret    

c0109e8d <pmm_mark_page_as_used>:
c0109e8d:	55                   	push   %ebp
c0109e8e:	89 e5                	mov    %esp,%ebp
c0109e90:	57                   	push   %edi
c0109e91:	56                   	push   %esi
c0109e92:	53                   	push   %ebx
c0109e93:	8b 45 08             	mov    0x8(%ebp),%eax
c0109e96:	c1 e8 11             	shr    $0x11,%eax
c0109e99:	8b 1c 85 00 33 11 c0 	mov    -0x3feecd00(,%eax,4),%ebx
c0109ea0:	8b 55 08             	mov    0x8(%ebp),%edx
c0109ea3:	c1 ea 0c             	shr    $0xc,%edx
c0109ea6:	83 e2 1f             	and    $0x1f,%edx
c0109ea9:	be 01 00 00 00       	mov    $0x1,%esi
c0109eae:	89 f7                	mov    %esi,%edi
c0109eb0:	89 d1                	mov    %edx,%ecx
c0109eb2:	d3 e7                	shl    %cl,%edi
c0109eb4:	89 fa                	mov    %edi,%edx
c0109eb6:	f7 d2                	not    %edx
c0109eb8:	21 da                	and    %ebx,%edx
c0109eba:	89 14 85 00 33 11 c0 	mov    %edx,-0x3feecd00(,%eax,4)
c0109ec1:	5b                   	pop    %ebx
c0109ec2:	5e                   	pop    %esi
c0109ec3:	5f                   	pop    %edi
c0109ec4:	5d                   	pop    %ebp
c0109ec5:	c3                   	ret    

c0109ec6 <pmm_mark_page_range_as_used>:
c0109ec6:	55                   	push   %ebp
c0109ec7:	89 e5                	mov    %esp,%ebp
c0109ec9:	83 ec 28             	sub    $0x28,%esp
c0109ecc:	83 7d 0c 00          	cmpl   $0x0,0xc(%ebp)
c0109ed0:	75 0c                	jne    c0109ede <pmm_mark_page_range_as_used+0x18>
c0109ed2:	c7 04 24 d8 c4 10 c0 	movl   $0xc010c4d8,(%esp)
c0109ed9:	e8 a2 87 ff ff       	call   c0102680 <panic>
c0109ede:	8b 45 08             	mov    0x8(%ebp),%eax
c0109ee1:	c1 e8 0c             	shr    $0xc,%eax
c0109ee4:	03 45 0c             	add    0xc(%ebp),%eax
c0109ee7:	3d 00 00 10 00       	cmp    $0x100000,%eax
c0109eec:	76 0c                	jbe    c0109efa <pmm_mark_page_range_as_used+0x34>
c0109eee:	c7 04 24 08 c5 10 c0 	movl   $0xc010c508,(%esp)
c0109ef5:	e8 86 87 ff ff       	call   c0102680 <panic>
c0109efa:	c7 45 f4 00 00 00 00 	movl   $0x0,-0xc(%ebp)
c0109f01:	eb 15                	jmp    c0109f18 <pmm_mark_page_range_as_used+0x52>
c0109f03:	8b 45 f4             	mov    -0xc(%ebp),%eax
c0109f06:	c1 e0 0c             	shl    $0xc,%eax
c0109f09:	03 45 08             	add    0x8(%ebp),%eax
c0109f0c:	89 04 24             	mov    %eax,(%esp)
c0109f0f:	e8 79 ff ff ff       	call   c0109e8d <pmm_mark_page_as_used>
c0109f14:	83 45 f4 01          	addl   $0x1,-0xc(%ebp)
c0109f18:	8b 45 f4             	mov    -0xc(%ebp),%eax
c0109f1b:	3b 45 0c             	cmp    0xc(%ebp),%eax
c0109f1e:	72 e3                	jb     c0109f03 <pmm_mark_page_range_as_used+0x3d>
c0109f20:	c9                   	leave  
c0109f21:	c3                   	ret    

c0109f22 <pmm_find_free_page>:
c0109f22:	55                   	push   %ebp
c0109f23:	89 e5                	mov    %esp,%ebp
c0109f25:	56                   	push   %esi
c0109f26:	53                   	push   %ebx
c0109f27:	83 ec 20             	sub    $0x20,%esp
c0109f2a:	c7 45 f0 00 00 00 00 	movl   $0x0,-0x10(%ebp)
c0109f31:	8b 45 08             	mov    0x8(%ebp),%eax
c0109f34:	c1 e8 11             	shr    $0x11,%eax
c0109f37:	89 45 f4             	mov    %eax,-0xc(%ebp)
c0109f3a:	8b 45 f4             	mov    -0xc(%ebp),%eax
c0109f3d:	8b 04 85 00 33 11 c0 	mov    -0x3feecd00(,%eax,4),%eax
c0109f44:	8b 55 08             	mov    0x8(%ebp),%edx
c0109f47:	c1 ea 0c             	shr    $0xc,%edx
c0109f4a:	83 e2 1f             	and    $0x1f,%edx
c0109f4d:	bb ff ff ff ff       	mov    $0xffffffff,%ebx
c0109f52:	89 de                	mov    %ebx,%esi
c0109f54:	89 d1                	mov    %edx,%ecx
c0109f56:	d3 e6                	shl    %cl,%esi
c0109f58:	89 f2                	mov    %esi,%edx
c0109f5a:	21 d0                	and    %edx,%eax
c0109f5c:	85 c0                	test   %eax,%eax
c0109f5e:	74 41                	je     c0109fa1 <pmm_find_free_page+0x7f>
c0109f60:	8b 45 f4             	mov    -0xc(%ebp),%eax
c0109f63:	8b 04 85 00 33 11 c0 	mov    -0x3feecd00(,%eax,4),%eax
c0109f6a:	8b 55 08             	mov    0x8(%ebp),%edx
c0109f6d:	c1 ea 0c             	shr    $0xc,%edx
c0109f70:	83 e2 1f             	and    $0x1f,%edx
c0109f73:	bb ff ff ff ff       	mov    $0xffffffff,%ebx
c0109f78:	89 de                	mov    %ebx,%esi
c0109f7a:	89 d1                	mov    %edx,%ecx
c0109f7c:	d3 e6                	shl    %cl,%esi
c0109f7e:	89 f2                	mov    %esi,%edx
c0109f80:	21 d0                	and    %edx,%eax
c0109f82:	89 04 24             	mov    %eax,(%esp)
c0109f85:	e8 32 85 ff ff       	call   c01024bc <bit_scan_forward>
c0109f8a:	89 45 ec             	mov    %eax,-0x14(%ebp)
c0109f8d:	8b 45 f4             	mov    -0xc(%ebp),%eax
c0109f90:	c1 e0 05             	shl    $0x5,%eax
c0109f93:	03 45 ec             	add    -0x14(%ebp),%eax
c0109f96:	c1 e0 0c             	shl    $0xc,%eax
c0109f99:	89 45 f0             	mov    %eax,-0x10(%ebp)
c0109f9c:	8b 45 f0             	mov    -0x10(%ebp),%eax
c0109f9f:	eb 4f                	jmp    c0109ff0 <pmm_find_free_page+0xce>
c0109fa1:	83 45 f4 01          	addl   $0x1,-0xc(%ebp)
c0109fa5:	eb 3b                	jmp    c0109fe2 <pmm_find_free_page+0xc0>
c0109fa7:	8b 45 f4             	mov    -0xc(%ebp),%eax
c0109faa:	8b 04 85 00 33 11 c0 	mov    -0x3feecd00(,%eax,4),%eax
c0109fb1:	85 c0                	test   %eax,%eax
c0109fb3:	74 29                	je     c0109fde <pmm_find_free_page+0xbc>
c0109fb5:	8b 45 f4             	mov    -0xc(%ebp),%eax
c0109fb8:	8b 04 85 00 33 11 c0 	mov    -0x3feecd00(,%eax,4),%eax
c0109fbf:	89 04 24             	mov    %eax,(%esp)
c0109fc2:	e8 f5 84 ff ff       	call   c01024bc <bit_scan_forward>
c0109fc7:	89 45 ec             	mov    %eax,-0x14(%ebp)
c0109fca:	8b 45 f4             	mov    -0xc(%ebp),%eax
c0109fcd:	c1 e0 05             	shl    $0x5,%eax
c0109fd0:	03 45 ec             	add    -0x14(%ebp),%eax
c0109fd3:	c1 e0 0c             	shl    $0xc,%eax
c0109fd6:	89 45 f0             	mov    %eax,-0x10(%ebp)
c0109fd9:	8b 45 f0             	mov    -0x10(%ebp),%eax
c0109fdc:	eb 12                	jmp    c0109ff0 <pmm_find_free_page+0xce>
c0109fde:	83 45 f4 01          	addl   $0x1,-0xc(%ebp)
c0109fe2:	81 7d f4 ff 7f 00 00 	cmpl   $0x7fff,-0xc(%ebp)
c0109fe9:	76 bc                	jbe    c0109fa7 <pmm_find_free_page+0x85>
c0109feb:	b8 ff ff ff ff       	mov    $0xffffffff,%eax
c0109ff0:	83 c4 20             	add    $0x20,%esp
c0109ff3:	5b                   	pop    %ebx
c0109ff4:	5e                   	pop    %esi
c0109ff5:	5d                   	pop    %ebp
c0109ff6:	c3                   	ret    

c0109ff7 <pmm_find_free_page_range>:
c0109ff7:	55                   	push   %ebp
c0109ff8:	89 e5                	mov    %esp,%ebp
c0109ffa:	56                   	push   %esi
c0109ffb:	53                   	push   %ebx
c0109ffc:	83 ec 20             	sub    $0x20,%esp
c0109fff:	c7 45 ec 00 00 00 00 	movl   $0x0,-0x14(%ebp)
c010a006:	c7 45 e8 00 00 00 00 	movl   $0x0,-0x18(%ebp)
c010a00d:	83 7d 0c 00          	cmpl   $0x0,0xc(%ebp)
c010a011:	75 0c                	jne    c010a01f <pmm_find_free_page_range+0x28>
c010a013:	c7 04 24 6c c5 10 c0 	movl   $0xc010c56c,(%esp)
c010a01a:	e8 61 86 ff ff       	call   c0102680 <panic>
c010a01f:	8b 45 08             	mov    0x8(%ebp),%eax
c010a022:	c1 e8 11             	shr    $0x11,%eax
c010a025:	89 45 f4             	mov    %eax,-0xc(%ebp)
c010a028:	e9 ce 00 00 00       	jmp    c010a0fb <pmm_find_free_page_range+0x104>
c010a02d:	8b 45 f4             	mov    -0xc(%ebp),%eax
c010a030:	89 44 24 04          	mov    %eax,0x4(%esp)
c010a034:	c7 04 24 9c c5 10 c0 	movl   $0xc010c59c,(%esp)
c010a03b:	e8 14 b2 ff ff       	call   c0105254 <printf>
c010a040:	8b 45 f4             	mov    -0xc(%ebp),%eax
c010a043:	8b 04 85 00 33 11 c0 	mov    -0x3feecd00(,%eax,4),%eax
c010a04a:	85 c0                	test   %eax,%eax
c010a04c:	75 0c                	jne    c010a05a <pmm_find_free_page_range+0x63>
c010a04e:	c7 45 ec 00 00 00 00 	movl   $0x0,-0x14(%ebp)
c010a055:	e9 9d 00 00 00       	jmp    c010a0f7 <pmm_find_free_page_range+0x100>
c010a05a:	8b 45 f4             	mov    -0xc(%ebp),%eax
c010a05d:	8b 04 85 00 33 11 c0 	mov    -0x3feecd00(,%eax,4),%eax
c010a064:	83 f8 ff             	cmp    $0xffffffff,%eax
c010a067:	75 15                	jne    c010a07e <pmm_find_free_page_range+0x87>
c010a069:	83 7d ec 00          	cmpl   $0x0,-0x14(%ebp)
c010a06d:	75 09                	jne    c010a078 <pmm_find_free_page_range+0x81>
c010a06f:	8b 45 f4             	mov    -0xc(%ebp),%eax
c010a072:	c1 e0 11             	shl    $0x11,%eax
c010a075:	89 45 e8             	mov    %eax,-0x18(%ebp)
c010a078:	83 45 ec 20          	addl   $0x20,-0x14(%ebp)
c010a07c:	eb 6c                	jmp    c010a0ea <pmm_find_free_page_range+0xf3>
c010a07e:	c7 04 24 a0 c5 10 c0 	movl   $0xc010c5a0,(%esp)
c010a085:	e8 dd bd ff ff       	call   c0105e67 <puts>
c010a08a:	c7 45 f0 00 00 00 00 	movl   $0x0,-0x10(%ebp)
c010a091:	eb 51                	jmp    c010a0e4 <pmm_find_free_page_range+0xed>
c010a093:	8b 45 f4             	mov    -0xc(%ebp),%eax
c010a096:	8b 14 85 00 33 11 c0 	mov    -0x3feecd00(,%eax,4),%edx
c010a09d:	8b 45 f0             	mov    -0x10(%ebp),%eax
c010a0a0:	bb 01 00 00 00       	mov    $0x1,%ebx
c010a0a5:	89 de                	mov    %ebx,%esi
c010a0a7:	89 c1                	mov    %eax,%ecx
c010a0a9:	d3 e6                	shl    %cl,%esi
c010a0ab:	89 f0                	mov    %esi,%eax
c010a0ad:	21 d0                	and    %edx,%eax
c010a0af:	85 c0                	test   %eax,%eax
c010a0b1:	74 26                	je     c010a0d9 <pmm_find_free_page_range+0xe2>
c010a0b3:	83 7d ec 00          	cmpl   $0x0,-0x14(%ebp)
c010a0b7:	75 0f                	jne    c010a0c8 <pmm_find_free_page_range+0xd1>
c010a0b9:	8b 45 f4             	mov    -0xc(%ebp),%eax
c010a0bc:	c1 e0 05             	shl    $0x5,%eax
c010a0bf:	03 45 f0             	add    -0x10(%ebp),%eax
c010a0c2:	c1 e0 0c             	shl    $0xc,%eax
c010a0c5:	89 45 e8             	mov    %eax,-0x18(%ebp)
c010a0c8:	83 45 ec 01          	addl   $0x1,-0x14(%ebp)
c010a0cc:	8b 45 ec             	mov    -0x14(%ebp),%eax
c010a0cf:	3b 45 0c             	cmp    0xc(%ebp),%eax
c010a0d2:	72 0c                	jb     c010a0e0 <pmm_find_free_page_range+0xe9>
c010a0d4:	8b 45 e8             	mov    -0x18(%ebp),%eax
c010a0d7:	eb 34                	jmp    c010a10d <pmm_find_free_page_range+0x116>
c010a0d9:	c7 45 ec 00 00 00 00 	movl   $0x0,-0x14(%ebp)
c010a0e0:	83 45 f0 01          	addl   $0x1,-0x10(%ebp)
c010a0e4:	83 7d f0 1f          	cmpl   $0x1f,-0x10(%ebp)
c010a0e8:	76 a9                	jbe    c010a093 <pmm_find_free_page_range+0x9c>
c010a0ea:	8b 45 ec             	mov    -0x14(%ebp),%eax
c010a0ed:	3b 45 0c             	cmp    0xc(%ebp),%eax
c010a0f0:	72 05                	jb     c010a0f7 <pmm_find_free_page_range+0x100>
c010a0f2:	8b 45 e8             	mov    -0x18(%ebp),%eax
c010a0f5:	eb 16                	jmp    c010a10d <pmm_find_free_page_range+0x116>
c010a0f7:	83 45 f4 01          	addl   $0x1,-0xc(%ebp)
c010a0fb:	81 7d f4 ff 7f 00 00 	cmpl   $0x7fff,-0xc(%ebp)
c010a102:	0f 86 25 ff ff ff    	jbe    c010a02d <pmm_find_free_page_range+0x36>
c010a108:	b8 ff ff ff ff       	mov    $0xffffffff,%eax
c010a10d:	83 c4 20             	add    $0x20,%esp
c010a110:	5b                   	pop    %ebx
c010a111:	5e                   	pop    %esi
c010a112:	5d                   	pop    %ebp
c010a113:	c3                   	ret    

c010a114 <pmm_alloc_page>:
c010a114:	55                   	push   %ebp
c010a115:	89 e5                	mov    %esp,%ebp
c010a117:	83 ec 28             	sub    $0x28,%esp
c010a11a:	c7 04 24 00 00 00 01 	movl   $0x1000000,(%esp)
c010a121:	e8 fc fd ff ff       	call   c0109f22 <pmm_find_free_page>
c010a126:	89 45 f4             	mov    %eax,-0xc(%ebp)
c010a129:	8b 45 f4             	mov    -0xc(%ebp),%eax
c010a12c:	25 ff 0f 00 00       	and    $0xfff,%eax
c010a131:	85 c0                	test   %eax,%eax
c010a133:	74 0c                	je     c010a141 <pmm_alloc_page+0x2d>
c010a135:	c7 04 24 a4 c5 10 c0 	movl   $0xc010c5a4,(%esp)
c010a13c:	e8 3f 85 ff ff       	call   c0102680 <panic>
c010a141:	8b 45 f4             	mov    -0xc(%ebp),%eax
c010a144:	89 04 24             	mov    %eax,(%esp)
c010a147:	e8 41 fd ff ff       	call   c0109e8d <pmm_mark_page_as_used>
c010a14c:	8b 45 f4             	mov    -0xc(%ebp),%eax
c010a14f:	c9                   	leave  
c010a150:	c3                   	ret    

c010a151 <pmm_alloc_page_limit>:
c010a151:	55                   	push   %ebp
c010a152:	89 e5                	mov    %esp,%ebp
c010a154:	83 ec 28             	sub    $0x28,%esp
c010a157:	8b 45 08             	mov    0x8(%ebp),%eax
c010a15a:	89 04 24             	mov    %eax,(%esp)
c010a15d:	e8 c0 fd ff ff       	call   c0109f22 <pmm_find_free_page>
c010a162:	89 45 f4             	mov    %eax,-0xc(%ebp)
c010a165:	8b 45 f4             	mov    -0xc(%ebp),%eax
c010a168:	25 ff 0f 00 00       	and    $0xfff,%eax
c010a16d:	85 c0                	test   %eax,%eax
c010a16f:	74 0c                	je     c010a17d <pmm_alloc_page_limit+0x2c>
c010a171:	c7 04 24 cc c5 10 c0 	movl   $0xc010c5cc,(%esp)
c010a178:	e8 03 85 ff ff       	call   c0102680 <panic>
c010a17d:	8b 45 f4             	mov    -0xc(%ebp),%eax
c010a180:	89 04 24             	mov    %eax,(%esp)
c010a183:	e8 05 fd ff ff       	call   c0109e8d <pmm_mark_page_as_used>
c010a188:	8b 45 f4             	mov    -0xc(%ebp),%eax
c010a18b:	c9                   	leave  
c010a18c:	c3                   	ret    

c010a18d <pmm_alloc_dma_page_range>:
c010a18d:	55                   	push   %ebp
c010a18e:	89 e5                	mov    %esp,%ebp
c010a190:	83 ec 28             	sub    $0x28,%esp
c010a193:	83 7d 08 00          	cmpl   $0x0,0x8(%ebp)
c010a197:	75 0c                	jne    c010a1a5 <pmm_alloc_dma_page_range+0x18>
c010a199:	c7 04 24 f8 c5 10 c0 	movl   $0xc010c5f8,(%esp)
c010a1a0:	e8 db 84 ff ff       	call   c0102680 <panic>
c010a1a5:	8b 45 08             	mov    0x8(%ebp),%eax
c010a1a8:	89 44 24 04          	mov    %eax,0x4(%esp)
c010a1ac:	c7 04 24 00 00 00 00 	movl   $0x0,(%esp)
c010a1b3:	e8 3f fe ff ff       	call   c0109ff7 <pmm_find_free_page_range>
c010a1b8:	89 45 f4             	mov    %eax,-0xc(%ebp)
c010a1bb:	8b 45 f4             	mov    -0xc(%ebp),%eax
c010a1be:	25 ff 0f 00 00       	and    $0xfff,%eax
c010a1c3:	85 c0                	test   %eax,%eax
c010a1c5:	75 09                	jne    c010a1d0 <pmm_alloc_dma_page_range+0x43>
c010a1c7:	81 7d f4 ff ff ff 00 	cmpl   $0xffffff,-0xc(%ebp)
c010a1ce:	76 0c                	jbe    c010a1dc <pmm_alloc_dma_page_range+0x4f>
c010a1d0:	c7 04 24 24 c6 10 c0 	movl   $0xc010c624,(%esp)
c010a1d7:	e8 a4 84 ff ff       	call   c0102680 <panic>
c010a1dc:	8b 45 08             	mov    0x8(%ebp),%eax
c010a1df:	89 44 24 04          	mov    %eax,0x4(%esp)
c010a1e3:	8b 45 f4             	mov    -0xc(%ebp),%eax
c010a1e6:	89 04 24             	mov    %eax,(%esp)
c010a1e9:	e8 d8 fc ff ff       	call   c0109ec6 <pmm_mark_page_range_as_used>
c010a1ee:	8b 45 f4             	mov    -0xc(%ebp),%eax
c010a1f1:	c9                   	leave  
c010a1f2:	c3                   	ret    

c010a1f3 <pmm_alloc_page_range>:
c010a1f3:	55                   	push   %ebp
c010a1f4:	89 e5                	mov    %esp,%ebp
c010a1f6:	83 ec 28             	sub    $0x28,%esp
c010a1f9:	83 7d 08 00          	cmpl   $0x0,0x8(%ebp)
c010a1fd:	75 0c                	jne    c010a20b <pmm_alloc_page_range+0x18>
c010a1ff:	c7 04 24 58 c6 10 c0 	movl   $0xc010c658,(%esp)
c010a206:	e8 75 84 ff ff       	call   c0102680 <panic>
c010a20b:	8b 45 08             	mov    0x8(%ebp),%eax
c010a20e:	89 44 24 04          	mov    %eax,0x4(%esp)
c010a212:	c7 04 24 00 00 00 01 	movl   $0x1000000,(%esp)
c010a219:	e8 d9 fd ff ff       	call   c0109ff7 <pmm_find_free_page_range>
c010a21e:	89 45 f4             	mov    %eax,-0xc(%ebp)
c010a221:	8b 45 f4             	mov    -0xc(%ebp),%eax
c010a224:	25 ff 0f 00 00       	and    $0xfff,%eax
c010a229:	85 c0                	test   %eax,%eax
c010a22b:	74 0c                	je     c010a239 <pmm_alloc_page_range+0x46>
c010a22d:	c7 04 24 80 c6 10 c0 	movl   $0xc010c680,(%esp)
c010a234:	e8 47 84 ff ff       	call   c0102680 <panic>
c010a239:	8b 45 08             	mov    0x8(%ebp),%eax
c010a23c:	89 44 24 04          	mov    %eax,0x4(%esp)
c010a240:	8b 45 f4             	mov    -0xc(%ebp),%eax
c010a243:	89 04 24             	mov    %eax,(%esp)
c010a246:	e8 7b fc ff ff       	call   c0109ec6 <pmm_mark_page_range_as_used>
c010a24b:	8b 45 f4             	mov    -0xc(%ebp),%eax
c010a24e:	c9                   	leave  
c010a24f:	c3                   	ret    

c010a250 <INIT_PMM>:
c010a250:	55                   	push   %ebp
c010a251:	89 e5                	mov    %esp,%ebp
c010a253:	83 ec 48             	sub    $0x48,%esp
c010a256:	c7 45 f4 00 00 00 00 	movl   $0x0,-0xc(%ebp)
c010a25d:	eb 12                	jmp    c010a271 <INIT_PMM+0x21>
c010a25f:	8b 45 f4             	mov    -0xc(%ebp),%eax
c010a262:	c7 04 85 00 33 11 c0 	movl   $0x0,-0x3feecd00(,%eax,4)
c010a269:	00 00 00 00 
c010a26d:	83 45 f4 01          	addl   $0x1,-0xc(%ebp)
c010a271:	81 7d f4 ff 7f 00 00 	cmpl   $0x7fff,-0xc(%ebp)
c010a278:	7e e5                	jle    c010a25f <INIT_PMM+0xf>
c010a27a:	8b 45 08             	mov    0x8(%ebp),%eax
c010a27d:	8b 40 30             	mov    0x30(%eax),%eax
c010a280:	8d 90 00 00 00 c0    	lea    -0x40000000(%eax),%edx
c010a286:	8b 45 08             	mov    0x8(%ebp),%eax
c010a289:	89 50 30             	mov    %edx,0x30(%eax)
c010a28c:	8b 45 08             	mov    0x8(%ebp),%eax
c010a28f:	8b 40 18             	mov    0x18(%eax),%eax
c010a292:	8d 90 00 00 00 c0    	lea    -0x40000000(%eax),%edx
c010a298:	8b 45 08             	mov    0x8(%ebp),%eax
c010a29b:	89 50 18             	mov    %edx,0x18(%eax)
c010a29e:	8b 45 08             	mov    0x8(%ebp),%eax
c010a2a1:	8b 40 30             	mov    0x30(%eax),%eax
c010a2a4:	89 45 ec             	mov    %eax,-0x14(%ebp)
c010a2a7:	c7 45 f0 00 00 00 00 	movl   $0x0,-0x10(%ebp)
c010a2ae:	c7 45 f4 00 00 00 00 	movl   $0x0,-0xc(%ebp)
c010a2b5:	e9 80 00 00 00       	jmp    c010a33a <INIT_PMM+0xea>
c010a2ba:	8b 55 f4             	mov    -0xc(%ebp),%edx
c010a2bd:	89 d0                	mov    %edx,%eax
c010a2bf:	01 c0                	add    %eax,%eax
c010a2c1:	01 d0                	add    %edx,%eax
c010a2c3:	c1 e0 03             	shl    $0x3,%eax
c010a2c6:	03 45 ec             	add    -0x14(%ebp),%eax
c010a2c9:	8b 10                	mov    (%eax),%edx
c010a2cb:	8b 45 f0             	mov    -0x10(%ebp),%eax
c010a2ce:	01 d0                	add    %edx,%eax
c010a2d0:	83 c0 04             	add    $0x4,%eax
c010a2d3:	89 45 f0             	mov    %eax,-0x10(%ebp)
c010a2d6:	8b 55 f4             	mov    -0xc(%ebp),%edx
c010a2d9:	89 d0                	mov    %edx,%eax
c010a2db:	01 c0                	add    %eax,%eax
c010a2dd:	01 d0                	add    %edx,%eax
c010a2df:	c1 e0 03             	shl    $0x3,%eax
c010a2e2:	03 45 ec             	add    -0x14(%ebp),%eax
c010a2e5:	8b 40 14             	mov    0x14(%eax),%eax
c010a2e8:	83 f8 01             	cmp    $0x1,%eax
c010a2eb:	75 49                	jne    c010a336 <INIT_PMM+0xe6>
c010a2ed:	8b 55 f4             	mov    -0xc(%ebp),%edx
c010a2f0:	89 d0                	mov    %edx,%eax
c010a2f2:	01 c0                	add    %eax,%eax
c010a2f4:	01 d0                	add    %edx,%eax
c010a2f6:	c1 e0 03             	shl    $0x3,%eax
c010a2f9:	03 45 ec             	add    -0x14(%ebp),%eax
c010a2fc:	8b 50 08             	mov    0x8(%eax),%edx
c010a2ff:	8b 40 04             	mov    0x4(%eax),%eax
c010a302:	89 45 e8             	mov    %eax,-0x18(%ebp)
c010a305:	8b 55 f4             	mov    -0xc(%ebp),%edx
c010a308:	89 d0                	mov    %edx,%eax
c010a30a:	01 c0                	add    %eax,%eax
c010a30c:	01 d0                	add    %edx,%eax
c010a30e:	c1 e0 03             	shl    $0x3,%eax
c010a311:	03 45 ec             	add    -0x14(%ebp),%eax
c010a314:	8b 50 10             	mov    0x10(%eax),%edx
c010a317:	8b 40 0c             	mov    0xc(%eax),%eax
c010a31a:	0f ac d0 0c          	shrd   $0xc,%edx,%eax
c010a31e:	c1 ea 0c             	shr    $0xc,%edx
c010a321:	89 45 e4             	mov    %eax,-0x1c(%ebp)
c010a324:	8b 45 e4             	mov    -0x1c(%ebp),%eax
c010a327:	89 44 24 04          	mov    %eax,0x4(%esp)
c010a32b:	8b 45 e8             	mov    -0x18(%ebp),%eax
c010a32e:	89 04 24             	mov    %eax,(%esp)
c010a331:	e8 fb fa ff ff       	call   c0109e31 <pmm_mark_page_range_as_free>
c010a336:	83 45 f4 01          	addl   $0x1,-0xc(%ebp)
c010a33a:	8b 55 f0             	mov    -0x10(%ebp),%edx
c010a33d:	8b 45 08             	mov    0x8(%ebp),%eax
c010a340:	8b 40 2c             	mov    0x2c(%eax),%eax
c010a343:	39 c2                	cmp    %eax,%edx
c010a345:	0f 82 6f ff ff ff    	jb     c010a2ba <INIT_PMM+0x6a>
c010a34b:	c7 04 24 00 00 00 00 	movl   $0x0,(%esp)
c010a352:	e8 36 fb ff ff       	call   c0109e8d <pmm_mark_page_as_used>
c010a357:	c7 45 e0 0e 04 00 00 	movl   $0x40e,-0x20(%ebp)
c010a35e:	8b 45 e0             	mov    -0x20(%ebp),%eax
c010a361:	0f b7 00             	movzwl (%eax),%eax
c010a364:	0f b7 c0             	movzwl %ax,%eax
c010a367:	c1 e0 04             	shl    $0x4,%eax
c010a36a:	89 04 24             	mov    %eax,(%esp)
c010a36d:	e8 1b fb ff ff       	call   c0109e8d <pmm_mark_page_as_used>
c010a372:	c7 45 dc 13 04 00 00 	movl   $0x413,-0x24(%ebp)
c010a379:	8b 45 dc             	mov    -0x24(%ebp),%eax
c010a37c:	0f b7 00             	movzwl (%eax),%eax
c010a37f:	66 c1 e8 02          	shr    $0x2,%ax
c010a383:	0f b7 c0             	movzwl %ax,%eax
c010a386:	c1 e0 0a             	shl    $0xa,%eax
c010a389:	89 04 24             	mov    %eax,(%esp)
c010a38c:	e8 fc fa ff ff       	call   c0109e8d <pmm_mark_page_as_used>
c010a391:	c7 44 24 04 60 00 00 	movl   $0x60,0x4(%esp)
c010a398:	00 
c010a399:	c7 04 24 00 00 0a 00 	movl   $0xa0000,(%esp)
c010a3a0:	e8 21 fb ff ff       	call   c0109ec6 <pmm_mark_page_range_as_used>
c010a3a5:	8b 45 08             	mov    0x8(%ebp),%eax
c010a3a8:	8b 40 18             	mov    0x18(%eax),%eax
c010a3ab:	89 45 d8             	mov    %eax,-0x28(%ebp)
c010a3ae:	8b 45 08             	mov    0x8(%ebp),%eax
c010a3b1:	05 00 00 00 40       	add    $0x40000000,%eax
c010a3b6:	89 04 24             	mov    %eax,(%esp)
c010a3b9:	e8 cf fa ff ff       	call   c0109e8d <pmm_mark_page_as_used>
c010a3be:	8b 45 d8             	mov    -0x28(%ebp),%eax
c010a3c1:	05 00 00 00 40       	add    $0x40000000,%eax
c010a3c6:	89 04 24             	mov    %eax,(%esp)
c010a3c9:	e8 bf fa ff ff       	call   c0109e8d <pmm_mark_page_as_used>
c010a3ce:	c7 45 f4 00 00 00 00 	movl   $0x0,-0xc(%ebp)
c010a3d5:	eb 65                	jmp    c010a43c <INIT_PMM+0x1ec>
c010a3d7:	8b 45 f4             	mov    -0xc(%ebp),%eax
c010a3da:	c1 e0 04             	shl    $0x4,%eax
c010a3dd:	03 45 d8             	add    -0x28(%ebp),%eax
c010a3e0:	8b 50 04             	mov    0x4(%eax),%edx
c010a3e3:	8b 45 f4             	mov    -0xc(%ebp),%eax
c010a3e6:	c1 e0 04             	shl    $0x4,%eax
c010a3e9:	03 45 d8             	add    -0x28(%ebp),%eax
c010a3ec:	8b 00                	mov    (%eax),%eax
c010a3ee:	89 d1                	mov    %edx,%ecx
c010a3f0:	29 c1                	sub    %eax,%ecx
c010a3f2:	89 c8                	mov    %ecx,%eax
c010a3f4:	89 45 d4             	mov    %eax,-0x2c(%ebp)
c010a3f7:	8b 45 d4             	mov    -0x2c(%ebp),%eax
c010a3fa:	05 ff 0f 00 00       	add    $0xfff,%eax
c010a3ff:	25 00 f0 ff ff       	and    $0xfffff000,%eax
c010a404:	c1 e8 0c             	shr    $0xc,%eax
c010a407:	89 45 d0             	mov    %eax,-0x30(%ebp)
c010a40a:	8b 55 d0             	mov    -0x30(%ebp),%edx
c010a40d:	8b 45 f4             	mov    -0xc(%ebp),%eax
c010a410:	c1 e0 04             	shl    $0x4,%eax
c010a413:	03 45 d8             	add    -0x28(%ebp),%eax
c010a416:	8b 00                	mov    (%eax),%eax
c010a418:	89 54 24 04          	mov    %edx,0x4(%esp)
c010a41c:	89 04 24             	mov    %eax,(%esp)
c010a41f:	e8 a2 fa ff ff       	call   c0109ec6 <pmm_mark_page_range_as_used>
c010a424:	8b 45 f4             	mov    -0xc(%ebp),%eax
c010a427:	c1 e0 04             	shl    $0x4,%eax
c010a42a:	03 45 d8             	add    -0x28(%ebp),%eax
c010a42d:	8b 40 08             	mov    0x8(%eax),%eax
c010a430:	89 04 24             	mov    %eax,(%esp)
c010a433:	e8 55 fa ff ff       	call   c0109e8d <pmm_mark_page_as_used>
c010a438:	83 45 f4 01          	addl   $0x1,-0xc(%ebp)
c010a43c:	8b 55 f4             	mov    -0xc(%ebp),%edx
c010a43f:	8b 45 08             	mov    0x8(%ebp),%eax
c010a442:	8b 40 14             	mov    0x14(%eax),%eax
c010a445:	39 c2                	cmp    %eax,%edx
c010a447:	72 8e                	jb     c010a3d7 <INIT_PMM+0x187>
c010a449:	8b 45 08             	mov    0x8(%ebp),%eax
c010a44c:	8b 00                	mov    (%eax),%eax
c010a44e:	83 e0 01             	and    $0x1,%eax
c010a451:	85 c0                	test   %eax,%eax
c010a453:	75 0c                	jne    c010a461 <INIT_PMM+0x211>
c010a455:	c7 04 24 ac c6 10 c0 	movl   $0xc010c6ac,(%esp)
c010a45c:	e8 1f 82 ff ff       	call   c0102680 <panic>
c010a461:	c9                   	leave  
c010a462:	c3                   	ret    
	...

c010a464 <print>:
c010a464:	55                   	push   %ebp
c010a465:	89 e5                	mov    %esp,%ebp
c010a467:	83 ec 18             	sub    $0x18,%esp
c010a46a:	8b 45 08             	mov    0x8(%ebp),%eax
c010a46d:	8b 00                	mov    (%eax),%eax
c010a46f:	8b 40 1c             	mov    0x1c(%eax),%eax
c010a472:	89 44 24 04          	mov    %eax,0x4(%esp)
c010a476:	c7 04 24 d9 c6 10 c0 	movl   $0xc010c6d9,(%esp)
c010a47d:	e8 d2 ad ff ff       	call   c0105254 <printf>
c010a482:	8b 45 08             	mov    0x8(%ebp),%eax
c010a485:	8b 00                	mov    (%eax),%eax
c010a487:	c7 40 28 00 00 00 00 	movl   $0x0,0x28(%eax)
c010a48e:	c9                   	leave  
c010a48f:	c3                   	ret    

c010a490 <identify_os>:
c010a490:	55                   	push   %ebp
c010a491:	89 e5                	mov    %esp,%ebp
c010a493:	8b 45 08             	mov    0x8(%ebp),%eax
c010a496:	8b 00                	mov    (%eax),%eax
c010a498:	c7 40 28 75 6e 69 01 	movl   $0x1696e75,0x28(%eax)
c010a49f:	5d                   	pop    %ebp
c010a4a0:	c3                   	ret    

c010a4a1 <linux_syscall_handler>:
c010a4a1:	55                   	push   %ebp
c010a4a2:	89 e5                	mov    %esp,%ebp
c010a4a4:	83 ec 18             	sub    $0x18,%esp
c010a4a7:	8b 45 08             	mov    0x8(%ebp),%eax
c010a4aa:	8b 00                	mov    (%eax),%eax
c010a4ac:	8b 40 28             	mov    0x28(%eax),%eax
c010a4af:	83 f8 06             	cmp    $0x6,%eax
c010a4b2:	77 2a                	ja     c010a4de <linux_syscall_handler+0x3d>
c010a4b4:	8b 45 08             	mov    0x8(%ebp),%eax
c010a4b7:	8b 00                	mov    (%eax),%eax
c010a4b9:	8b 40 28             	mov    0x28(%eax),%eax
c010a4bc:	8b 04 85 e0 f4 10 c0 	mov    -0x3fef0b20(,%eax,4),%eax
c010a4c3:	85 c0                	test   %eax,%eax
c010a4c5:	74 17                	je     c010a4de <linux_syscall_handler+0x3d>
c010a4c7:	8b 45 08             	mov    0x8(%ebp),%eax
c010a4ca:	8b 00                	mov    (%eax),%eax
c010a4cc:	8b 40 28             	mov    0x28(%eax),%eax
c010a4cf:	8b 14 85 e0 f4 10 c0 	mov    -0x3fef0b20(,%eax,4),%edx
c010a4d6:	8b 45 08             	mov    0x8(%ebp),%eax
c010a4d9:	89 04 24             	mov    %eax,(%esp)
c010a4dc:	ff d2                	call   *%edx
c010a4de:	c9                   	leave  
c010a4df:	c3                   	ret    

c010a4e0 <universe_syscall_handler>:
c010a4e0:	55                   	push   %ebp
c010a4e1:	89 e5                	mov    %esp,%ebp
c010a4e3:	83 ec 18             	sub    $0x18,%esp
c010a4e6:	8b 45 08             	mov    0x8(%ebp),%eax
c010a4e9:	8b 00                	mov    (%eax),%eax
c010a4eb:	8b 40 28             	mov    0x28(%eax),%eax
c010a4ee:	83 f8 03             	cmp    $0x3,%eax
c010a4f1:	77 2a                	ja     c010a51d <universe_syscall_handler+0x3d>
c010a4f3:	8b 45 08             	mov    0x8(%ebp),%eax
c010a4f6:	8b 00                	mov    (%eax),%eax
c010a4f8:	8b 40 28             	mov    0x28(%eax),%eax
c010a4fb:	8b 04 85 00 f5 10 c0 	mov    -0x3fef0b00(,%eax,4),%eax
c010a502:	85 c0                	test   %eax,%eax
c010a504:	74 17                	je     c010a51d <universe_syscall_handler+0x3d>
c010a506:	8b 45 08             	mov    0x8(%ebp),%eax
c010a509:	8b 00                	mov    (%eax),%eax
c010a50b:	8b 40 28             	mov    0x28(%eax),%eax
c010a50e:	8b 14 85 00 f5 10 c0 	mov    -0x3fef0b00(,%eax,4),%edx
c010a515:	8b 45 08             	mov    0x8(%ebp),%eax
c010a518:	89 04 24             	mov    %eax,(%esp)
c010a51b:	ff d2                	call   *%edx
c010a51d:	c9                   	leave  
c010a51e:	c3                   	ret    
	...

c010a520 <list_create>:
c010a520:	55                   	push   %ebp
c010a521:	89 e5                	mov    %esp,%ebp
c010a523:	83 ec 28             	sub    $0x28,%esp
c010a526:	c7 04 24 0c 00 00 00 	movl   $0xc,(%esp)
c010a52d:	e8 32 b2 ff ff       	call   c0105764 <malloc>
c010a532:	89 45 f4             	mov    %eax,-0xc(%ebp)
c010a535:	c7 04 24 0c 00 00 00 	movl   $0xc,(%esp)
c010a53c:	e8 23 b2 ff ff       	call   c0105764 <malloc>
c010a541:	89 45 f0             	mov    %eax,-0x10(%ebp)
c010a544:	8b 45 f4             	mov    -0xc(%ebp),%eax
c010a547:	8b 55 f0             	mov    -0x10(%ebp),%edx
c010a54a:	89 10                	mov    %edx,(%eax)
c010a54c:	8b 45 f4             	mov    -0xc(%ebp),%eax
c010a54f:	8b 55 f0             	mov    -0x10(%ebp),%edx
c010a552:	89 50 04             	mov    %edx,0x4(%eax)
c010a555:	8b 45 f4             	mov    -0xc(%ebp),%eax
c010a558:	c7 40 08 00 00 00 00 	movl   $0x0,0x8(%eax)
c010a55f:	8b 45 f0             	mov    -0x10(%ebp),%eax
c010a562:	8b 55 f0             	mov    -0x10(%ebp),%edx
c010a565:	89 10                	mov    %edx,(%eax)
c010a567:	8b 45 f0             	mov    -0x10(%ebp),%eax
c010a56a:	8b 55 f0             	mov    -0x10(%ebp),%edx
c010a56d:	89 50 04             	mov    %edx,0x4(%eax)
c010a570:	8b 45 f0             	mov    -0x10(%ebp),%eax
c010a573:	c7 40 08 00 00 00 00 	movl   $0x0,0x8(%eax)
c010a57a:	8b 45 f4             	mov    -0xc(%ebp),%eax
c010a57d:	c9                   	leave  
c010a57e:	c3                   	ret    

c010a57f <list_destroy>:
c010a57f:	55                   	push   %ebp
c010a580:	89 e5                	mov    %esp,%ebp
c010a582:	83 ec 28             	sub    $0x28,%esp
c010a585:	8b 45 08             	mov    0x8(%ebp),%eax
c010a588:	8b 00                	mov    (%eax),%eax
c010a58a:	8b 00                	mov    (%eax),%eax
c010a58c:	8b 00                	mov    (%eax),%eax
c010a58e:	89 45 f4             	mov    %eax,-0xc(%ebp)
c010a591:	8b 45 08             	mov    0x8(%ebp),%eax
c010a594:	8b 00                	mov    (%eax),%eax
c010a596:	8b 00                	mov    (%eax),%eax
c010a598:	89 45 f0             	mov    %eax,-0x10(%ebp)
c010a59b:	eb 13                	jmp    c010a5b0 <list_destroy+0x31>
c010a59d:	8b 45 f4             	mov    -0xc(%ebp),%eax
c010a5a0:	8b 00                	mov    (%eax),%eax
c010a5a2:	89 45 f4             	mov    %eax,-0xc(%ebp)
c010a5a5:	8b 45 f4             	mov    -0xc(%ebp),%eax
c010a5a8:	89 04 24             	mov    %eax,(%esp)
c010a5ab:	e8 cf b1 ff ff       	call   c010577f <free>
c010a5b0:	8b 45 f4             	mov    -0xc(%ebp),%eax
c010a5b3:	3b 45 f0             	cmp    -0x10(%ebp),%eax
c010a5b6:	75 e5                	jne    c010a59d <list_destroy+0x1e>
c010a5b8:	8b 45 08             	mov    0x8(%ebp),%eax
c010a5bb:	8b 00                	mov    (%eax),%eax
c010a5bd:	89 04 24             	mov    %eax,(%esp)
c010a5c0:	e8 ba b1 ff ff       	call   c010577f <free>
c010a5c5:	8b 45 08             	mov    0x8(%ebp),%eax
c010a5c8:	c7 00 00 00 00 00    	movl   $0x0,(%eax)
c010a5ce:	c9                   	leave  
c010a5cf:	c3                   	ret    

c010a5d0 <list_splice>:
c010a5d0:	55                   	push   %ebp
c010a5d1:	89 e5                	mov    %esp,%ebp
c010a5d3:	8b 45 08             	mov    0x8(%ebp),%eax
c010a5d6:	8b 40 04             	mov    0x4(%eax),%eax
c010a5d9:	8b 55 0c             	mov    0xc(%ebp),%edx
c010a5dc:	8b 12                	mov    (%edx),%edx
c010a5de:	89 10                	mov    %edx,(%eax)
c010a5e0:	8b 45 0c             	mov    0xc(%ebp),%eax
c010a5e3:	8b 00                	mov    (%eax),%eax
c010a5e5:	8b 55 08             	mov    0x8(%ebp),%edx
c010a5e8:	8b 52 04             	mov    0x4(%edx),%edx
c010a5eb:	89 50 04             	mov    %edx,0x4(%eax)
c010a5ee:	8b 45 08             	mov    0x8(%ebp),%eax
c010a5f1:	8b 55 10             	mov    0x10(%ebp),%edx
c010a5f4:	89 50 04             	mov    %edx,0x4(%eax)
c010a5f7:	8b 45 10             	mov    0x10(%ebp),%eax
c010a5fa:	8b 10                	mov    (%eax),%edx
c010a5fc:	8b 45 0c             	mov    0xc(%ebp),%eax
c010a5ff:	89 10                	mov    %edx,(%eax)
c010a601:	8b 45 10             	mov    0x10(%ebp),%eax
c010a604:	8b 00                	mov    (%eax),%eax
c010a606:	8b 55 0c             	mov    0xc(%ebp),%edx
c010a609:	89 50 04             	mov    %edx,0x4(%eax)
c010a60c:	8b 45 10             	mov    0x10(%ebp),%eax
c010a60f:	8b 55 08             	mov    0x8(%ebp),%edx
c010a612:	89 10                	mov    %edx,(%eax)
c010a614:	5d                   	pop    %ebp
c010a615:	c3                   	ret    

c010a616 <list_push_back>:
c010a616:	55                   	push   %ebp
c010a617:	89 e5                	mov    %esp,%ebp
c010a619:	83 ec 28             	sub    $0x28,%esp
c010a61c:	c7 04 24 0c 00 00 00 	movl   $0xc,(%esp)
c010a623:	e8 3c b1 ff ff       	call   c0105764 <malloc>
c010a628:	89 45 f4             	mov    %eax,-0xc(%ebp)
c010a62b:	8b 45 f4             	mov    -0xc(%ebp),%eax
c010a62e:	8b 55 0c             	mov    0xc(%ebp),%edx
c010a631:	89 50 08             	mov    %edx,0x8(%eax)
c010a634:	8b 45 f4             	mov    -0xc(%ebp),%eax
c010a637:	8b 55 f4             	mov    -0xc(%ebp),%edx
c010a63a:	89 10                	mov    %edx,(%eax)
c010a63c:	8b 45 f4             	mov    -0xc(%ebp),%eax
c010a63f:	8b 55 f4             	mov    -0xc(%ebp),%edx
c010a642:	89 50 04             	mov    %edx,0x4(%eax)
c010a645:	8b 45 08             	mov    0x8(%ebp),%eax
c010a648:	8b 00                	mov    (%eax),%eax
c010a64a:	8b 40 04             	mov    0x4(%eax),%eax
c010a64d:	89 44 24 08          	mov    %eax,0x8(%esp)
c010a651:	8b 45 f4             	mov    -0xc(%ebp),%eax
c010a654:	89 44 24 04          	mov    %eax,0x4(%esp)
c010a658:	8b 45 f4             	mov    -0xc(%ebp),%eax
c010a65b:	89 04 24             	mov    %eax,(%esp)
c010a65e:	e8 6d ff ff ff       	call   c010a5d0 <list_splice>
c010a663:	8b 45 08             	mov    0x8(%ebp),%eax
c010a666:	c9                   	leave  
c010a667:	c3                   	ret    

c010a668 <list_push_front>:
c010a668:	55                   	push   %ebp
c010a669:	89 e5                	mov    %esp,%ebp
c010a66b:	83 ec 28             	sub    $0x28,%esp
c010a66e:	c7 04 24 0c 00 00 00 	movl   $0xc,(%esp)
c010a675:	e8 ea b0 ff ff       	call   c0105764 <malloc>
c010a67a:	89 45 f4             	mov    %eax,-0xc(%ebp)
c010a67d:	8b 45 f4             	mov    -0xc(%ebp),%eax
c010a680:	8b 55 0c             	mov    0xc(%ebp),%edx
c010a683:	89 50 08             	mov    %edx,0x8(%eax)
c010a686:	8b 45 f4             	mov    -0xc(%ebp),%eax
c010a689:	8b 55 f4             	mov    -0xc(%ebp),%edx
c010a68c:	89 10                	mov    %edx,(%eax)
c010a68e:	8b 45 f4             	mov    -0xc(%ebp),%eax
c010a691:	8b 55 f4             	mov    -0xc(%ebp),%edx
c010a694:	89 50 04             	mov    %edx,0x4(%eax)
c010a697:	8b 45 08             	mov    0x8(%ebp),%eax
c010a69a:	8b 00                	mov    (%eax),%eax
c010a69c:	89 44 24 08          	mov    %eax,0x8(%esp)
c010a6a0:	8b 45 f4             	mov    -0xc(%ebp),%eax
c010a6a3:	89 44 24 04          	mov    %eax,0x4(%esp)
c010a6a7:	8b 45 f4             	mov    -0xc(%ebp),%eax
c010a6aa:	89 04 24             	mov    %eax,(%esp)
c010a6ad:	e8 1e ff ff ff       	call   c010a5d0 <list_splice>
c010a6b2:	8b 45 08             	mov    0x8(%ebp),%eax
c010a6b5:	c9                   	leave  
c010a6b6:	c3                   	ret    

c010a6b7 <list_pop_back>:
c010a6b7:	55                   	push   %ebp
c010a6b8:	89 e5                	mov    %esp,%ebp
c010a6ba:	83 ec 28             	sub    $0x28,%esp
c010a6bd:	8b 45 08             	mov    0x8(%ebp),%eax
c010a6c0:	8b 00                	mov    (%eax),%eax
c010a6c2:	8b 40 04             	mov    0x4(%eax),%eax
c010a6c5:	89 45 f4             	mov    %eax,-0xc(%ebp)
c010a6c8:	8b 45 f4             	mov    -0xc(%ebp),%eax
c010a6cb:	89 04 24             	mov    %eax,(%esp)
c010a6ce:	e8 c2 00 00 00       	call   c010a795 <list_remove_node>
c010a6d3:	c9                   	leave  
c010a6d4:	c3                   	ret    

c010a6d5 <list_pop_front>:
c010a6d5:	55                   	push   %ebp
c010a6d6:	89 e5                	mov    %esp,%ebp
c010a6d8:	83 ec 28             	sub    $0x28,%esp
c010a6db:	8b 45 08             	mov    0x8(%ebp),%eax
c010a6de:	8b 00                	mov    (%eax),%eax
c010a6e0:	8b 00                	mov    (%eax),%eax
c010a6e2:	89 45 f4             	mov    %eax,-0xc(%ebp)
c010a6e5:	8b 45 f4             	mov    -0xc(%ebp),%eax
c010a6e8:	89 04 24             	mov    %eax,(%esp)
c010a6eb:	e8 a5 00 00 00       	call   c010a795 <list_remove_node>
c010a6f0:	c9                   	leave  
c010a6f1:	c3                   	ret    

c010a6f2 <list_insert_after>:
c010a6f2:	55                   	push   %ebp
c010a6f3:	89 e5                	mov    %esp,%ebp
c010a6f5:	83 ec 28             	sub    $0x28,%esp
c010a6f8:	c7 04 24 0c 00 00 00 	movl   $0xc,(%esp)
c010a6ff:	e8 60 b0 ff ff       	call   c0105764 <malloc>
c010a704:	89 45 f4             	mov    %eax,-0xc(%ebp)
c010a707:	8b 45 f4             	mov    -0xc(%ebp),%eax
c010a70a:	8b 55 0c             	mov    0xc(%ebp),%edx
c010a70d:	89 50 08             	mov    %edx,0x8(%eax)
c010a710:	8b 45 f4             	mov    -0xc(%ebp),%eax
c010a713:	8b 55 f4             	mov    -0xc(%ebp),%edx
c010a716:	89 10                	mov    %edx,(%eax)
c010a718:	8b 45 f4             	mov    -0xc(%ebp),%eax
c010a71b:	8b 55 f4             	mov    -0xc(%ebp),%edx
c010a71e:	89 50 04             	mov    %edx,0x4(%eax)
c010a721:	8b 45 08             	mov    0x8(%ebp),%eax
c010a724:	8b 40 04             	mov    0x4(%eax),%eax
c010a727:	89 44 24 08          	mov    %eax,0x8(%esp)
c010a72b:	8b 45 f4             	mov    -0xc(%ebp),%eax
c010a72e:	89 44 24 04          	mov    %eax,0x4(%esp)
c010a732:	8b 45 f4             	mov    -0xc(%ebp),%eax
c010a735:	89 04 24             	mov    %eax,(%esp)
c010a738:	e8 93 fe ff ff       	call   c010a5d0 <list_splice>
c010a73d:	8b 45 08             	mov    0x8(%ebp),%eax
c010a740:	c9                   	leave  
c010a741:	c3                   	ret    

c010a742 <list_insert_before>:
c010a742:	55                   	push   %ebp
c010a743:	89 e5                	mov    %esp,%ebp
c010a745:	83 ec 28             	sub    $0x28,%esp
c010a748:	c7 04 24 0c 00 00 00 	movl   $0xc,(%esp)
c010a74f:	e8 10 b0 ff ff       	call   c0105764 <malloc>
c010a754:	89 45 f4             	mov    %eax,-0xc(%ebp)
c010a757:	8b 45 f4             	mov    -0xc(%ebp),%eax
c010a75a:	8b 55 0c             	mov    0xc(%ebp),%edx
c010a75d:	89 50 08             	mov    %edx,0x8(%eax)
c010a760:	8b 45 f4             	mov    -0xc(%ebp),%eax
c010a763:	8b 55 f4             	mov    -0xc(%ebp),%edx
c010a766:	89 10                	mov    %edx,(%eax)
c010a768:	8b 45 f4             	mov    -0xc(%ebp),%eax
c010a76b:	8b 55 f4             	mov    -0xc(%ebp),%edx
c010a76e:	89 50 04             	mov    %edx,0x4(%eax)
c010a771:	8b 45 08             	mov    0x8(%ebp),%eax
c010a774:	8b 40 04             	mov    0x4(%eax),%eax
c010a777:	8b 40 04             	mov    0x4(%eax),%eax
c010a77a:	89 44 24 08          	mov    %eax,0x8(%esp)
c010a77e:	8b 45 f4             	mov    -0xc(%ebp),%eax
c010a781:	89 44 24 04          	mov    %eax,0x4(%esp)
c010a785:	8b 45 f4             	mov    -0xc(%ebp),%eax
c010a788:	89 04 24             	mov    %eax,(%esp)
c010a78b:	e8 40 fe ff ff       	call   c010a5d0 <list_splice>
c010a790:	8b 45 08             	mov    0x8(%ebp),%eax
c010a793:	c9                   	leave  
c010a794:	c3                   	ret    

c010a795 <list_remove_node>:
c010a795:	55                   	push   %ebp
c010a796:	89 e5                	mov    %esp,%ebp
c010a798:	83 ec 28             	sub    $0x28,%esp
c010a79b:	8b 45 08             	mov    0x8(%ebp),%eax
c010a79e:	8b 40 08             	mov    0x8(%eax),%eax
c010a7a1:	89 45 f4             	mov    %eax,-0xc(%ebp)
c010a7a4:	8b 45 08             	mov    0x8(%ebp),%eax
c010a7a7:	8b 40 04             	mov    0x4(%eax),%eax
c010a7aa:	8b 55 08             	mov    0x8(%ebp),%edx
c010a7ad:	8b 12                	mov    (%edx),%edx
c010a7af:	89 10                	mov    %edx,(%eax)
c010a7b1:	8b 45 08             	mov    0x8(%ebp),%eax
c010a7b4:	8b 00                	mov    (%eax),%eax
c010a7b6:	8b 55 08             	mov    0x8(%ebp),%edx
c010a7b9:	8b 52 04             	mov    0x4(%edx),%edx
c010a7bc:	89 50 04             	mov    %edx,0x4(%eax)
c010a7bf:	8b 45 08             	mov    0x8(%ebp),%eax
c010a7c2:	89 04 24             	mov    %eax,(%esp)
c010a7c5:	e8 b5 af ff ff       	call   c010577f <free>
c010a7ca:	8b 45 f4             	mov    -0xc(%ebp),%eax
c010a7cd:	c9                   	leave  
c010a7ce:	c3                   	ret    

c010a7cf <list_remove>:
c010a7cf:	55                   	push   %ebp
c010a7d0:	89 e5                	mov    %esp,%ebp
c010a7d2:	83 ec 28             	sub    $0x28,%esp
c010a7d5:	8b 45 08             	mov    0x8(%ebp),%eax
c010a7d8:	89 04 24             	mov    %eax,(%esp)
c010a7db:	e8 71 00 00 00       	call   c010a851 <list_get_current>
c010a7e0:	89 45 f4             	mov    %eax,-0xc(%ebp)
c010a7e3:	8b 45 08             	mov    0x8(%ebp),%eax
c010a7e6:	8b 40 04             	mov    0x4(%eax),%eax
c010a7e9:	89 45 f0             	mov    %eax,-0x10(%ebp)
c010a7ec:	8b 45 f0             	mov    -0x10(%ebp),%eax
c010a7ef:	8b 40 04             	mov    0x4(%eax),%eax
c010a7f2:	8b 55 f0             	mov    -0x10(%ebp),%edx
c010a7f5:	8b 12                	mov    (%edx),%edx
c010a7f7:	89 10                	mov    %edx,(%eax)
c010a7f9:	8b 45 f0             	mov    -0x10(%ebp),%eax
c010a7fc:	8b 00                	mov    (%eax),%eax
c010a7fe:	8b 55 f0             	mov    -0x10(%ebp),%edx
c010a801:	8b 52 04             	mov    0x4(%edx),%edx
c010a804:	89 50 04             	mov    %edx,0x4(%eax)
c010a807:	8b 45 f0             	mov    -0x10(%ebp),%eax
c010a80a:	89 04 24             	mov    %eax,(%esp)
c010a80d:	e8 6d af ff ff       	call   c010577f <free>
c010a812:	8b 45 f4             	mov    -0xc(%ebp),%eax
c010a815:	c9                   	leave  
c010a816:	c3                   	ret    

c010a817 <list_length>:
c010a817:	55                   	push   %ebp
c010a818:	89 e5                	mov    %esp,%ebp
c010a81a:	83 ec 10             	sub    $0x10,%esp
c010a81d:	8b 45 08             	mov    0x8(%ebp),%eax
c010a820:	8b 00                	mov    (%eax),%eax
c010a822:	8b 00                	mov    (%eax),%eax
c010a824:	89 45 fc             	mov    %eax,-0x4(%ebp)
c010a827:	8b 45 08             	mov    0x8(%ebp),%eax
c010a82a:	8b 00                	mov    (%eax),%eax
c010a82c:	89 45 f4             	mov    %eax,-0xc(%ebp)
c010a82f:	c7 45 f8 00 00 00 00 	movl   $0x0,-0x8(%ebp)
c010a836:	eb 0c                	jmp    c010a844 <list_length+0x2d>
c010a838:	8b 45 fc             	mov    -0x4(%ebp),%eax
c010a83b:	8b 00                	mov    (%eax),%eax
c010a83d:	89 45 fc             	mov    %eax,-0x4(%ebp)
c010a840:	83 45 f8 01          	addl   $0x1,-0x8(%ebp)
c010a844:	8b 45 fc             	mov    -0x4(%ebp),%eax
c010a847:	3b 45 f4             	cmp    -0xc(%ebp),%eax
c010a84a:	75 ec                	jne    c010a838 <list_length+0x21>
c010a84c:	8b 45 f8             	mov    -0x8(%ebp),%eax
c010a84f:	c9                   	leave  
c010a850:	c3                   	ret    

c010a851 <list_get_current>:
c010a851:	55                   	push   %ebp
c010a852:	89 e5                	mov    %esp,%ebp
c010a854:	8b 45 08             	mov    0x8(%ebp),%eax
c010a857:	8b 40 04             	mov    0x4(%eax),%eax
c010a85a:	8b 40 08             	mov    0x8(%eax),%eax
c010a85d:	5d                   	pop    %ebp
c010a85e:	c3                   	ret    

c010a85f <list_next>:
c010a85f:	55                   	push   %ebp
c010a860:	89 e5                	mov    %esp,%ebp
c010a862:	8b 45 08             	mov    0x8(%ebp),%eax
c010a865:	8b 40 04             	mov    0x4(%eax),%eax
c010a868:	8b 10                	mov    (%eax),%edx
c010a86a:	8b 45 08             	mov    0x8(%ebp),%eax
c010a86d:	89 50 04             	mov    %edx,0x4(%eax)
c010a870:	8b 45 08             	mov    0x8(%ebp),%eax
c010a873:	5d                   	pop    %ebp
c010a874:	c3                   	ret    

c010a875 <list_previous>:
c010a875:	55                   	push   %ebp
c010a876:	89 e5                	mov    %esp,%ebp
c010a878:	8b 45 08             	mov    0x8(%ebp),%eax
c010a87b:	8b 40 04             	mov    0x4(%eax),%eax
c010a87e:	8b 50 04             	mov    0x4(%eax),%edx
c010a881:	8b 45 08             	mov    0x8(%ebp),%eax
c010a884:	89 50 04             	mov    %edx,0x4(%eax)
c010a887:	8b 45 08             	mov    0x8(%ebp),%eax
c010a88a:	5d                   	pop    %ebp
c010a88b:	c3                   	ret    

c010a88c <list_is_last>:
c010a88c:	55                   	push   %ebp
c010a88d:	89 e5                	mov    %esp,%ebp
c010a88f:	8b 45 08             	mov    0x8(%ebp),%eax
c010a892:	8b 50 04             	mov    0x4(%eax),%edx
c010a895:	8b 45 08             	mov    0x8(%ebp),%eax
c010a898:	8b 00                	mov    (%eax),%eax
c010a89a:	39 c2                	cmp    %eax,%edx
c010a89c:	0f 94 c0             	sete   %al
c010a89f:	0f b6 c0             	movzbl %al,%eax
c010a8a2:	5d                   	pop    %ebp
c010a8a3:	c3                   	ret    

c010a8a4 <list_set_first>:
c010a8a4:	55                   	push   %ebp
c010a8a5:	89 e5                	mov    %esp,%ebp
c010a8a7:	8b 45 08             	mov    0x8(%ebp),%eax
c010a8aa:	8b 00                	mov    (%eax),%eax
c010a8ac:	8b 10                	mov    (%eax),%edx
c010a8ae:	8b 45 08             	mov    0x8(%ebp),%eax
c010a8b1:	89 50 04             	mov    %edx,0x4(%eax)
c010a8b4:	8b 45 08             	mov    0x8(%ebp),%eax
c010a8b7:	5d                   	pop    %ebp
c010a8b8:	c3                   	ret    

c010a8b9 <list_set_last>:
c010a8b9:	55                   	push   %ebp
c010a8ba:	89 e5                	mov    %esp,%ebp
c010a8bc:	8b 45 08             	mov    0x8(%ebp),%eax
c010a8bf:	8b 00                	mov    (%eax),%eax
c010a8c1:	8b 50 04             	mov    0x4(%eax),%edx
c010a8c4:	8b 45 08             	mov    0x8(%ebp),%eax
c010a8c7:	89 50 04             	mov    %edx,0x4(%eax)
c010a8ca:	8b 45 08             	mov    0x8(%ebp),%eax
c010a8cd:	5d                   	pop    %ebp
c010a8ce:	c3                   	ret    

c010a8cf <list_is_empty>:
c010a8cf:	55                   	push   %ebp
c010a8d0:	89 e5                	mov    %esp,%ebp
c010a8d2:	8b 45 08             	mov    0x8(%ebp),%eax
c010a8d5:	8b 10                	mov    (%eax),%edx
c010a8d7:	8b 45 08             	mov    0x8(%ebp),%eax
c010a8da:	8b 00                	mov    (%eax),%eax
c010a8dc:	8b 00                	mov    (%eax),%eax
c010a8de:	39 c2                	cmp    %eax,%edx
c010a8e0:	0f 94 c0             	sete   %al
c010a8e3:	0f b6 c0             	movzbl %al,%eax
c010a8e6:	5d                   	pop    %ebp
c010a8e7:	c3                   	ret    
	...

c010a8f0 <start>:
c010a8f0:	b9 00 00 11 00       	mov    $0x110000,%ecx
c010a8f5:	0f 22 d9             	mov    %ecx,%cr3
c010a8f8:	0f 20 e1             	mov    %cr4,%ecx
c010a8fb:	83 c9 10             	or     $0x10,%ecx
c010a8fe:	0f 22 e1             	mov    %ecx,%cr4
c010a901:	0f 20 c1             	mov    %cr0,%ecx
c010a904:	81 c9 00 00 00 80    	or     $0x80000000,%ecx
c010a90a:	0f 22 c1             	mov    %ecx,%cr0
c010a90d:	8d 0d 15 a9 10 c0    	lea    0xc010a915,%ecx
c010a913:	ff e1                	jmp    *%ecx

c010a915 <higherhalf>:
c010a915:	bc 00 30 11 c0       	mov    $0xc0113000,%esp
c010a91a:	81 c3 00 00 00 c0    	add    $0xc0000000,%ebx
c010a920:	6a 00                	push   $0x0
c010a922:	6a 00                	push   $0x0
c010a924:	50                   	push   %eax
c010a925:	53                   	push   %ebx
c010a926:	e8 10 77 ff ff       	call   c010203b <init>
c010a92b:	eb fe                	jmp    c010a92b <higherhalf+0x16>
c010a92d:	00 00                	add    %al,(%eax)
	...

c010a930 <isr_0>:
c010a930:	6a 00                	push   $0x0
c010a932:	6a 00                	push   $0x0
c010a934:	e9 81 01 00 00       	jmp    c010aaba <isr_save>

c010a939 <isr_1>:
c010a939:	6a 00                	push   $0x0
c010a93b:	6a 01                	push   $0x1
c010a93d:	e9 78 01 00 00       	jmp    c010aaba <isr_save>

c010a942 <isr_2>:
c010a942:	6a 00                	push   $0x0
c010a944:	6a 02                	push   $0x2
c010a946:	e9 6f 01 00 00       	jmp    c010aaba <isr_save>

c010a94b <isr_3>:
c010a94b:	6a 00                	push   $0x0
c010a94d:	6a 03                	push   $0x3
c010a94f:	e9 66 01 00 00       	jmp    c010aaba <isr_save>

c010a954 <isr_4>:
c010a954:	6a 00                	push   $0x0
c010a956:	6a 04                	push   $0x4
c010a958:	e9 5d 01 00 00       	jmp    c010aaba <isr_save>

c010a95d <isr_5>:
c010a95d:	6a 00                	push   $0x0
c010a95f:	6a 05                	push   $0x5
c010a961:	e9 54 01 00 00       	jmp    c010aaba <isr_save>

c010a966 <isr_6>:
c010a966:	6a 00                	push   $0x0
c010a968:	6a 06                	push   $0x6
c010a96a:	e9 4b 01 00 00       	jmp    c010aaba <isr_save>

c010a96f <isr_7>:
c010a96f:	6a 00                	push   $0x0
c010a971:	6a 07                	push   $0x7
c010a973:	e9 42 01 00 00       	jmp    c010aaba <isr_save>

c010a978 <isr_8>:
c010a978:	6a 08                	push   $0x8
c010a97a:	e9 3b 01 00 00       	jmp    c010aaba <isr_save>

c010a97f <isr_9>:
c010a97f:	6a 00                	push   $0x0
c010a981:	6a 09                	push   $0x9
c010a983:	e9 32 01 00 00       	jmp    c010aaba <isr_save>

c010a988 <isr_10>:
c010a988:	6a 0a                	push   $0xa
c010a98a:	e9 2b 01 00 00       	jmp    c010aaba <isr_save>

c010a98f <isr_11>:
c010a98f:	6a 0b                	push   $0xb
c010a991:	e9 24 01 00 00       	jmp    c010aaba <isr_save>

c010a996 <isr_12>:
c010a996:	6a 0c                	push   $0xc
c010a998:	e9 1d 01 00 00       	jmp    c010aaba <isr_save>

c010a99d <isr_13>:
c010a99d:	6a 0d                	push   $0xd
c010a99f:	e9 16 01 00 00       	jmp    c010aaba <isr_save>

c010a9a4 <isr_14>:
c010a9a4:	6a 0e                	push   $0xe
c010a9a6:	e9 0f 01 00 00       	jmp    c010aaba <isr_save>

c010a9ab <isr_15>:
c010a9ab:	6a 00                	push   $0x0
c010a9ad:	6a 0f                	push   $0xf
c010a9af:	e9 06 01 00 00       	jmp    c010aaba <isr_save>

c010a9b4 <isr_16>:
c010a9b4:	6a 00                	push   $0x0
c010a9b6:	6a 10                	push   $0x10
c010a9b8:	e9 fd 00 00 00       	jmp    c010aaba <isr_save>

c010a9bd <isr_17>:
c010a9bd:	6a 11                	push   $0x11
c010a9bf:	e9 f6 00 00 00       	jmp    c010aaba <isr_save>

c010a9c4 <isr_18>:
c010a9c4:	6a 00                	push   $0x0
c010a9c6:	6a 12                	push   $0x12
c010a9c8:	e9 ed 00 00 00       	jmp    c010aaba <isr_save>

c010a9cd <isr_19>:
c010a9cd:	6a 00                	push   $0x0
c010a9cf:	6a 13                	push   $0x13
c010a9d1:	e9 e4 00 00 00       	jmp    c010aaba <isr_save>

c010a9d6 <isr_20>:
c010a9d6:	6a 00                	push   $0x0
c010a9d8:	6a 14                	push   $0x14
c010a9da:	e9 db 00 00 00       	jmp    c010aaba <isr_save>

c010a9df <isr_21>:
c010a9df:	6a 00                	push   $0x0
c010a9e1:	6a 15                	push   $0x15
c010a9e3:	e9 d2 00 00 00       	jmp    c010aaba <isr_save>

c010a9e8 <isr_22>:
c010a9e8:	6a 00                	push   $0x0
c010a9ea:	6a 16                	push   $0x16
c010a9ec:	e9 c9 00 00 00       	jmp    c010aaba <isr_save>

c010a9f1 <isr_23>:
c010a9f1:	6a 00                	push   $0x0
c010a9f3:	6a 17                	push   $0x17
c010a9f5:	e9 c0 00 00 00       	jmp    c010aaba <isr_save>

c010a9fa <isr_24>:
c010a9fa:	6a 00                	push   $0x0
c010a9fc:	6a 18                	push   $0x18
c010a9fe:	e9 b7 00 00 00       	jmp    c010aaba <isr_save>

c010aa03 <isr_25>:
c010aa03:	6a 00                	push   $0x0
c010aa05:	6a 19                	push   $0x19
c010aa07:	e9 ae 00 00 00       	jmp    c010aaba <isr_save>

c010aa0c <isr_26>:
c010aa0c:	6a 00                	push   $0x0
c010aa0e:	6a 1a                	push   $0x1a
c010aa10:	e9 a5 00 00 00       	jmp    c010aaba <isr_save>

c010aa15 <isr_27>:
c010aa15:	6a 00                	push   $0x0
c010aa17:	6a 1b                	push   $0x1b
c010aa19:	e9 9c 00 00 00       	jmp    c010aaba <isr_save>

c010aa1e <isr_28>:
c010aa1e:	6a 00                	push   $0x0
c010aa20:	6a 1c                	push   $0x1c
c010aa22:	e9 93 00 00 00       	jmp    c010aaba <isr_save>

c010aa27 <isr_29>:
c010aa27:	6a 00                	push   $0x0
c010aa29:	6a 1d                	push   $0x1d
c010aa2b:	e9 8a 00 00 00       	jmp    c010aaba <isr_save>

c010aa30 <isr_30>:
c010aa30:	6a 00                	push   $0x0
c010aa32:	6a 1e                	push   $0x1e
c010aa34:	e9 81 00 00 00       	jmp    c010aaba <isr_save>

c010aa39 <isr_31>:
c010aa39:	6a 00                	push   $0x0
c010aa3b:	6a 1f                	push   $0x1f
c010aa3d:	eb 7b                	jmp    c010aaba <isr_save>

c010aa3f <isr_default>:
c010aa3f:	6a ff                	push   $0xffffffff
c010aa41:	6a ff                	push   $0xffffffff
c010aa43:	eb 75                	jmp    c010aaba <isr_save>

c010aa45 <isr_32>:
c010aa45:	6a 00                	push   $0x0
c010aa47:	6a 20                	push   $0x20
c010aa49:	eb 6f                	jmp    c010aaba <isr_save>

c010aa4b <isr_33>:
c010aa4b:	6a 00                	push   $0x0
c010aa4d:	6a 21                	push   $0x21
c010aa4f:	eb 69                	jmp    c010aaba <isr_save>

c010aa51 <isr_34>:
c010aa51:	6a 00                	push   $0x0
c010aa53:	6a 22                	push   $0x22
c010aa55:	eb 63                	jmp    c010aaba <isr_save>

c010aa57 <isr_35>:
c010aa57:	6a 00                	push   $0x0
c010aa59:	6a 23                	push   $0x23
c010aa5b:	eb 5d                	jmp    c010aaba <isr_save>

c010aa5d <isr_36>:
c010aa5d:	6a 00                	push   $0x0
c010aa5f:	6a 24                	push   $0x24
c010aa61:	eb 57                	jmp    c010aaba <isr_save>

c010aa63 <isr_37>:
c010aa63:	6a 00                	push   $0x0
c010aa65:	6a 25                	push   $0x25
c010aa67:	eb 51                	jmp    c010aaba <isr_save>

c010aa69 <isr_38>:
c010aa69:	6a 00                	push   $0x0
c010aa6b:	6a 26                	push   $0x26
c010aa6d:	eb 4b                	jmp    c010aaba <isr_save>

c010aa6f <isr_39>:
c010aa6f:	6a 00                	push   $0x0
c010aa71:	6a 27                	push   $0x27
c010aa73:	eb 45                	jmp    c010aaba <isr_save>

c010aa75 <isr_40>:
c010aa75:	6a 00                	push   $0x0
c010aa77:	6a 28                	push   $0x28
c010aa79:	eb 3f                	jmp    c010aaba <isr_save>

c010aa7b <isr_41>:
c010aa7b:	6a 00                	push   $0x0
c010aa7d:	6a 29                	push   $0x29
c010aa7f:	eb 39                	jmp    c010aaba <isr_save>

c010aa81 <isr_42>:
c010aa81:	6a 00                	push   $0x0
c010aa83:	6a 2a                	push   $0x2a
c010aa85:	eb 33                	jmp    c010aaba <isr_save>

c010aa87 <isr_43>:
c010aa87:	6a 00                	push   $0x0
c010aa89:	6a 2b                	push   $0x2b
c010aa8b:	eb 2d                	jmp    c010aaba <isr_save>

c010aa8d <isr_44>:
c010aa8d:	6a 00                	push   $0x0
c010aa8f:	6a 2c                	push   $0x2c
c010aa91:	eb 27                	jmp    c010aaba <isr_save>

c010aa93 <isr_45>:
c010aa93:	6a 00                	push   $0x0
c010aa95:	6a 2d                	push   $0x2d
c010aa97:	eb 21                	jmp    c010aaba <isr_save>

c010aa99 <isr_46>:
c010aa99:	6a 00                	push   $0x0
c010aa9b:	6a 2e                	push   $0x2e
c010aa9d:	eb 1b                	jmp    c010aaba <isr_save>

c010aa9f <isr_47>:
c010aa9f:	6a 00                	push   $0x0
c010aaa1:	6a 2f                	push   $0x2f
c010aaa3:	eb 15                	jmp    c010aaba <isr_save>

c010aaa5 <isr_112>:
c010aaa5:	6a 00                	push   $0x0
c010aaa7:	6a 70                	push   $0x70
c010aaa9:	eb 0f                	jmp    c010aaba <isr_save>

c010aaab <isr_128>:
c010aaab:	6a 00                	push   $0x0
c010aaad:	68 80 00 00 00       	push   $0x80
c010aab2:	eb 06                	jmp    c010aaba <isr_save>

c010aab4 <isr_pci>:
c010aab4:	6a 00                	push   $0x0
c010aab6:	6a 32                	push   $0x32
c010aab8:	eb 00                	jmp    c010aaba <isr_save>

c010aaba <isr_save>:
c010aaba:	50                   	push   %eax
c010aabb:	51                   	push   %ecx
c010aabc:	52                   	push   %edx
c010aabd:	53                   	push   %ebx
c010aabe:	55                   	push   %ebp
c010aabf:	56                   	push   %esi
c010aac0:	57                   	push   %edi
c010aac1:	1e                   	push   %ds
c010aac2:	06                   	push   %es
c010aac3:	0f a0                	push   %fs
c010aac5:	0f a8                	push   %gs
c010aac7:	66 ba 10 00          	mov    $0x10,%dx
c010aacb:	8e da                	mov    %edx,%ds
c010aacd:	8e c2                	mov    %edx,%es
c010aacf:	8e e2                	mov    %edx,%fs
c010aad1:	8e ea                	mov    %edx,%gs
c010aad3:	54                   	push   %esp
c010aad4:	e8 1b de ff ff       	call   c01088f4 <irq_handler>
c010aad9:	89 c4                	mov    %eax,%esp
c010aadb:	0f a9                	pop    %gs
c010aadd:	0f a1                	pop    %fs
c010aadf:	07                   	pop    %es
c010aae0:	1f                   	pop    %ds
c010aae1:	5f                   	pop    %edi
c010aae2:	5e                   	pop    %esi
c010aae3:	5d                   	pop    %ebp
c010aae4:	5b                   	pop    %ebx
c010aae5:	5a                   	pop    %edx
c010aae6:	59                   	pop    %ecx
c010aae7:	58                   	pop    %eax
c010aae8:	83 c4 08             	add    $0x8,%esp
c010aaeb:	cf                   	iret   
