
kernel/src/kernel32.elf:     file format elf32-i386


Disassembly of section .text:

c0102000 <identify_os>:
c0102000:	55                   	push   %ebp
c0102001:	89 e5                	mov    %esp,%ebp
c0102003:	8b 45 08             	mov    0x8(%ebp),%eax
c0102006:	8b 00                	mov    (%eax),%eax
c0102008:	c7 40 28 75 6e 69 01 	movl   $0x1696e75,0x28(%eax)
c010200f:	5d                   	pop    %ebp
c0102010:	c3                   	ret    

c0102011 <linux_syscall_handler>:
c0102011:	55                   	push   %ebp
c0102012:	89 e5                	mov    %esp,%ebp
c0102014:	83 ec 18             	sub    $0x18,%esp
c0102017:	8b 45 08             	mov    0x8(%ebp),%eax
c010201a:	8b 00                	mov    (%eax),%eax
c010201c:	8b 40 28             	mov    0x28(%eax),%eax
c010201f:	83 f8 10             	cmp    $0x10,%eax
c0102022:	77 2a                	ja     c010204e <linux_syscall_handler+0x3d>
c0102024:	8b 45 08             	mov    0x8(%ebp),%eax
c0102027:	8b 00                	mov    (%eax),%eax
c0102029:	8b 40 28             	mov    0x28(%eax),%eax
c010202c:	8b 04 85 00 20 11 c0 	mov    -0x3feee000(,%eax,4),%eax
c0102033:	85 c0                	test   %eax,%eax
c0102035:	74 17                	je     c010204e <linux_syscall_handler+0x3d>
c0102037:	8b 45 08             	mov    0x8(%ebp),%eax
c010203a:	8b 00                	mov    (%eax),%eax
c010203c:	8b 40 28             	mov    0x28(%eax),%eax
c010203f:	8b 04 85 00 20 11 c0 	mov    -0x3feee000(,%eax,4),%eax
c0102046:	8b 55 08             	mov    0x8(%ebp),%edx
c0102049:	89 14 24             	mov    %edx,(%esp)
c010204c:	ff d0                	call   *%eax
c010204e:	c9                   	leave  
c010204f:	c3                   	ret    

c0102050 <universe_syscall_handler>:
c0102050:	55                   	push   %ebp
c0102051:	89 e5                	mov    %esp,%ebp
c0102053:	83 ec 18             	sub    $0x18,%esp
c0102056:	8b 45 08             	mov    0x8(%ebp),%eax
c0102059:	8b 00                	mov    (%eax),%eax
c010205b:	8b 40 28             	mov    0x28(%eax),%eax
c010205e:	83 f8 04             	cmp    $0x4,%eax
c0102061:	77 2a                	ja     c010208d <universe_syscall_handler+0x3d>
c0102063:	8b 45 08             	mov    0x8(%ebp),%eax
c0102066:	8b 00                	mov    (%eax),%eax
c0102068:	8b 40 28             	mov    0x28(%eax),%eax
c010206b:	8b 04 85 40 20 11 c0 	mov    -0x3feedfc0(,%eax,4),%eax
c0102072:	85 c0                	test   %eax,%eax
c0102074:	74 17                	je     c010208d <universe_syscall_handler+0x3d>
c0102076:	8b 45 08             	mov    0x8(%ebp),%eax
c0102079:	8b 00                	mov    (%eax),%eax
c010207b:	8b 40 28             	mov    0x28(%eax),%eax
c010207e:	8b 04 85 40 20 11 c0 	mov    -0x3feedfc0(,%eax,4),%eax
c0102085:	8b 55 08             	mov    0x8(%ebp),%edx
c0102088:	89 14 24             	mov    %edx,(%esp)
c010208b:	ff d0                	call   *%eax
c010208d:	c9                   	leave  
c010208e:	c3                   	ret    

c010208f <INIT_HEAP>:
c010208f:	55                   	push   %ebp
c0102090:	89 e5                	mov    %esp,%ebp
c0102092:	83 ec 18             	sub    $0x18,%esp
c0102095:	c7 04 24 00 60 11 c0 	movl   $0xc0116000,(%esp)
c010209c:	e8 c3 00 00 00       	call   c0102164 <heap_init>
c01020a1:	c9                   	leave  
c01020a2:	c3                   	ret    

c01020a3 <malloc>:
c01020a3:	55                   	push   %ebp
c01020a4:	89 e5                	mov    %esp,%ebp
c01020a6:	83 ec 18             	sub    $0x18,%esp
c01020a9:	8b 45 08             	mov    0x8(%ebp),%eax
c01020ac:	89 44 24 04          	mov    %eax,0x4(%esp)
c01020b0:	c7 04 24 00 60 11 c0 	movl   $0xc0116000,(%esp)
c01020b7:	e8 45 02 00 00       	call   c0102301 <heap_alloc>
c01020bc:	c9                   	leave  
c01020bd:	c3                   	ret    

c01020be <free>:
c01020be:	55                   	push   %ebp
c01020bf:	89 e5                	mov    %esp,%ebp
c01020c1:	83 ec 18             	sub    $0x18,%esp
c01020c4:	8b 45 08             	mov    0x8(%ebp),%eax
c01020c7:	89 44 24 04          	mov    %eax,0x4(%esp)
c01020cb:	c7 04 24 00 60 11 c0 	movl   $0xc0116000,(%esp)
c01020d2:	e8 66 03 00 00       	call   c010243d <heap_free>
c01020d7:	c9                   	leave  
c01020d8:	c3                   	ret    

c01020d9 <calloc>:
c01020d9:	55                   	push   %ebp
c01020da:	89 e5                	mov    %esp,%ebp
c01020dc:	83 ec 28             	sub    $0x28,%esp
c01020df:	8b 45 0c             	mov    0xc(%ebp),%eax
c01020e2:	89 44 24 04          	mov    %eax,0x4(%esp)
c01020e6:	c7 04 24 00 60 11 c0 	movl   $0xc0116000,(%esp)
c01020ed:	e8 0f 02 00 00       	call   c0102301 <heap_alloc>
c01020f2:	89 45 f4             	mov    %eax,-0xc(%ebp)
c01020f5:	8b 45 0c             	mov    0xc(%ebp),%eax
c01020f8:	89 44 24 08          	mov    %eax,0x8(%esp)
c01020fc:	c7 44 24 04 00 00 00 	movl   $0x0,0x4(%esp)
c0102103:	00 
c0102104:	8b 45 f4             	mov    -0xc(%ebp),%eax
c0102107:	89 04 24             	mov    %eax,(%esp)
c010210a:	e8 d5 a7 00 00       	call   c010c8e4 <memset>
c010210f:	8b 45 f4             	mov    -0xc(%ebp),%eax
c0102112:	c9                   	leave  
c0102113:	c3                   	ret    

c0102114 <realloc>:
c0102114:	55                   	push   %ebp
c0102115:	89 e5                	mov    %esp,%ebp
c0102117:	83 ec 28             	sub    $0x28,%esp
c010211a:	8b 45 0c             	mov    0xc(%ebp),%eax
c010211d:	89 44 24 04          	mov    %eax,0x4(%esp)
c0102121:	c7 04 24 00 60 11 c0 	movl   $0xc0116000,(%esp)
c0102128:	e8 d4 01 00 00       	call   c0102301 <heap_alloc>
c010212d:	89 45 f4             	mov    %eax,-0xc(%ebp)
c0102130:	8b 45 08             	mov    0x8(%ebp),%eax
c0102133:	83 e8 10             	sub    $0x10,%eax
c0102136:	89 45 f0             	mov    %eax,-0x10(%ebp)
c0102139:	8b 45 f0             	mov    -0x10(%ebp),%eax
c010213c:	8b 00                	mov    (%eax),%eax
c010213e:	89 44 24 08          	mov    %eax,0x8(%esp)
c0102142:	8b 45 08             	mov    0x8(%ebp),%eax
c0102145:	89 44 24 04          	mov    %eax,0x4(%esp)
c0102149:	8b 45 f4             	mov    -0xc(%ebp),%eax
c010214c:	89 04 24             	mov    %eax,(%esp)
c010214f:	e8 0c a6 00 00       	call   c010c760 <memmove>
c0102154:	8b 45 08             	mov    0x8(%ebp),%eax
c0102157:	89 04 24             	mov    %eax,(%esp)
c010215a:	e8 5f ff ff ff       	call   c01020be <free>
c010215f:	8b 45 f4             	mov    -0xc(%ebp),%eax
c0102162:	c9                   	leave  
c0102163:	c3                   	ret    

c0102164 <heap_init>:
c0102164:	55                   	push   %ebp
c0102165:	89 e5                	mov    %esp,%ebp
c0102167:	83 ec 28             	sub    $0x28,%esp
c010216a:	e8 7d 90 00 00       	call   c010b1ec <pmm_alloc_page>
c010216f:	8b 15 60 49 11 c0    	mov    0xc0114960,%edx
c0102175:	c7 44 24 08 02 00 00 	movl   $0x2,0x8(%esp)
c010217c:	00 
c010217d:	89 44 24 04          	mov    %eax,0x4(%esp)
c0102181:	89 14 24             	mov    %edx,(%esp)
c0102184:	e8 21 ae 00 00       	call   c010cfaa <vmm_automap_kernel>
c0102189:	89 45 f4             	mov    %eax,-0xc(%ebp)
c010218c:	8b 45 f4             	mov    -0xc(%ebp),%eax
c010218f:	89 45 f0             	mov    %eax,-0x10(%ebp)
c0102192:	8b 45 f0             	mov    -0x10(%ebp),%eax
c0102195:	c7 00 f0 0f 00 00    	movl   $0xff0,(%eax)
c010219b:	8b 45 f4             	mov    -0xc(%ebp),%eax
c010219e:	8d 50 10             	lea    0x10(%eax),%edx
c01021a1:	8b 45 f0             	mov    -0x10(%ebp),%eax
c01021a4:	89 50 04             	mov    %edx,0x4(%eax)
c01021a7:	8b 45 f0             	mov    -0x10(%ebp),%eax
c01021aa:	c7 40 08 01 00 00 00 	movl   $0x1,0x8(%eax)
c01021b1:	8b 45 f0             	mov    -0x10(%ebp),%eax
c01021b4:	c7 40 0c 00 00 00 00 	movl   $0x0,0xc(%eax)
c01021bb:	8b 45 08             	mov    0x8(%ebp),%eax
c01021be:	c7 00 01 00 00 00    	movl   $0x1,(%eax)
c01021c4:	8b 45 08             	mov    0x8(%ebp),%eax
c01021c7:	8b 55 f0             	mov    -0x10(%ebp),%edx
c01021ca:	89 50 04             	mov    %edx,0x4(%eax)
c01021cd:	c9                   	leave  
c01021ce:	c3                   	ret    

c01021cf <heap_expand>:
c01021cf:	55                   	push   %ebp
c01021d0:	89 e5                	mov    %esp,%ebp
c01021d2:	83 ec 48             	sub    $0x48,%esp
c01021d5:	8b 45 08             	mov    0x8(%ebp),%eax
c01021d8:	8b 00                	mov    (%eax),%eax
c01021da:	8d 50 01             	lea    0x1(%eax),%edx
c01021dd:	8b 45 08             	mov    0x8(%ebp),%eax
c01021e0:	89 10                	mov    %edx,(%eax)
c01021e2:	c7 45 ec 00 00 00 00 	movl   $0x0,-0x14(%ebp)
c01021e9:	a1 60 49 11 c0       	mov    0xc0114960,%eax
c01021ee:	c7 44 24 10 02 00 00 	movl   $0x2,0x10(%esp)
c01021f5:	00 
c01021f6:	c7 44 24 0c ff ff ff 	movl   $0xffffffff,0xc(%esp)
c01021fd:	ff 
c01021fe:	c7 44 24 08 00 00 00 	movl   $0xe0000000,0x8(%esp)
c0102205:	e0 
c0102206:	8b 55 0c             	mov    0xc(%ebp),%edx
c0102209:	89 54 24 04          	mov    %edx,0x4(%esp)
c010220d:	89 04 24             	mov    %eax,(%esp)
c0102210:	e8 e6 89 00 00       	call   c010abfb <arch_vaddr_find>
c0102215:	89 45 e8             	mov    %eax,-0x18(%ebp)
c0102218:	8b 45 e8             	mov    -0x18(%ebp),%eax
c010221b:	89 45 f4             	mov    %eax,-0xc(%ebp)
c010221e:	c7 45 f0 00 00 00 00 	movl   $0x0,-0x10(%ebp)
c0102225:	eb 36                	jmp    c010225d <heap_expand+0x8e>
c0102227:	e8 c0 8f 00 00       	call   c010b1ec <pmm_alloc_page>
c010222c:	89 45 ec             	mov    %eax,-0x14(%ebp)
c010222f:	a1 60 49 11 c0       	mov    0xc0114960,%eax
c0102234:	c7 44 24 0c 02 00 00 	movl   $0x2,0xc(%esp)
c010223b:	00 
c010223c:	8b 55 f4             	mov    -0xc(%ebp),%edx
c010223f:	89 54 24 08          	mov    %edx,0x8(%esp)
c0102243:	8b 55 ec             	mov    -0x14(%ebp),%edx
c0102246:	89 54 24 04          	mov    %edx,0x4(%esp)
c010224a:	89 04 24             	mov    %eax,(%esp)
c010224d:	e8 6f ac 00 00       	call   c010cec1 <vmm_map>
c0102252:	81 45 f4 00 10 00 00 	addl   $0x1000,-0xc(%ebp)
c0102259:	83 45 f0 01          	addl   $0x1,-0x10(%ebp)
c010225d:	8b 45 f0             	mov    -0x10(%ebp),%eax
c0102260:	3b 45 0c             	cmp    0xc(%ebp),%eax
c0102263:	7c c2                	jl     c0102227 <heap_expand+0x58>
c0102265:	8b 45 e8             	mov    -0x18(%ebp),%eax
c0102268:	89 45 e4             	mov    %eax,-0x1c(%ebp)
c010226b:	8b 45 0c             	mov    0xc(%ebp),%eax
c010226e:	c1 e0 0c             	shl    $0xc,%eax
c0102271:	8d 50 f0             	lea    -0x10(%eax),%edx
c0102274:	8b 45 e4             	mov    -0x1c(%ebp),%eax
c0102277:	89 10                	mov    %edx,(%eax)
c0102279:	8b 45 e8             	mov    -0x18(%ebp),%eax
c010227c:	8d 50 10             	lea    0x10(%eax),%edx
c010227f:	8b 45 e4             	mov    -0x1c(%ebp),%eax
c0102282:	89 50 04             	mov    %edx,0x4(%eax)
c0102285:	8b 45 e4             	mov    -0x1c(%ebp),%eax
c0102288:	c7 40 08 01 00 00 00 	movl   $0x1,0x8(%eax)
c010228f:	8b 45 08             	mov    0x8(%ebp),%eax
c0102292:	8b 50 04             	mov    0x4(%eax),%edx
c0102295:	8b 45 e4             	mov    -0x1c(%ebp),%eax
c0102298:	89 50 0c             	mov    %edx,0xc(%eax)
c010229b:	8b 45 08             	mov    0x8(%ebp),%eax
c010229e:	8b 55 e4             	mov    -0x1c(%ebp),%edx
c01022a1:	89 50 04             	mov    %edx,0x4(%eax)
c01022a4:	8b 45 08             	mov    0x8(%ebp),%eax
c01022a7:	8b 00                	mov    (%eax),%eax
c01022a9:	8d 50 01             	lea    0x1(%eax),%edx
c01022ac:	8b 45 08             	mov    0x8(%ebp),%eax
c01022af:	89 10                	mov    %edx,(%eax)
c01022b1:	8b 45 e4             	mov    -0x1c(%ebp),%eax
c01022b4:	c9                   	leave  
c01022b5:	c3                   	ret    

c01022b6 <heap_destroy>:
c01022b6:	55                   	push   %ebp
c01022b7:	89 e5                	mov    %esp,%ebp
c01022b9:	83 ec 18             	sub    $0x18,%esp
c01022bc:	eb 38                	jmp    c01022f6 <heap_destroy+0x40>
c01022be:	8b 45 08             	mov    0x8(%ebp),%eax
c01022c1:	8b 50 04             	mov    0x4(%eax),%edx
c01022c4:	8b 45 08             	mov    0x8(%ebp),%eax
c01022c7:	8b 00                	mov    (%eax),%eax
c01022c9:	8d 48 ff             	lea    -0x1(%eax),%ecx
c01022cc:	8b 45 08             	mov    0x8(%ebp),%eax
c01022cf:	89 08                	mov    %ecx,(%eax)
c01022d1:	8b 45 08             	mov    0x8(%ebp),%eax
c01022d4:	8b 00                	mov    (%eax),%eax
c01022d6:	c1 e0 04             	shl    $0x4,%eax
c01022d9:	01 d0                	add    %edx,%eax
c01022db:	8b 40 04             	mov    0x4(%eax),%eax
c01022de:	25 00 f0 ff ff       	and    $0xfffff000,%eax
c01022e3:	89 c2                	mov    %eax,%edx
c01022e5:	a1 60 49 11 c0       	mov    0xc0114960,%eax
c01022ea:	89 54 24 04          	mov    %edx,0x4(%esp)
c01022ee:	89 04 24             	mov    %eax,(%esp)
c01022f1:	e8 fa ab 00 00       	call   c010cef0 <vmm_unmap>
c01022f6:	8b 45 08             	mov    0x8(%ebp),%eax
c01022f9:	8b 00                	mov    (%eax),%eax
c01022fb:	85 c0                	test   %eax,%eax
c01022fd:	75 bf                	jne    c01022be <heap_destroy+0x8>
c01022ff:	c9                   	leave  
c0102300:	c3                   	ret    

c0102301 <heap_alloc>:
c0102301:	55                   	push   %ebp
c0102302:	89 e5                	mov    %esp,%ebp
c0102304:	83 ec 28             	sub    $0x28,%esp
c0102307:	8b 45 08             	mov    0x8(%ebp),%eax
c010230a:	8b 40 04             	mov    0x4(%eax),%eax
c010230d:	89 45 f4             	mov    %eax,-0xc(%ebp)
c0102310:	c7 45 f0 00 00 00 00 	movl   $0x0,-0x10(%ebp)
c0102317:	8b 45 0c             	mov    0xc(%ebp),%eax
c010231a:	83 c0 10             	add    $0x10,%eax
c010231d:	89 45 ec             	mov    %eax,-0x14(%ebp)
c0102320:	81 7d 0c 00 10 00 00 	cmpl   $0x1000,0xc(%ebp)
c0102327:	77 33                	ja     c010235c <heap_alloc+0x5b>
c0102329:	81 7d 0c f0 0f 00 00 	cmpl   $0xff0,0xc(%ebp)
c0102330:	76 2a                	jbe    c010235c <heap_alloc+0x5b>
c0102332:	e8 b5 8e 00 00       	call   c010b1ec <pmm_alloc_page>
c0102337:	8b 15 60 49 11 c0    	mov    0xc0114960,%edx
c010233d:	c7 44 24 08 02 00 00 	movl   $0x2,0x8(%esp)
c0102344:	00 
c0102345:	89 44 24 04          	mov    %eax,0x4(%esp)
c0102349:	89 14 24             	mov    %edx,(%esp)
c010234c:	e8 59 ac 00 00       	call   c010cfaa <vmm_automap_kernel>
c0102351:	89 45 f0             	mov    %eax,-0x10(%ebp)
c0102354:	8b 45 f0             	mov    -0x10(%ebp),%eax
c0102357:	e9 df 00 00 00       	jmp    c010243b <heap_alloc+0x13a>
c010235c:	e9 91 00 00 00       	jmp    c01023f2 <heap_alloc+0xf1>
c0102361:	8b 45 f4             	mov    -0xc(%ebp),%eax
c0102364:	8b 00                	mov    (%eax),%eax
c0102366:	3b 45 0c             	cmp    0xc(%ebp),%eax
c0102369:	72 7e                	jb     c01023e9 <heap_alloc+0xe8>
c010236b:	8b 45 f4             	mov    -0xc(%ebp),%eax
c010236e:	8b 40 08             	mov    0x8(%eax),%eax
c0102371:	83 f8 01             	cmp    $0x1,%eax
c0102374:	75 73                	jne    c01023e9 <heap_alloc+0xe8>
c0102376:	8b 45 f4             	mov    -0xc(%ebp),%eax
c0102379:	c7 40 08 00 00 00 00 	movl   $0x0,0x8(%eax)
c0102380:	8b 45 f4             	mov    -0xc(%ebp),%eax
c0102383:	8b 10                	mov    (%eax),%edx
c0102385:	8b 45 ec             	mov    -0x14(%ebp),%eax
c0102388:	39 c2                	cmp    %eax,%edx
c010238a:	76 55                	jbe    c01023e1 <heap_alloc+0xe0>
c010238c:	8b 45 f4             	mov    -0xc(%ebp),%eax
c010238f:	8b 50 04             	mov    0x4(%eax),%edx
c0102392:	8b 45 0c             	mov    0xc(%ebp),%eax
c0102395:	01 d0                	add    %edx,%eax
c0102397:	89 45 e8             	mov    %eax,-0x18(%ebp)
c010239a:	8b 45 f4             	mov    -0xc(%ebp),%eax
c010239d:	8b 50 04             	mov    0x4(%eax),%edx
c01023a0:	8b 45 ec             	mov    -0x14(%ebp),%eax
c01023a3:	01 c2                	add    %eax,%edx
c01023a5:	8b 45 e8             	mov    -0x18(%ebp),%eax
c01023a8:	89 50 04             	mov    %edx,0x4(%eax)
c01023ab:	8b 45 f4             	mov    -0xc(%ebp),%eax
c01023ae:	8b 10                	mov    (%eax),%edx
c01023b0:	8b 45 ec             	mov    -0x14(%ebp),%eax
c01023b3:	29 c2                	sub    %eax,%edx
c01023b5:	8b 45 e8             	mov    -0x18(%ebp),%eax
c01023b8:	89 10                	mov    %edx,(%eax)
c01023ba:	8b 45 e8             	mov    -0x18(%ebp),%eax
c01023bd:	c7 40 08 01 00 00 00 	movl   $0x1,0x8(%eax)
c01023c4:	8b 45 f4             	mov    -0xc(%ebp),%eax
c01023c7:	8b 55 0c             	mov    0xc(%ebp),%edx
c01023ca:	89 10                	mov    %edx,(%eax)
c01023cc:	8b 45 08             	mov    0x8(%ebp),%eax
c01023cf:	8b 50 04             	mov    0x4(%eax),%edx
c01023d2:	8b 45 e8             	mov    -0x18(%ebp),%eax
c01023d5:	89 50 0c             	mov    %edx,0xc(%eax)
c01023d8:	8b 45 08             	mov    0x8(%ebp),%eax
c01023db:	8b 55 e8             	mov    -0x18(%ebp),%edx
c01023de:	89 50 04             	mov    %edx,0x4(%eax)
c01023e1:	8b 45 f4             	mov    -0xc(%ebp),%eax
c01023e4:	8b 40 04             	mov    0x4(%eax),%eax
c01023e7:	eb 52                	jmp    c010243b <heap_alloc+0x13a>
c01023e9:	8b 45 f4             	mov    -0xc(%ebp),%eax
c01023ec:	8b 40 0c             	mov    0xc(%eax),%eax
c01023ef:	89 45 f4             	mov    %eax,-0xc(%ebp)
c01023f2:	83 7d f4 00          	cmpl   $0x0,-0xc(%ebp)
c01023f6:	0f 85 65 ff ff ff    	jne    c0102361 <heap_alloc+0x60>
c01023fc:	8b 45 ec             	mov    -0x14(%ebp),%eax
c01023ff:	05 ff 0f 00 00       	add    $0xfff,%eax
c0102404:	25 00 f0 ff ff       	and    $0xfffff000,%eax
c0102409:	c1 e8 0c             	shr    $0xc,%eax
c010240c:	89 44 24 04          	mov    %eax,0x4(%esp)
c0102410:	8b 45 08             	mov    0x8(%ebp),%eax
c0102413:	89 04 24             	mov    %eax,(%esp)
c0102416:	e8 b4 fd ff ff       	call   c01021cf <heap_expand>
c010241b:	89 45 f4             	mov    %eax,-0xc(%ebp)
c010241e:	83 7d f4 00          	cmpl   $0x0,-0xc(%ebp)
c0102422:	74 12                	je     c0102436 <heap_alloc+0x135>
c0102424:	8b 45 f4             	mov    -0xc(%ebp),%eax
c0102427:	c7 40 08 00 00 00 00 	movl   $0x0,0x8(%eax)
c010242e:	8b 45 f4             	mov    -0xc(%ebp),%eax
c0102431:	8b 40 04             	mov    0x4(%eax),%eax
c0102434:	eb 05                	jmp    c010243b <heap_alloc+0x13a>
c0102436:	b8 00 00 00 00       	mov    $0x0,%eax
c010243b:	c9                   	leave  
c010243c:	c3                   	ret    

c010243d <heap_free>:
c010243d:	55                   	push   %ebp
c010243e:	89 e5                	mov    %esp,%ebp
c0102440:	83 ec 10             	sub    $0x10,%esp
c0102443:	8b 45 0c             	mov    0xc(%ebp),%eax
c0102446:	83 e8 10             	sub    $0x10,%eax
c0102449:	89 45 fc             	mov    %eax,-0x4(%ebp)
c010244c:	8b 45 fc             	mov    -0x4(%ebp),%eax
c010244f:	c7 40 08 01 00 00 00 	movl   $0x1,0x8(%eax)
c0102456:	c9                   	leave  
c0102457:	c3                   	ret    

c0102458 <thread_sync_context>:
c0102458:	55                   	push   %ebp
c0102459:	89 e5                	mov    %esp,%ebp
c010245b:	83 ec 28             	sub    $0x28,%esp
c010245e:	8b 45 08             	mov    0x8(%ebp),%eax
c0102461:	8b 40 04             	mov    0x4(%eax),%eax
c0102464:	8b 40 2c             	mov    0x2c(%eax),%eax
c0102467:	89 45 f4             	mov    %eax,-0xc(%ebp)
c010246a:	8b 45 08             	mov    0x8(%ebp),%eax
c010246d:	3b 45 f4             	cmp    -0xc(%ebp),%eax
c0102470:	74 3a                	je     c01024ac <thread_sync_context+0x54>
c0102472:	83 7d f4 00          	cmpl   $0x0,-0xc(%ebp)
c0102476:	74 34                	je     c01024ac <thread_sync_context+0x54>
c0102478:	83 7d 08 00          	cmpl   $0x0,0x8(%ebp)
c010247c:	74 2e                	je     c01024ac <thread_sync_context+0x54>
c010247e:	c7 45 f0 c0 02 00 00 	movl   $0x2c0,-0x10(%ebp)
c0102485:	8b 45 08             	mov    0x8(%ebp),%eax
c0102488:	8d 48 08             	lea    0x8(%eax),%ecx
c010248b:	8b 45 f4             	mov    -0xc(%ebp),%eax
c010248e:	8d 50 08             	lea    0x8(%eax),%edx
c0102491:	8b 45 f0             	mov    -0x10(%ebp),%eax
c0102494:	89 44 24 0c          	mov    %eax,0xc(%esp)
c0102498:	c7 44 24 08 00 00 00 	movl   $0x0,0x8(%esp)
c010249f:	00 
c01024a0:	89 4c 24 04          	mov    %ecx,0x4(%esp)
c01024a4:	89 14 24             	mov    %edx,(%esp)
c01024a7:	e8 53 83 00 00       	call   c010a7ff <arch_sync_pts>
c01024ac:	c9                   	leave  
c01024ad:	c3                   	ret    

c01024ae <kernel_thread_exit>:
c01024ae:	55                   	push   %ebp
c01024af:	89 e5                	mov    %esp,%ebp
c01024b1:	a1 10 60 11 c0       	mov    0xc0116010,%eax
c01024b6:	8b 15 10 60 11 c0    	mov    0xc0116010,%edx
c01024bc:	0f b7 52 14          	movzwl 0x14(%edx),%edx
c01024c0:	83 ca 08             	or     $0x8,%edx
c01024c3:	66 89 50 14          	mov    %dx,0x14(%eax)
c01024c7:	eb fe                	jmp    c01024c7 <kernel_thread_exit+0x19>

c01024c9 <kernel_thread_create>:
c01024c9:	55                   	push   %ebp
c01024ca:	89 e5                	mov    %esp,%ebp
c01024cc:	83 ec 28             	sub    $0x28,%esp
c01024cf:	a1 0c 60 11 c0       	mov    0xc011600c,%eax
c01024d4:	c7 44 24 1c 00 00 00 	movl   $0x0,0x1c(%esp)
c01024db:	00 
c01024dc:	c7 44 24 18 00 00 00 	movl   $0x0,0x18(%esp)
c01024e3:	00 
c01024e4:	8b 55 10             	mov    0x10(%ebp),%edx
c01024e7:	89 54 24 14          	mov    %edx,0x14(%esp)
c01024eb:	8b 55 0c             	mov    0xc(%ebp),%edx
c01024ee:	89 54 24 10          	mov    %edx,0x10(%esp)
c01024f2:	c7 44 24 0c 00 00 00 	movl   $0x0,0xc(%esp)
c01024f9:	00 
c01024fa:	8b 55 08             	mov    0x8(%ebp),%edx
c01024fd:	89 54 24 08          	mov    %edx,0x8(%esp)
c0102501:	c7 44 24 04 00 00 00 	movl   $0x0,0x4(%esp)
c0102508:	00 
c0102509:	89 04 24             	mov    %eax,(%esp)
c010250c:	e8 02 00 00 00       	call   c0102513 <thread_create>
c0102511:	c9                   	leave  
c0102512:	c3                   	ret    

c0102513 <thread_create>:
c0102513:	55                   	push   %ebp
c0102514:	89 e5                	mov    %esp,%ebp
c0102516:	83 ec 38             	sub    $0x38,%esp
c0102519:	c7 04 24 24 00 00 00 	movl   $0x24,(%esp)
c0102520:	e8 7e fb ff ff       	call   c01020a3 <malloc>
c0102525:	89 45 f4             	mov    %eax,-0xc(%ebp)
c0102528:	8b 45 f4             	mov    -0xc(%ebp),%eax
c010252b:	66 c7 40 14 01 00    	movw   $0x1,0x14(%eax)
c0102531:	8b 45 f4             	mov    -0xc(%ebp),%eax
c0102534:	8b 55 08             	mov    0x8(%ebp),%edx
c0102537:	89 50 04             	mov    %edx,0x4(%eax)
c010253a:	83 7d 24 00          	cmpl   $0x0,0x24(%ebp)
c010253e:	75 10                	jne    c0102550 <thread_create+0x3d>
c0102540:	8b 45 f4             	mov    -0xc(%ebp),%eax
c0102543:	83 c0 08             	add    $0x8,%eax
c0102546:	89 04 24             	mov    %eax,(%esp)
c0102549:	e8 1d a9 00 00       	call   c010ce6b <vmm_create_context>
c010254e:	eb 1d                	jmp    c010256d <thread_create+0x5a>
c0102550:	8b 45 24             	mov    0x24(%ebp),%eax
c0102553:	8b 55 f4             	mov    -0xc(%ebp),%edx
c0102556:	83 c2 08             	add    $0x8,%edx
c0102559:	c7 44 24 08 08 00 00 	movl   $0x8,0x8(%esp)
c0102560:	00 
c0102561:	89 44 24 04          	mov    %eax,0x4(%esp)
c0102565:	89 14 24             	mov    %edx,(%esp)
c0102568:	e8 b2 a1 00 00       	call   c010c71f <memcpy>
c010256d:	8b 45 f4             	mov    -0xc(%ebp),%eax
c0102570:	89 04 24             	mov    %eax,(%esp)
c0102573:	e8 e0 fe ff ff       	call   c0102458 <thread_sync_context>
c0102578:	8b 45 f4             	mov    -0xc(%ebp),%eax
c010257b:	c7 40 10 0a 00 00 00 	movl   $0xa,0x10(%eax)
c0102582:	8b 45 f4             	mov    -0xc(%ebp),%eax
c0102585:	c7 40 1c 00 00 00 00 	movl   $0x0,0x1c(%eax)
c010258c:	c7 04 24 00 10 00 00 	movl   $0x1000,(%esp)
c0102593:	e8 0b fb ff ff       	call   c01020a3 <malloc>
c0102598:	89 45 f0             	mov    %eax,-0x10(%ebp)
c010259b:	8b 45 f0             	mov    -0x10(%ebp),%eax
c010259e:	05 ac 0f 00 00       	add    $0xfac,%eax
c01025a3:	89 45 ec             	mov    %eax,-0x14(%ebp)
c01025a6:	8b 45 f4             	mov    -0xc(%ebp),%eax
c01025a9:	8b 55 ec             	mov    -0x14(%ebp),%edx
c01025ac:	89 10                	mov    %edx,(%eax)
c01025ae:	83 7d 20 00          	cmpl   $0x0,0x20(%ebp)
c01025b2:	75 07                	jne    c01025bb <thread_create+0xa8>
c01025b4:	c7 45 20 ae 24 10 c0 	movl   $0xc01024ae,0x20(%ebp)
c01025bb:	8b 45 08             	mov    0x8(%ebp),%eax
c01025be:	8b 40 2c             	mov    0x2c(%eax),%eax
c01025c1:	85 c0                	test   %eax,%eax
c01025c3:	75 09                	jne    c01025ce <thread_create+0xbb>
c01025c5:	8b 45 08             	mov    0x8(%ebp),%eax
c01025c8:	8b 55 f4             	mov    -0xc(%ebp),%edx
c01025cb:	89 50 2c             	mov    %edx,0x2c(%eax)
c01025ce:	83 7d 14 00          	cmpl   $0x0,0x14(%ebp)
c01025d2:	74 1c                	je     c01025f0 <thread_create+0xdd>
c01025d4:	c7 44 24 08 48 00 00 	movl   $0x48,0x8(%esp)
c01025db:	00 
c01025dc:	8b 45 14             	mov    0x14(%ebp),%eax
c01025df:	89 44 24 04          	mov    %eax,0x4(%esp)
c01025e3:	8b 45 ec             	mov    -0x14(%ebp),%eax
c01025e6:	89 04 24             	mov    %eax,(%esp)
c01025e9:	e8 31 a1 00 00       	call   c010c71f <memcpy>
c01025ee:	eb 2e                	jmp    c010261e <thread_create+0x10b>
c01025f0:	c7 44 24 08 48 00 00 	movl   $0x48,0x8(%esp)
c01025f7:	00 
c01025f8:	c7 44 24 04 00 00 00 	movl   $0x0,0x4(%esp)
c01025ff:	00 
c0102600:	8b 45 ec             	mov    -0x14(%ebp),%eax
c0102603:	89 04 24             	mov    %eax,(%esp)
c0102606:	e8 d9 a2 00 00       	call   c010c8e4 <memset>
c010260b:	8b 45 ec             	mov    -0x14(%ebp),%eax
c010260e:	8b 55 10             	mov    0x10(%ebp),%edx
c0102611:	89 50 34             	mov    %edx,0x34(%eax)
c0102614:	8b 45 ec             	mov    -0x14(%ebp),%eax
c0102617:	c7 40 3c 02 02 00 00 	movl   $0x202,0x3c(%eax)
c010261e:	83 7d 0c 00          	cmpl   $0x0,0xc(%ebp)
c0102622:	75 78                	jne    c010269c <thread_create+0x189>
c0102624:	8b 45 f4             	mov    -0xc(%ebp),%eax
c0102627:	0f b7 40 14          	movzwl 0x14(%eax),%eax
c010262b:	83 c8 04             	or     $0x4,%eax
c010262e:	89 c2                	mov    %eax,%edx
c0102630:	8b 45 f4             	mov    -0xc(%ebp),%eax
c0102633:	66 89 50 14          	mov    %dx,0x14(%eax)
c0102637:	8b 45 ec             	mov    -0x14(%ebp),%eax
c010263a:	c7 40 38 08 00 00 00 	movl   $0x8,0x38(%eax)
c0102641:	8b 45 ec             	mov    -0x14(%ebp),%eax
c0102644:	c7 40 0c 10 00 00 00 	movl   $0x10,0xc(%eax)
c010264b:	8b 45 ec             	mov    -0x14(%ebp),%eax
c010264e:	c7 40 08 10 00 00 00 	movl   $0x10,0x8(%eax)
c0102655:	8b 45 ec             	mov    -0x14(%ebp),%eax
c0102658:	c7 40 04 10 00 00 00 	movl   $0x10,0x4(%eax)
c010265f:	8b 45 ec             	mov    -0x14(%ebp),%eax
c0102662:	c7 00 10 00 00 00    	movl   $0x10,(%eax)
c0102668:	8b 45 f0             	mov    -0x10(%ebp),%eax
c010266b:	05 f8 0f 00 00       	add    $0xff8,%eax
c0102670:	89 45 e8             	mov    %eax,-0x18(%ebp)
c0102673:	83 6d e8 04          	subl   $0x4,-0x18(%ebp)
c0102677:	8b 55 1c             	mov    0x1c(%ebp),%edx
c010267a:	8b 45 e8             	mov    -0x18(%ebp),%eax
c010267d:	89 10                	mov    %edx,(%eax)
c010267f:	83 6d e8 04          	subl   $0x4,-0x18(%ebp)
c0102683:	8b 55 18             	mov    0x18(%ebp),%edx
c0102686:	8b 45 e8             	mov    -0x18(%ebp),%eax
c0102689:	89 10                	mov    %edx,(%eax)
c010268b:	83 6d e8 04          	subl   $0x4,-0x18(%ebp)
c010268f:	8b 55 20             	mov    0x20(%ebp),%edx
c0102692:	8b 45 e8             	mov    -0x18(%ebp),%eax
c0102695:	89 10                	mov    %edx,(%eax)
c0102697:	e9 b1 00 00 00       	jmp    c010274d <thread_create+0x23a>
c010269c:	83 7d 14 00          	cmpl   $0x0,0x14(%ebp)
c01026a0:	0f 85 93 00 00 00    	jne    c0102739 <thread_create+0x226>
c01026a6:	e8 41 8b 00 00       	call   c010b1ec <pmm_alloc_page>
c01026ab:	89 45 e4             	mov    %eax,-0x1c(%ebp)
c01026ae:	8b 45 f4             	mov    -0xc(%ebp),%eax
c01026b1:	8d 50 08             	lea    0x8(%eax),%edx
c01026b4:	c7 44 24 0c 07 00 00 	movl   $0x7,0xc(%esp)
c01026bb:	00 
c01026bc:	c7 44 24 08 00 f0 ff 	movl   $0xbffff000,0x8(%esp)
c01026c3:	bf 
c01026c4:	8b 45 e4             	mov    -0x1c(%ebp),%eax
c01026c7:	89 44 24 04          	mov    %eax,0x4(%esp)
c01026cb:	89 14 24             	mov    %edx,(%esp)
c01026ce:	e8 ee a7 00 00       	call   c010cec1 <vmm_map>
c01026d3:	8b 45 ec             	mov    -0x14(%ebp),%eax
c01026d6:	c7 40 40 f4 ff ff bf 	movl   $0xbffffff4,0x40(%eax)
c01026dd:	a1 60 49 11 c0       	mov    0xc0114960,%eax
c01026e2:	c7 44 24 08 07 00 00 	movl   $0x7,0x8(%esp)
c01026e9:	00 
c01026ea:	8b 55 e4             	mov    -0x1c(%ebp),%edx
c01026ed:	89 54 24 04          	mov    %edx,0x4(%esp)
c01026f1:	89 04 24             	mov    %eax,(%esp)
c01026f4:	e8 b1 a8 00 00       	call   c010cfaa <vmm_automap_kernel>
c01026f9:	05 00 10 00 00       	add    $0x1000,%eax
c01026fe:	89 45 e0             	mov    %eax,-0x20(%ebp)
c0102701:	83 6d e0 04          	subl   $0x4,-0x20(%ebp)
c0102705:	8b 55 1c             	mov    0x1c(%ebp),%edx
c0102708:	8b 45 e0             	mov    -0x20(%ebp),%eax
c010270b:	89 10                	mov    %edx,(%eax)
c010270d:	83 6d e0 04          	subl   $0x4,-0x20(%ebp)
c0102711:	8b 55 18             	mov    0x18(%ebp),%edx
c0102714:	8b 45 e0             	mov    -0x20(%ebp),%eax
c0102717:	89 10                	mov    %edx,(%eax)
c0102719:	83 6d e0 04          	subl   $0x4,-0x20(%ebp)
c010271d:	8b 55 20             	mov    0x20(%ebp),%edx
c0102720:	8b 45 e0             	mov    -0x20(%ebp),%eax
c0102723:	89 10                	mov    %edx,(%eax)
c0102725:	8b 55 e0             	mov    -0x20(%ebp),%edx
c0102728:	a1 60 49 11 c0       	mov    0xc0114960,%eax
c010272d:	89 54 24 04          	mov    %edx,0x4(%esp)
c0102731:	89 04 24             	mov    %eax,(%esp)
c0102734:	e8 b7 a7 00 00       	call   c010cef0 <vmm_unmap>
c0102739:	8b 45 ec             	mov    -0x14(%ebp),%eax
c010273c:	c7 40 38 1b 00 00 00 	movl   $0x1b,0x38(%eax)
c0102743:	8b 45 ec             	mov    -0x14(%ebp),%eax
c0102746:	c7 40 44 23 00 00 00 	movl   $0x23,0x44(%eax)
c010274d:	8b 45 08             	mov    0x8(%ebp),%eax
c0102750:	8b 40 30             	mov    0x30(%eax),%eax
c0102753:	89 04 24             	mov    %eax,(%esp)
c0102756:	e8 9e 99 00 00       	call   c010c0f9 <list_is_empty>
c010275b:	85 c0                	test   %eax,%eax
c010275d:	74 17                	je     c0102776 <thread_create+0x263>
c010275f:	8b 45 08             	mov    0x8(%ebp),%eax
c0102762:	8b 40 28             	mov    0x28(%eax),%eax
c0102765:	8d 48 01             	lea    0x1(%eax),%ecx
c0102768:	8b 55 08             	mov    0x8(%ebp),%edx
c010276b:	89 4a 28             	mov    %ecx,0x28(%edx)
c010276e:	8b 55 f4             	mov    -0xc(%ebp),%edx
c0102771:	89 42 20             	mov    %eax,0x20(%edx)
c0102774:	eb 16                	jmp    c010278c <thread_create+0x279>
c0102776:	8b 45 08             	mov    0x8(%ebp),%eax
c0102779:	8b 40 30             	mov    0x30(%eax),%eax
c010277c:	89 04 24             	mov    %eax,(%esp)
c010277f:	e8 52 97 00 00       	call   c010bed6 <list_pop_back>
c0102784:	89 c2                	mov    %eax,%edx
c0102786:	8b 45 f4             	mov    -0xc(%ebp),%eax
c0102789:	89 50 20             	mov    %edx,0x20(%eax)
c010278c:	8b 45 08             	mov    0x8(%ebp),%eax
c010278f:	8b 40 24             	mov    0x24(%eax),%eax
c0102792:	8b 55 f4             	mov    -0xc(%ebp),%edx
c0102795:	89 54 24 04          	mov    %edx,0x4(%esp)
c0102799:	89 04 24             	mov    %eax,(%esp)
c010279c:	e8 e6 96 00 00       	call   c010be87 <list_push_front>
c01027a1:	a1 14 60 11 c0       	mov    0xc0116014,%eax
c01027a6:	8b 55 f4             	mov    -0xc(%ebp),%edx
c01027a9:	89 54 24 04          	mov    %edx,0x4(%esp)
c01027ad:	89 04 24             	mov    %eax,(%esp)
c01027b0:	e8 d2 96 00 00       	call   c010be87 <list_push_front>
c01027b5:	8b 45 f4             	mov    -0xc(%ebp),%eax
c01027b8:	c9                   	leave  
c01027b9:	c3                   	ret    

c01027ba <thread_kill>:
c01027ba:	55                   	push   %ebp
c01027bb:	89 e5                	mov    %esp,%ebp
c01027bd:	83 ec 18             	sub    $0x18,%esp
c01027c0:	fa                   	cli    
c01027c1:	a1 10 60 11 c0       	mov    0xc0116010,%eax
c01027c6:	3b 45 08             	cmp    0x8(%ebp),%eax
c01027c9:	75 15                	jne    c01027e0 <thread_kill+0x26>
c01027cb:	8b 45 08             	mov    0x8(%ebp),%eax
c01027ce:	0f b7 40 14          	movzwl 0x14(%eax),%eax
c01027d2:	83 c8 08             	or     $0x8,%eax
c01027d5:	89 c2                	mov    %eax,%edx
c01027d7:	8b 45 08             	mov    0x8(%ebp),%eax
c01027da:	66 89 50 14          	mov    %dx,0x14(%eax)
c01027de:	eb 0b                	jmp    c01027eb <thread_kill+0x31>
c01027e0:	8b 45 08             	mov    0x8(%ebp),%eax
c01027e3:	89 04 24             	mov    %eax,(%esp)
c01027e6:	e8 03 00 00 00       	call   c01027ee <thread_kill_sub>
c01027eb:	fb                   	sti    
c01027ec:	c9                   	leave  
c01027ed:	c3                   	ret    

c01027ee <thread_kill_sub>:
c01027ee:	55                   	push   %ebp
c01027ef:	89 e5                	mov    %esp,%ebp
c01027f1:	83 ec 28             	sub    $0x28,%esp
c01027f4:	8b 45 08             	mov    0x8(%ebp),%eax
c01027f7:	0f b7 40 14          	movzwl 0x14(%eax),%eax
c01027fb:	0f b7 c0             	movzwl %ax,%eax
c01027fe:	83 e0 01             	and    $0x1,%eax
c0102801:	85 c0                	test   %eax,%eax
c0102803:	75 11                	jne    c0102816 <thread_kill_sub+0x28>
c0102805:	8b 45 08             	mov    0x8(%ebp),%eax
c0102808:	0f b7 40 14          	movzwl 0x14(%eax),%eax
c010280c:	0f b7 c0             	movzwl %ax,%eax
c010280f:	83 e0 08             	and    $0x8,%eax
c0102812:	85 c0                	test   %eax,%eax
c0102814:	74 54                	je     c010286a <thread_kill_sub+0x7c>
c0102816:	a1 14 60 11 c0       	mov    0xc0116014,%eax
c010281b:	89 04 24             	mov    %eax,(%esp)
c010281e:	e8 ab 98 00 00       	call   c010c0ce <list_set_first>
c0102823:	eb 34                	jmp    c0102859 <thread_kill_sub+0x6b>
c0102825:	a1 14 60 11 c0       	mov    0xc0116014,%eax
c010282a:	89 04 24             	mov    %eax,(%esp)
c010282d:	e8 49 98 00 00       	call   c010c07b <list_get_current>
c0102832:	89 45 f4             	mov    %eax,-0xc(%ebp)
c0102835:	8b 45 f4             	mov    -0xc(%ebp),%eax
c0102838:	3b 45 08             	cmp    0x8(%ebp),%eax
c010283b:	75 0f                	jne    c010284c <thread_kill_sub+0x5e>
c010283d:	a1 14 60 11 c0       	mov    0xc0116014,%eax
c0102842:	89 04 24             	mov    %eax,(%esp)
c0102845:	e8 a4 97 00 00       	call   c010bfee <list_remove>
c010284a:	eb 1e                	jmp    c010286a <thread_kill_sub+0x7c>
c010284c:	a1 14 60 11 c0       	mov    0xc0116014,%eax
c0102851:	89 04 24             	mov    %eax,(%esp)
c0102854:	e8 30 98 00 00       	call   c010c089 <list_next>
c0102859:	a1 14 60 11 c0       	mov    0xc0116014,%eax
c010285e:	89 04 24             	mov    %eax,(%esp)
c0102861:	e8 50 98 00 00       	call   c010c0b6 <list_is_last>
c0102866:	85 c0                	test   %eax,%eax
c0102868:	74 bb                	je     c0102825 <thread_kill_sub+0x37>
c010286a:	8b 45 08             	mov    0x8(%ebp),%eax
c010286d:	8b 00                	mov    (%eax),%eax
c010286f:	89 04 24             	mov    %eax,(%esp)
c0102872:	e8 47 f8 ff ff       	call   c01020be <free>
c0102877:	8b 45 08             	mov    0x8(%ebp),%eax
c010287a:	8b 40 04             	mov    0x4(%eax),%eax
c010287d:	0f b7 40 38          	movzwl 0x38(%eax),%eax
c0102881:	0f b7 c0             	movzwl %ax,%eax
c0102884:	83 e0 04             	and    $0x4,%eax
c0102887:	85 c0                	test   %eax,%eax
c0102889:	0f 85 aa 00 00 00    	jne    c0102939 <thread_kill_sub+0x14b>
c010288f:	8b 45 08             	mov    0x8(%ebp),%eax
c0102892:	8b 40 20             	mov    0x20(%eax),%eax
c0102895:	89 c2                	mov    %eax,%edx
c0102897:	8b 45 08             	mov    0x8(%ebp),%eax
c010289a:	8b 40 04             	mov    0x4(%eax),%eax
c010289d:	8b 40 30             	mov    0x30(%eax),%eax
c01028a0:	89 54 24 04          	mov    %edx,0x4(%esp)
c01028a4:	89 04 24             	mov    %eax,(%esp)
c01028a7:	e8 db 95 00 00       	call   c010be87 <list_push_front>
c01028ac:	8b 45 08             	mov    0x8(%ebp),%eax
c01028af:	8b 40 04             	mov    0x4(%eax),%eax
c01028b2:	8b 40 24             	mov    0x24(%eax),%eax
c01028b5:	89 04 24             	mov    %eax,(%esp)
c01028b8:	e8 11 98 00 00       	call   c010c0ce <list_set_first>
c01028bd:	eb 65                	jmp    c0102924 <thread_kill_sub+0x136>
c01028bf:	8b 45 08             	mov    0x8(%ebp),%eax
c01028c2:	8b 40 04             	mov    0x4(%eax),%eax
c01028c5:	8b 40 24             	mov    0x24(%eax),%eax
c01028c8:	89 04 24             	mov    %eax,(%esp)
c01028cb:	e8 ab 97 00 00       	call   c010c07b <list_get_current>
c01028d0:	89 45 f0             	mov    %eax,-0x10(%ebp)
c01028d3:	8b 45 f0             	mov    -0x10(%ebp),%eax
c01028d6:	3b 45 08             	cmp    0x8(%ebp),%eax
c01028d9:	75 38                	jne    c0102913 <thread_kill_sub+0x125>
c01028db:	8b 45 08             	mov    0x8(%ebp),%eax
c01028de:	8b 40 04             	mov    0x4(%eax),%eax
c01028e1:	8b 40 24             	mov    0x24(%eax),%eax
c01028e4:	89 04 24             	mov    %eax,(%esp)
c01028e7:	e8 02 97 00 00       	call   c010bfee <list_remove>
c01028ec:	8b 45 08             	mov    0x8(%ebp),%eax
c01028ef:	8b 40 04             	mov    0x4(%eax),%eax
c01028f2:	8b 40 24             	mov    0x24(%eax),%eax
c01028f5:	89 04 24             	mov    %eax,(%esp)
c01028f8:	e8 fc 97 00 00       	call   c010c0f9 <list_is_empty>
c01028fd:	85 c0                	test   %eax,%eax
c01028ff:	74 10                	je     c0102911 <thread_kill_sub+0x123>
c0102901:	8b 45 08             	mov    0x8(%ebp),%eax
c0102904:	8b 40 04             	mov    0x4(%eax),%eax
c0102907:	89 04 24             	mov    %eax,(%esp)
c010290a:	e8 99 37 00 00       	call   c01060a8 <process_kill>
c010290f:	eb 28                	jmp    c0102939 <thread_kill_sub+0x14b>
c0102911:	eb 26                	jmp    c0102939 <thread_kill_sub+0x14b>
c0102913:	8b 45 08             	mov    0x8(%ebp),%eax
c0102916:	8b 40 04             	mov    0x4(%eax),%eax
c0102919:	8b 40 24             	mov    0x24(%eax),%eax
c010291c:	89 04 24             	mov    %eax,(%esp)
c010291f:	e8 65 97 00 00       	call   c010c089 <list_next>
c0102924:	8b 45 08             	mov    0x8(%ebp),%eax
c0102927:	8b 40 04             	mov    0x4(%eax),%eax
c010292a:	8b 40 24             	mov    0x24(%eax),%eax
c010292d:	89 04 24             	mov    %eax,(%esp)
c0102930:	e8 81 97 00 00       	call   c010c0b6 <list_is_last>
c0102935:	85 c0                	test   %eax,%eax
c0102937:	74 86                	je     c01028bf <thread_kill_sub+0xd1>
c0102939:	8b 45 08             	mov    0x8(%ebp),%eax
c010293c:	89 04 24             	mov    %eax,(%esp)
c010293f:	e8 7a f7 ff ff       	call   c01020be <free>
c0102944:	c9                   	leave  
c0102945:	c3                   	ret    

c0102946 <thread_exit>:
c0102946:	55                   	push   %ebp
c0102947:	89 e5                	mov    %esp,%ebp
c0102949:	83 ec 18             	sub    $0x18,%esp
c010294c:	a1 10 60 11 c0       	mov    0xc0116010,%eax
c0102951:	8b 15 10 60 11 c0    	mov    0xc0116010,%edx
c0102957:	0f b7 52 14          	movzwl 0x14(%edx),%edx
c010295b:	83 ca 08             	or     $0x8,%edx
c010295e:	66 89 50 14          	mov    %dx,0x14(%eax)
c0102962:	8b 45 08             	mov    0x8(%ebp),%eax
c0102965:	8b 00                	mov    (%eax),%eax
c0102967:	89 04 24             	mov    %eax,(%esp)
c010296a:	e8 86 01 00 00       	call   c0102af5 <task_schedule>
c010296f:	8b 55 08             	mov    0x8(%ebp),%edx
c0102972:	89 02                	mov    %eax,(%edx)
c0102974:	c9                   	leave  
c0102975:	c3                   	ret    

c0102976 <launch_thread>:
c0102976:	55                   	push   %ebp
c0102977:	89 e5                	mov    %esp,%ebp
c0102979:	56                   	push   %esi
c010297a:	53                   	push   %ebx
c010297b:	83 ec 20             	sub    $0x20,%esp
c010297e:	8b 45 08             	mov    0x8(%ebp),%eax
c0102981:	8b 00                	mov    (%eax),%eax
c0102983:	8b 40 14             	mov    0x14(%eax),%eax
c0102986:	89 c6                	mov    %eax,%esi
c0102988:	8b 45 08             	mov    0x8(%ebp),%eax
c010298b:	8b 00                	mov    (%eax),%eax
c010298d:	8b 40 20             	mov    0x20(%eax),%eax
c0102990:	89 c3                	mov    %eax,%ebx
c0102992:	8b 45 08             	mov    0x8(%ebp),%eax
c0102995:	8b 00                	mov    (%eax),%eax
c0102997:	8b 40 24             	mov    0x24(%eax),%eax
c010299a:	89 c1                	mov    %eax,%ecx
c010299c:	8b 45 08             	mov    0x8(%ebp),%eax
c010299f:	8b 00                	mov    (%eax),%eax
c01029a1:	8b 50 1c             	mov    0x1c(%eax),%edx
c01029a4:	a1 10 60 11 c0       	mov    0xc0116010,%eax
c01029a9:	8b 40 04             	mov    0x4(%eax),%eax
c01029ac:	c7 44 24 1c 00 00 00 	movl   $0x0,0x1c(%esp)
c01029b3:	00 
c01029b4:	89 74 24 18          	mov    %esi,0x18(%esp)
c01029b8:	89 5c 24 14          	mov    %ebx,0x14(%esp)
c01029bc:	89 4c 24 10          	mov    %ecx,0x10(%esp)
c01029c0:	c7 44 24 0c 00 00 00 	movl   $0x0,0xc(%esp)
c01029c7:	00 
c01029c8:	89 54 24 08          	mov    %edx,0x8(%esp)
c01029cc:	c7 44 24 04 03 00 00 	movl   $0x3,0x4(%esp)
c01029d3:	00 
c01029d4:	89 04 24             	mov    %eax,(%esp)
c01029d7:	e8 37 fb ff ff       	call   c0102513 <thread_create>
c01029dc:	83 c4 20             	add    $0x20,%esp
c01029df:	5b                   	pop    %ebx
c01029e0:	5e                   	pop    %esi
c01029e1:	5d                   	pop    %ebp
c01029e2:	c3                   	ret    

c01029e3 <INIT_SCHEDULER>:
c01029e3:	55                   	push   %ebp
c01029e4:	89 e5                	mov    %esp,%ebp
c01029e6:	83 ec 28             	sub    $0x28,%esp
c01029e9:	b8 60 20 11 c0       	mov    $0xc0112060,%eax
c01029ee:	c7 44 24 10 08 00 00 	movl   $0x8,0x10(%esp)
c01029f5:	00 
c01029f6:	c7 44 24 0c 89 00 00 	movl   $0x89,0xc(%esp)
c01029fd:	00 
c01029fe:	c7 44 24 08 68 00 00 	movl   $0x68,0x8(%esp)
c0102a05:	00 
c0102a06:	89 44 24 04          	mov    %eax,0x4(%esp)
c0102a0a:	c7 04 24 05 00 00 00 	movl   $0x5,(%esp)
c0102a11:	e8 29 63 00 00       	call   c0108d3f <set_GDT_entry>
c0102a16:	c7 04 24 05 00 00 00 	movl   $0x5,(%esp)
c0102a1d:	e8 9e 63 00 00       	call   c0108dc0 <load_gdt>
c0102a22:	b8 28 00 00 00       	mov    $0x28,%eax
c0102a27:	0f 00 d8             	ltr    %ax
c0102a2a:	c7 04 24 00 10 00 00 	movl   $0x1000,(%esp)
c0102a31:	e8 6d f6 ff ff       	call   c01020a3 <malloc>
c0102a36:	05 00 10 00 00       	add    $0x1000,%eax
c0102a3b:	a3 08 60 11 c0       	mov    %eax,0xc0116008
c0102a40:	a1 08 60 11 c0       	mov    0xc0116008,%eax
c0102a45:	a3 64 20 11 c0       	mov    %eax,0xc0112064
c0102a4a:	e8 ee 92 00 00       	call   c010bd3d <list_create>
c0102a4f:	a3 14 60 11 c0       	mov    %eax,0xc0116014
c0102a54:	e8 e4 92 00 00       	call   c010bd3d <list_create>
c0102a59:	a3 18 40 11 c0       	mov    %eax,0xc0114018
c0102a5e:	e8 da 92 00 00       	call   c010bd3d <list_create>
c0102a63:	a3 1c 40 11 c0       	mov    %eax,0xc011401c
c0102a68:	c7 44 24 18 00 00 00 	movl   $0x0,0x18(%esp)
c0102a6f:	00 
c0102a70:	c7 44 24 14 00 00 00 	movl   $0x0,0x14(%esp)
c0102a77:	00 
c0102a78:	c7 44 24 10 00 00 00 	movl   $0x0,0x10(%esp)
c0102a7f:	00 
c0102a80:	c7 44 24 0c 00 00 00 	movl   $0x0,0xc(%esp)
c0102a87:	00 
c0102a88:	c7 44 24 08 01 00 00 	movl   $0x1,0x8(%esp)
c0102a8f:	00 
c0102a90:	c7 44 24 04 00 e0 10 	movl   $0xc010e000,0x4(%esp)
c0102a97:	c0 
c0102a98:	c7 04 24 10 e0 10 c0 	movl   $0xc010e010,(%esp)
c0102a9f:	e8 aa 32 00 00       	call   c0105d4e <process_create>
c0102aa4:	a3 0c 60 11 c0       	mov    %eax,0xc011600c
c0102aa9:	a1 0c 60 11 c0       	mov    0xc011600c,%eax
c0102aae:	c7 44 24 1c 00 00 00 	movl   $0x0,0x1c(%esp)
c0102ab5:	00 
c0102ab6:	c7 44 24 18 00 00 00 	movl   $0x0,0x18(%esp)
c0102abd:	00 
c0102abe:	c7 44 24 14 00 00 00 	movl   $0x0,0x14(%esp)
c0102ac5:	00 
c0102ac6:	c7 44 24 10 00 00 00 	movl   $0x0,0x10(%esp)
c0102acd:	00 
c0102ace:	c7 44 24 0c 00 00 00 	movl   $0x0,0xc(%esp)
c0102ad5:	00 
c0102ad6:	c7 44 24 08 00 00 00 	movl   $0x0,0x8(%esp)
c0102add:	00 
c0102ade:	c7 44 24 04 00 00 00 	movl   $0x0,0x4(%esp)
c0102ae5:	00 
c0102ae6:	89 04 24             	mov    %eax,(%esp)
c0102ae9:	e8 25 fa ff ff       	call   c0102513 <thread_create>
c0102aee:	a3 10 60 11 c0       	mov    %eax,0xc0116010
c0102af3:	c9                   	leave  
c0102af4:	c3                   	ret    

c0102af5 <task_schedule>:
c0102af5:	55                   	push   %ebp
c0102af6:	89 e5                	mov    %esp,%ebp
c0102af8:	83 ec 18             	sub    $0x18,%esp
c0102afb:	a1 10 60 11 c0       	mov    0xc0116010,%eax
c0102b00:	0f b7 40 14          	movzwl 0x14(%eax),%eax
c0102b04:	0f b7 c0             	movzwl %ax,%eax
c0102b07:	83 e0 04             	and    $0x4,%eax
c0102b0a:	85 c0                	test   %eax,%eax
c0102b0c:	74 0c                	je     c0102b1a <task_schedule+0x25>
c0102b0e:	a1 10 60 11 c0       	mov    0xc0116010,%eax
c0102b13:	8b 55 08             	mov    0x8(%ebp),%edx
c0102b16:	89 10                	mov    %edx,(%eax)
c0102b18:	eb 1e                	jmp    c0102b38 <task_schedule+0x43>
c0102b1a:	a1 10 60 11 c0       	mov    0xc0116010,%eax
c0102b1f:	8b 00                	mov    (%eax),%eax
c0102b21:	c7 44 24 08 48 00 00 	movl   $0x48,0x8(%esp)
c0102b28:	00 
c0102b29:	8b 55 08             	mov    0x8(%ebp),%edx
c0102b2c:	89 54 24 04          	mov    %edx,0x4(%esp)
c0102b30:	89 04 24             	mov    %eax,(%esp)
c0102b33:	e8 e7 9b 00 00       	call   c010c71f <memcpy>
c0102b38:	a1 10 60 11 c0       	mov    0xc0116010,%eax
c0102b3d:	0f b7 40 14          	movzwl 0x14(%eax),%eax
c0102b41:	0f b7 c0             	movzwl %ax,%eax
c0102b44:	83 e0 08             	and    $0x8,%eax
c0102b47:	85 c0                	test   %eax,%eax
c0102b49:	0f 84 9b 00 00 00    	je     c0102bea <task_schedule+0xf5>
c0102b4f:	a1 10 60 11 c0       	mov    0xc0116010,%eax
c0102b54:	0f b7 40 14          	movzwl 0x14(%eax),%eax
c0102b58:	0f b7 c0             	movzwl %ax,%eax
c0102b5b:	83 e0 04             	and    $0x4,%eax
c0102b5e:	85 c0                	test   %eax,%eax
c0102b60:	0f 85 42 01 00 00    	jne    c0102ca8 <task_schedule+0x1b3>
c0102b66:	a1 10 60 11 c0       	mov    0xc0116010,%eax
c0102b6b:	89 04 24             	mov    %eax,(%esp)
c0102b6e:	e8 7b fc ff ff       	call   c01027ee <thread_kill_sub>
c0102b73:	a1 14 60 11 c0       	mov    0xc0116014,%eax
c0102b78:	89 04 24             	mov    %eax,(%esp)
c0102b7b:	e8 79 95 00 00       	call   c010c0f9 <list_is_empty>
c0102b80:	85 c0                	test   %eax,%eax
c0102b82:	74 14                	je     c0102b98 <task_schedule+0xa3>
c0102b84:	fb                   	sti    
c0102b85:	90                   	nop
c0102b86:	a1 14 60 11 c0       	mov    0xc0116014,%eax
c0102b8b:	89 04 24             	mov    %eax,(%esp)
c0102b8e:	e8 66 95 00 00       	call   c010c0f9 <list_is_empty>
c0102b93:	85 c0                	test   %eax,%eax
c0102b95:	75 ef                	jne    c0102b86 <task_schedule+0x91>
c0102b97:	fa                   	cli    
c0102b98:	a1 14 60 11 c0       	mov    0xc0116014,%eax
c0102b9d:	89 04 24             	mov    %eax,(%esp)
c0102ba0:	e8 29 95 00 00       	call   c010c0ce <list_set_first>
c0102ba5:	a1 14 60 11 c0       	mov    0xc0116014,%eax
c0102baa:	89 04 24             	mov    %eax,(%esp)
c0102bad:	e8 c9 94 00 00       	call   c010c07b <list_get_current>
c0102bb2:	a3 10 60 11 c0       	mov    %eax,0xc0116010
c0102bb7:	a1 10 60 11 c0       	mov    0xc0116010,%eax
c0102bbc:	83 c0 08             	add    $0x8,%eax
c0102bbf:	89 04 24             	mov    %eax,(%esp)
c0102bc2:	e8 ca a2 00 00       	call   c010ce91 <vmm_switch_context>
c0102bc7:	a1 10 60 11 c0       	mov    0xc0116010,%eax
c0102bcc:	8b 00                	mov    (%eax),%eax
c0102bce:	c7 44 24 08 48 00 00 	movl   $0x48,0x8(%esp)
c0102bd5:	00 
c0102bd6:	89 44 24 04          	mov    %eax,0x4(%esp)
c0102bda:	8b 45 08             	mov    0x8(%ebp),%eax
c0102bdd:	89 04 24             	mov    %eax,(%esp)
c0102be0:	e8 3a 9b 00 00       	call   c010c71f <memcpy>
c0102be5:	e9 be 00 00 00       	jmp    c0102ca8 <task_schedule+0x1b3>
c0102bea:	a1 10 60 11 c0       	mov    0xc0116010,%eax
c0102bef:	8b 40 10             	mov    0x10(%eax),%eax
c0102bf2:	85 c0                	test   %eax,%eax
c0102bf4:	0f 85 a0 00 00 00    	jne    c0102c9a <task_schedule+0x1a5>
c0102bfa:	a1 10 60 11 c0       	mov    0xc0116010,%eax
c0102bff:	c7 40 10 0a 00 00 00 	movl   $0xa,0x10(%eax)
c0102c06:	a1 14 60 11 c0       	mov    0xc0116014,%eax
c0102c0b:	89 04 24             	mov    %eax,(%esp)
c0102c0e:	e8 76 94 00 00       	call   c010c089 <list_next>
c0102c13:	a1 14 60 11 c0       	mov    0xc0116014,%eax
c0102c18:	89 04 24             	mov    %eax,(%esp)
c0102c1b:	e8 96 94 00 00       	call   c010c0b6 <list_is_last>
c0102c20:	85 c0                	test   %eax,%eax
c0102c22:	74 0d                	je     c0102c31 <task_schedule+0x13c>
c0102c24:	a1 14 60 11 c0       	mov    0xc0116014,%eax
c0102c29:	89 04 24             	mov    %eax,(%esp)
c0102c2c:	e8 9d 94 00 00       	call   c010c0ce <list_set_first>
c0102c31:	a1 14 60 11 c0       	mov    0xc0116014,%eax
c0102c36:	89 04 24             	mov    %eax,(%esp)
c0102c39:	e8 3d 94 00 00       	call   c010c07b <list_get_current>
c0102c3e:	a3 10 60 11 c0       	mov    %eax,0xc0116010
c0102c43:	a1 10 60 11 c0       	mov    0xc0116010,%eax
c0102c48:	83 c0 08             	add    $0x8,%eax
c0102c4b:	89 04 24             	mov    %eax,(%esp)
c0102c4e:	e8 3e a2 00 00       	call   c010ce91 <vmm_switch_context>
c0102c53:	a1 10 60 11 c0       	mov    0xc0116010,%eax
c0102c58:	0f b7 40 14          	movzwl 0x14(%eax),%eax
c0102c5c:	0f b7 c0             	movzwl %ax,%eax
c0102c5f:	83 e0 04             	and    $0x4,%eax
c0102c62:	85 c0                	test   %eax,%eax
c0102c64:	74 0c                	je     c0102c72 <task_schedule+0x17d>
c0102c66:	a1 10 60 11 c0       	mov    0xc0116010,%eax
c0102c6b:	8b 00                	mov    (%eax),%eax
c0102c6d:	89 45 08             	mov    %eax,0x8(%ebp)
c0102c70:	eb 36                	jmp    c0102ca8 <task_schedule+0x1b3>
c0102c72:	a1 08 60 11 c0       	mov    0xc0116008,%eax
c0102c77:	89 45 08             	mov    %eax,0x8(%ebp)
c0102c7a:	a1 10 60 11 c0       	mov    0xc0116010,%eax
c0102c7f:	8b 00                	mov    (%eax),%eax
c0102c81:	c7 44 24 08 48 00 00 	movl   $0x48,0x8(%esp)
c0102c88:	00 
c0102c89:	89 44 24 04          	mov    %eax,0x4(%esp)
c0102c8d:	8b 45 08             	mov    0x8(%ebp),%eax
c0102c90:	89 04 24             	mov    %eax,(%esp)
c0102c93:	e8 87 9a 00 00       	call   c010c71f <memcpy>
c0102c98:	eb 0e                	jmp    c0102ca8 <task_schedule+0x1b3>
c0102c9a:	a1 10 60 11 c0       	mov    0xc0116010,%eax
c0102c9f:	8b 50 10             	mov    0x10(%eax),%edx
c0102ca2:	83 ea 01             	sub    $0x1,%edx
c0102ca5:	89 50 10             	mov    %edx,0x10(%eax)
c0102ca8:	c7 04 24 00 00 00 00 	movl   $0x0,(%esp)
c0102caf:	e8 bd 67 00 00       	call   c0109471 <EOI>
c0102cb4:	8b 45 08             	mov    0x8(%ebp),%eax
c0102cb7:	c9                   	leave  
c0102cb8:	c3                   	ret    

c0102cb9 <inb>:
c0102cb9:	55                   	push   %ebp
c0102cba:	89 e5                	mov    %esp,%ebp
c0102cbc:	83 ec 14             	sub    $0x14,%esp
c0102cbf:	8b 45 08             	mov    0x8(%ebp),%eax
c0102cc2:	66 89 45 ec          	mov    %ax,-0x14(%ebp)
c0102cc6:	0f b7 45 ec          	movzwl -0x14(%ebp),%eax
c0102cca:	89 c2                	mov    %eax,%edx
c0102ccc:	ec                   	in     (%dx),%al
c0102ccd:	88 45 ff             	mov    %al,-0x1(%ebp)
c0102cd0:	0f b6 45 ff          	movzbl -0x1(%ebp),%eax
c0102cd4:	c9                   	leave  
c0102cd5:	c3                   	ret    

c0102cd6 <outb>:
c0102cd6:	55                   	push   %ebp
c0102cd7:	89 e5                	mov    %esp,%ebp
c0102cd9:	83 ec 08             	sub    $0x8,%esp
c0102cdc:	8b 55 08             	mov    0x8(%ebp),%edx
c0102cdf:	8b 45 0c             	mov    0xc(%ebp),%eax
c0102ce2:	66 89 55 fc          	mov    %dx,-0x4(%ebp)
c0102ce6:	88 45 f8             	mov    %al,-0x8(%ebp)
c0102ce9:	0f b7 55 fc          	movzwl -0x4(%ebp),%edx
c0102ced:	0f b6 45 f8          	movzbl -0x8(%ebp),%eax
c0102cf1:	ee                   	out    %al,(%dx)
c0102cf2:	c9                   	leave  
c0102cf3:	c3                   	ret    

c0102cf4 <get_cmos_data>:
c0102cf4:	55                   	push   %ebp
c0102cf5:	89 e5                	mov    %esp,%ebp
c0102cf7:	83 ec 18             	sub    $0x18,%esp
c0102cfa:	c7 04 24 0a 00 00 00 	movl   $0xa,(%esp)
c0102d01:	e8 4b 01 00 00       	call   c0102e51 <cmos_read_byte>
c0102d06:	8b 55 08             	mov    0x8(%ebp),%edx
c0102d09:	88 02                	mov    %al,(%edx)
c0102d0b:	c7 04 24 0b 00 00 00 	movl   $0xb,(%esp)
c0102d12:	e8 3a 01 00 00       	call   c0102e51 <cmos_read_byte>
c0102d17:	8b 55 08             	mov    0x8(%ebp),%edx
c0102d1a:	88 42 01             	mov    %al,0x1(%edx)
c0102d1d:	c7 04 24 0c 00 00 00 	movl   $0xc,(%esp)
c0102d24:	e8 28 01 00 00       	call   c0102e51 <cmos_read_byte>
c0102d29:	8b 55 08             	mov    0x8(%ebp),%edx
c0102d2c:	88 42 02             	mov    %al,0x2(%edx)
c0102d2f:	c7 04 24 0d 00 00 00 	movl   $0xd,(%esp)
c0102d36:	e8 16 01 00 00       	call   c0102e51 <cmos_read_byte>
c0102d3b:	8b 55 08             	mov    0x8(%ebp),%edx
c0102d3e:	88 42 03             	mov    %al,0x3(%edx)
c0102d41:	c7 04 24 0e 00 00 00 	movl   $0xe,(%esp)
c0102d48:	e8 04 01 00 00       	call   c0102e51 <cmos_read_byte>
c0102d4d:	8b 55 08             	mov    0x8(%ebp),%edx
c0102d50:	88 42 04             	mov    %al,0x4(%edx)
c0102d53:	c7 04 24 0f 00 00 00 	movl   $0xf,(%esp)
c0102d5a:	e8 f2 00 00 00       	call   c0102e51 <cmos_read_byte>
c0102d5f:	8b 55 08             	mov    0x8(%ebp),%edx
c0102d62:	88 42 05             	mov    %al,0x5(%edx)
c0102d65:	c7 04 24 10 00 00 00 	movl   $0x10,(%esp)
c0102d6c:	e8 e0 00 00 00       	call   c0102e51 <cmos_read_byte>
c0102d71:	8b 55 08             	mov    0x8(%ebp),%edx
c0102d74:	88 42 06             	mov    %al,0x6(%edx)
c0102d77:	c7 04 24 12 00 00 00 	movl   $0x12,(%esp)
c0102d7e:	e8 ce 00 00 00       	call   c0102e51 <cmos_read_byte>
c0102d83:	8b 55 08             	mov    0x8(%ebp),%edx
c0102d86:	88 42 07             	mov    %al,0x7(%edx)
c0102d89:	c7 04 24 14 00 00 00 	movl   $0x14,(%esp)
c0102d90:	e8 bc 00 00 00       	call   c0102e51 <cmos_read_byte>
c0102d95:	8b 55 08             	mov    0x8(%ebp),%edx
c0102d98:	88 42 08             	mov    %al,0x8(%edx)
c0102d9b:	c7 04 24 15 00 00 00 	movl   $0x15,(%esp)
c0102da2:	e8 aa 00 00 00       	call   c0102e51 <cmos_read_byte>
c0102da7:	8b 55 08             	mov    0x8(%ebp),%edx
c0102daa:	88 42 09             	mov    %al,0x9(%edx)
c0102dad:	c7 04 24 16 00 00 00 	movl   $0x16,(%esp)
c0102db4:	e8 98 00 00 00       	call   c0102e51 <cmos_read_byte>
c0102db9:	8b 55 08             	mov    0x8(%ebp),%edx
c0102dbc:	88 42 0a             	mov    %al,0xa(%edx)
c0102dbf:	c7 04 24 17 00 00 00 	movl   $0x17,(%esp)
c0102dc6:	e8 86 00 00 00       	call   c0102e51 <cmos_read_byte>
c0102dcb:	8b 55 08             	mov    0x8(%ebp),%edx
c0102dce:	88 42 0b             	mov    %al,0xb(%edx)
c0102dd1:	c7 04 24 18 00 00 00 	movl   $0x18,(%esp)
c0102dd8:	e8 74 00 00 00       	call   c0102e51 <cmos_read_byte>
c0102ddd:	8b 55 08             	mov    0x8(%ebp),%edx
c0102de0:	88 42 0c             	mov    %al,0xc(%edx)
c0102de3:	c7 04 24 19 00 00 00 	movl   $0x19,(%esp)
c0102dea:	e8 62 00 00 00       	call   c0102e51 <cmos_read_byte>
c0102def:	8b 55 08             	mov    0x8(%ebp),%edx
c0102df2:	88 42 0d             	mov    %al,0xd(%edx)
c0102df5:	c7 04 24 1a 00 00 00 	movl   $0x1a,(%esp)
c0102dfc:	e8 50 00 00 00       	call   c0102e51 <cmos_read_byte>
c0102e01:	8b 55 08             	mov    0x8(%ebp),%edx
c0102e04:	88 42 0e             	mov    %al,0xe(%edx)
c0102e07:	c7 04 24 2e 00 00 00 	movl   $0x2e,(%esp)
c0102e0e:	e8 3e 00 00 00       	call   c0102e51 <cmos_read_byte>
c0102e13:	8b 55 08             	mov    0x8(%ebp),%edx
c0102e16:	88 42 0f             	mov    %al,0xf(%edx)
c0102e19:	c7 04 24 2f 00 00 00 	movl   $0x2f,(%esp)
c0102e20:	e8 2c 00 00 00       	call   c0102e51 <cmos_read_byte>
c0102e25:	8b 55 08             	mov    0x8(%ebp),%edx
c0102e28:	88 42 10             	mov    %al,0x10(%edx)
c0102e2b:	c7 04 24 30 00 00 00 	movl   $0x30,(%esp)
c0102e32:	e8 1a 00 00 00       	call   c0102e51 <cmos_read_byte>
c0102e37:	8b 55 08             	mov    0x8(%ebp),%edx
c0102e3a:	88 42 11             	mov    %al,0x11(%edx)
c0102e3d:	c7 04 24 31 00 00 00 	movl   $0x31,(%esp)
c0102e44:	e8 08 00 00 00       	call   c0102e51 <cmos_read_byte>
c0102e49:	8b 55 08             	mov    0x8(%ebp),%edx
c0102e4c:	88 42 12             	mov    %al,0x12(%edx)
c0102e4f:	c9                   	leave  
c0102e50:	c3                   	ret    

c0102e51 <cmos_read_byte>:
c0102e51:	55                   	push   %ebp
c0102e52:	89 e5                	mov    %esp,%ebp
c0102e54:	83 ec 1c             	sub    $0x1c,%esp
c0102e57:	8b 45 08             	mov    0x8(%ebp),%eax
c0102e5a:	88 45 ec             	mov    %al,-0x14(%ebp)
c0102e5d:	c7 04 24 70 00 00 00 	movl   $0x70,(%esp)
c0102e64:	e8 50 fe ff ff       	call   c0102cb9 <inb>
c0102e69:	88 45 ff             	mov    %al,-0x1(%ebp)
c0102e6c:	0f b6 45 ff          	movzbl -0x1(%ebp),%eax
c0102e70:	83 e0 80             	and    $0xffffff80,%eax
c0102e73:	89 c2                	mov    %eax,%edx
c0102e75:	0f b6 45 ec          	movzbl -0x14(%ebp),%eax
c0102e79:	83 e0 7f             	and    $0x7f,%eax
c0102e7c:	09 d0                	or     %edx,%eax
c0102e7e:	0f b6 c0             	movzbl %al,%eax
c0102e81:	89 44 24 04          	mov    %eax,0x4(%esp)
c0102e85:	c7 04 24 70 00 00 00 	movl   $0x70,(%esp)
c0102e8c:	e8 45 fe ff ff       	call   c0102cd6 <outb>
c0102e91:	c7 04 24 71 00 00 00 	movl   $0x71,(%esp)
c0102e98:	e8 1c fe ff ff       	call   c0102cb9 <inb>
c0102e9d:	c9                   	leave  
c0102e9e:	c3                   	ret    

c0102e9f <cmos_write_byte>:
c0102e9f:	55                   	push   %ebp
c0102ea0:	89 e5                	mov    %esp,%ebp
c0102ea2:	83 ec 20             	sub    $0x20,%esp
c0102ea5:	8b 55 08             	mov    0x8(%ebp),%edx
c0102ea8:	8b 45 0c             	mov    0xc(%ebp),%eax
c0102eab:	88 55 ec             	mov    %dl,-0x14(%ebp)
c0102eae:	88 45 e8             	mov    %al,-0x18(%ebp)
c0102eb1:	c7 04 24 70 00 00 00 	movl   $0x70,(%esp)
c0102eb8:	e8 fc fd ff ff       	call   c0102cb9 <inb>
c0102ebd:	88 45 ff             	mov    %al,-0x1(%ebp)
c0102ec0:	0f b6 45 ff          	movzbl -0x1(%ebp),%eax
c0102ec4:	83 e0 80             	and    $0xffffff80,%eax
c0102ec7:	89 c2                	mov    %eax,%edx
c0102ec9:	0f b6 45 ec          	movzbl -0x14(%ebp),%eax
c0102ecd:	83 e0 7f             	and    $0x7f,%eax
c0102ed0:	09 d0                	or     %edx,%eax
c0102ed2:	0f b6 c0             	movzbl %al,%eax
c0102ed5:	89 44 24 04          	mov    %eax,0x4(%esp)
c0102ed9:	c7 04 24 70 00 00 00 	movl   $0x70,(%esp)
c0102ee0:	e8 f1 fd ff ff       	call   c0102cd6 <outb>
c0102ee5:	0f b6 45 e8          	movzbl -0x18(%ebp),%eax
c0102ee9:	89 44 24 04          	mov    %eax,0x4(%esp)
c0102eed:	c7 04 24 71 00 00 00 	movl   $0x71,(%esp)
c0102ef4:	e8 dd fd ff ff       	call   c0102cd6 <outb>
c0102ef9:	c9                   	leave  
c0102efa:	c3                   	ret    

c0102efb <inb>:
c0102efb:	55                   	push   %ebp
c0102efc:	89 e5                	mov    %esp,%ebp
c0102efe:	83 ec 14             	sub    $0x14,%esp
c0102f01:	8b 45 08             	mov    0x8(%ebp),%eax
c0102f04:	66 89 45 ec          	mov    %ax,-0x14(%ebp)
c0102f08:	0f b7 45 ec          	movzwl -0x14(%ebp),%eax
c0102f0c:	89 c2                	mov    %eax,%edx
c0102f0e:	ec                   	in     (%dx),%al
c0102f0f:	88 45 ff             	mov    %al,-0x1(%ebp)
c0102f12:	0f b6 45 ff          	movzbl -0x1(%ebp),%eax
c0102f16:	c9                   	leave  
c0102f17:	c3                   	ret    

c0102f18 <outb>:
c0102f18:	55                   	push   %ebp
c0102f19:	89 e5                	mov    %esp,%ebp
c0102f1b:	83 ec 08             	sub    $0x8,%esp
c0102f1e:	8b 55 08             	mov    0x8(%ebp),%edx
c0102f21:	8b 45 0c             	mov    0xc(%ebp),%eax
c0102f24:	66 89 55 fc          	mov    %dx,-0x4(%ebp)
c0102f28:	88 45 f8             	mov    %al,-0x8(%ebp)
c0102f2b:	0f b7 55 fc          	movzwl -0x4(%ebp),%edx
c0102f2f:	0f b6 45 f8          	movzbl -0x8(%ebp),%eax
c0102f33:	ee                   	out    %al,(%dx)
c0102f34:	c9                   	leave  
c0102f35:	c3                   	ret    

c0102f36 <outw>:
c0102f36:	55                   	push   %ebp
c0102f37:	89 e5                	mov    %esp,%ebp
c0102f39:	83 ec 08             	sub    $0x8,%esp
c0102f3c:	8b 55 08             	mov    0x8(%ebp),%edx
c0102f3f:	8b 45 0c             	mov    0xc(%ebp),%eax
c0102f42:	66 89 55 fc          	mov    %dx,-0x4(%ebp)
c0102f46:	66 89 45 f8          	mov    %ax,-0x8(%ebp)
c0102f4a:	0f b7 55 fc          	movzwl -0x4(%ebp),%edx
c0102f4e:	0f b7 45 f8          	movzwl -0x8(%ebp),%eax
c0102f52:	66 ef                	out    %ax,(%dx)
c0102f54:	c9                   	leave  
c0102f55:	c3                   	ret    

c0102f56 <outl>:
c0102f56:	55                   	push   %ebp
c0102f57:	89 e5                	mov    %esp,%ebp
c0102f59:	83 ec 04             	sub    $0x4,%esp
c0102f5c:	8b 45 08             	mov    0x8(%ebp),%eax
c0102f5f:	66 89 45 fc          	mov    %ax,-0x4(%ebp)
c0102f63:	0f b7 55 fc          	movzwl -0x4(%ebp),%edx
c0102f67:	8b 45 0c             	mov    0xc(%ebp),%eax
c0102f6a:	ef                   	out    %eax,(%dx)
c0102f6b:	c9                   	leave  
c0102f6c:	c3                   	ret    

c0102f6d <rtl_outb>:
c0102f6d:	55                   	push   %ebp
c0102f6e:	89 e5                	mov    %esp,%ebp
c0102f70:	83 ec 0c             	sub    $0xc,%esp
c0102f73:	8b 45 10             	mov    0x10(%ebp),%eax
c0102f76:	88 45 fc             	mov    %al,-0x4(%ebp)
c0102f79:	0f b6 55 fc          	movzbl -0x4(%ebp),%edx
c0102f7d:	8b 45 08             	mov    0x8(%ebp),%eax
c0102f80:	8b 00                	mov    (%eax),%eax
c0102f82:	89 c1                	mov    %eax,%ecx
c0102f84:	8b 45 0c             	mov    0xc(%ebp),%eax
c0102f87:	01 c8                	add    %ecx,%eax
c0102f89:	0f b7 c0             	movzwl %ax,%eax
c0102f8c:	89 54 24 04          	mov    %edx,0x4(%esp)
c0102f90:	89 04 24             	mov    %eax,(%esp)
c0102f93:	e8 80 ff ff ff       	call   c0102f18 <outb>
c0102f98:	c9                   	leave  
c0102f99:	c3                   	ret    

c0102f9a <rtl_outw>:
c0102f9a:	55                   	push   %ebp
c0102f9b:	89 e5                	mov    %esp,%ebp
c0102f9d:	83 ec 0c             	sub    $0xc,%esp
c0102fa0:	8b 45 10             	mov    0x10(%ebp),%eax
c0102fa3:	66 89 45 fc          	mov    %ax,-0x4(%ebp)
c0102fa7:	0f b7 55 fc          	movzwl -0x4(%ebp),%edx
c0102fab:	8b 45 08             	mov    0x8(%ebp),%eax
c0102fae:	8b 00                	mov    (%eax),%eax
c0102fb0:	89 c1                	mov    %eax,%ecx
c0102fb2:	8b 45 0c             	mov    0xc(%ebp),%eax
c0102fb5:	01 c8                	add    %ecx,%eax
c0102fb7:	0f b7 c0             	movzwl %ax,%eax
c0102fba:	89 54 24 04          	mov    %edx,0x4(%esp)
c0102fbe:	89 04 24             	mov    %eax,(%esp)
c0102fc1:	e8 70 ff ff ff       	call   c0102f36 <outw>
c0102fc6:	c9                   	leave  
c0102fc7:	c3                   	ret    

c0102fc8 <rtl_outl>:
c0102fc8:	55                   	push   %ebp
c0102fc9:	89 e5                	mov    %esp,%ebp
c0102fcb:	83 ec 08             	sub    $0x8,%esp
c0102fce:	8b 45 08             	mov    0x8(%ebp),%eax
c0102fd1:	8b 00                	mov    (%eax),%eax
c0102fd3:	89 c2                	mov    %eax,%edx
c0102fd5:	8b 45 0c             	mov    0xc(%ebp),%eax
c0102fd8:	01 d0                	add    %edx,%eax
c0102fda:	0f b7 c0             	movzwl %ax,%eax
c0102fdd:	8b 55 10             	mov    0x10(%ebp),%edx
c0102fe0:	89 54 24 04          	mov    %edx,0x4(%esp)
c0102fe4:	89 04 24             	mov    %eax,(%esp)
c0102fe7:	e8 6a ff ff ff       	call   c0102f56 <outl>
c0102fec:	c9                   	leave  
c0102fed:	c3                   	ret    

c0102fee <rtl_inb>:
c0102fee:	55                   	push   %ebp
c0102fef:	89 e5                	mov    %esp,%ebp
c0102ff1:	83 ec 04             	sub    $0x4,%esp
c0102ff4:	8b 45 08             	mov    0x8(%ebp),%eax
c0102ff7:	8b 00                	mov    (%eax),%eax
c0102ff9:	89 c2                	mov    %eax,%edx
c0102ffb:	8b 45 0c             	mov    0xc(%ebp),%eax
c0102ffe:	01 d0                	add    %edx,%eax
c0103000:	0f b7 c0             	movzwl %ax,%eax
c0103003:	89 04 24             	mov    %eax,(%esp)
c0103006:	e8 f0 fe ff ff       	call   c0102efb <inb>
c010300b:	c9                   	leave  
c010300c:	c3                   	ret    

c010300d <INIT_RTL8139>:
c010300d:	55                   	push   %ebp
c010300e:	89 e5                	mov    %esp,%ebp
c0103010:	56                   	push   %esi
c0103011:	53                   	push   %ebx
c0103012:	83 ec 30             	sub    $0x30,%esp
c0103015:	c7 04 24 1c e0 10 c0 	movl   $0xc010e01c,(%esp)
c010301c:	e8 9d 10 00 00       	call   c01040be <puts>
c0103021:	e8 17 8d 00 00       	call   c010bd3d <list_create>
c0103026:	a3 00 40 11 c0       	mov    %eax,0xc0114000
c010302b:	8b 15 04 40 11 c0    	mov    0xc0114004,%edx
c0103031:	a1 20 60 11 c0       	mov    0xc0116020,%eax
c0103036:	89 54 24 0c          	mov    %edx,0xc(%esp)
c010303a:	c7 44 24 08 39 81 00 	movl   $0x8139,0x8(%esp)
c0103041:	00 
c0103042:	c7 44 24 04 ec 10 00 	movl   $0x10ec,0x4(%esp)
c0103049:	00 
c010304a:	89 04 24             	mov    %eax,(%esp)
c010304d:	e8 00 06 00 00       	call   c0103652 <pci_search_device>
c0103052:	89 45 f4             	mov    %eax,-0xc(%ebp)
c0103055:	e9 5d 01 00 00       	jmp    c01031b7 <INIT_RTL8139+0x1aa>
c010305a:	a1 04 40 11 c0       	mov    0xc0114004,%eax
c010305f:	83 c0 01             	add    $0x1,%eax
c0103062:	a3 04 40 11 c0       	mov    %eax,0xc0114004
c0103067:	c7 04 24 1c 00 00 00 	movl   $0x1c,(%esp)
c010306e:	e8 30 f0 ff ff       	call   c01020a3 <malloc>
c0103073:	89 45 ec             	mov    %eax,-0x14(%ebp)
c0103076:	8b 45 ec             	mov    -0x14(%ebp),%eax
c0103079:	8b 55 f4             	mov    -0xc(%ebp),%edx
c010307c:	89 50 18             	mov    %edx,0x18(%eax)
c010307f:	a1 00 40 11 c0       	mov    0xc0114000,%eax
c0103084:	8b 55 ec             	mov    -0x14(%ebp),%edx
c0103087:	89 54 24 04          	mov    %edx,0x4(%esp)
c010308b:	89 04 24             	mov    %eax,(%esp)
c010308e:	e8 f4 8d 00 00       	call   c010be87 <list_push_front>
c0103093:	c7 45 f0 00 00 00 00 	movl   $0x0,-0x10(%ebp)
c010309a:	e9 b1 00 00 00       	jmp    c0103150 <INIT_RTL8139+0x143>
c010309f:	8b 4d f4             	mov    -0xc(%ebp),%ecx
c01030a2:	8b 55 f0             	mov    -0x10(%ebp),%edx
c01030a5:	89 d0                	mov    %edx,%eax
c01030a7:	01 c0                	add    %eax,%eax
c01030a9:	01 d0                	add    %edx,%eax
c01030ab:	c1 e0 02             	shl    $0x2,%eax
c01030ae:	01 c8                	add    %ecx,%eax
c01030b0:	83 c0 1c             	add    $0x1c,%eax
c01030b3:	8b 00                	mov    (%eax),%eax
c01030b5:	83 f8 01             	cmp    $0x1,%eax
c01030b8:	75 1d                	jne    c01030d7 <INIT_RTL8139+0xca>
c01030ba:	8b 4d f4             	mov    -0xc(%ebp),%ecx
c01030bd:	8b 55 f0             	mov    -0x10(%ebp),%edx
c01030c0:	89 d0                	mov    %edx,%eax
c01030c2:	01 c0                	add    %eax,%eax
c01030c4:	01 d0                	add    %edx,%eax
c01030c6:	c1 e0 02             	shl    $0x2,%eax
c01030c9:	01 c8                	add    %ecx,%eax
c01030cb:	83 c0 18             	add    $0x18,%eax
c01030ce:	8b 10                	mov    (%eax),%edx
c01030d0:	8b 45 ec             	mov    -0x14(%ebp),%eax
c01030d3:	89 10                	mov    %edx,(%eax)
c01030d5:	eb 75                	jmp    c010314c <INIT_RTL8139+0x13f>
c01030d7:	8b 4d f4             	mov    -0xc(%ebp),%ecx
c01030da:	8b 55 f0             	mov    -0x10(%ebp),%edx
c01030dd:	89 d0                	mov    %edx,%eax
c01030df:	01 c0                	add    %eax,%eax
c01030e1:	01 d0                	add    %edx,%eax
c01030e3:	c1 e0 02             	shl    $0x2,%eax
c01030e6:	01 c8                	add    %ecx,%eax
c01030e8:	83 c0 1c             	add    $0x1c,%eax
c01030eb:	8b 00                	mov    (%eax),%eax
c01030ed:	85 c0                	test   %eax,%eax
c01030ef:	75 5b                	jne    c010314c <INIT_RTL8139+0x13f>
c01030f1:	8b 45 ec             	mov    -0x14(%ebp),%eax
c01030f4:	c7 40 04 00 00 c0 00 	movl   $0xc00000,0x4(%eax)
c01030fb:	8b 45 ec             	mov    -0x14(%ebp),%eax
c01030fe:	c7 40 08 00 00 c0 c0 	movl   $0xc0c00000,0x8(%eax)
c0103105:	8b 45 ec             	mov    -0x14(%ebp),%eax
c0103108:	8b 70 04             	mov    0x4(%eax),%esi
c010310b:	8b 45 f0             	mov    -0x10(%ebp),%eax
c010310e:	83 c0 04             	add    $0x4,%eax
c0103111:	c1 e0 02             	shl    $0x2,%eax
c0103114:	0f b6 d8             	movzbl %al,%ebx
c0103117:	8b 45 f4             	mov    -0xc(%ebp),%eax
c010311a:	0f b6 40 02          	movzbl 0x2(%eax),%eax
c010311e:	0f b6 c8             	movzbl %al,%ecx
c0103121:	8b 45 f4             	mov    -0xc(%ebp),%eax
c0103124:	0f b6 40 01          	movzbl 0x1(%eax),%eax
c0103128:	0f b6 d0             	movzbl %al,%edx
c010312b:	8b 45 f4             	mov    -0xc(%ebp),%eax
c010312e:	0f b6 00             	movzbl (%eax),%eax
c0103131:	0f b6 c0             	movzbl %al,%eax
c0103134:	89 74 24 10          	mov    %esi,0x10(%esp)
c0103138:	89 5c 24 0c          	mov    %ebx,0xc(%esp)
c010313c:	89 4c 24 08          	mov    %ecx,0x8(%esp)
c0103140:	89 54 24 04          	mov    %edx,0x4(%esp)
c0103144:	89 04 24             	mov    %eax,(%esp)
c0103147:	e8 37 04 00 00       	call   c0103583 <pci_writel>
c010314c:	83 45 f0 01          	addl   $0x1,-0x10(%ebp)
c0103150:	83 7d f0 05          	cmpl   $0x5,-0x10(%ebp)
c0103154:	0f 8e 45 ff ff ff    	jle    c010309f <INIT_RTL8139+0x92>
c010315a:	8b 45 ec             	mov    -0x14(%ebp),%eax
c010315d:	8b 00                	mov    (%eax),%eax
c010315f:	85 c0                	test   %eax,%eax
c0103161:	75 0c                	jne    c010316f <INIT_RTL8139+0x162>
c0103163:	c7 04 24 28 e0 10 c0 	movl   $0xc010e028,(%esp)
c010316a:	e8 4f 0f 00 00       	call   c01040be <puts>
c010316f:	8b 45 ec             	mov    -0x14(%ebp),%eax
c0103172:	89 04 24             	mov    %eax,(%esp)
c0103175:	e8 4e 00 00 00       	call   c01031c8 <rtl8139_reset>
c010317a:	8b 45 f4             	mov    -0xc(%ebp),%eax
c010317d:	89 44 24 04          	mov    %eax,0x4(%esp)
c0103181:	c7 04 24 92 32 10 c0 	movl   $0xc0103292,(%esp)
c0103188:	e8 81 05 00 00       	call   c010370e <pci_install_isr>
c010318d:	8b 15 04 40 11 c0    	mov    0xc0114004,%edx
c0103193:	a1 20 60 11 c0       	mov    0xc0116020,%eax
c0103198:	89 54 24 0c          	mov    %edx,0xc(%esp)
c010319c:	c7 44 24 08 39 81 00 	movl   $0x8139,0x8(%esp)
c01031a3:	00 
c01031a4:	c7 44 24 04 ec 10 00 	movl   $0x10ec,0x4(%esp)
c01031ab:	00 
c01031ac:	89 04 24             	mov    %eax,(%esp)
c01031af:	e8 9e 04 00 00       	call   c0103652 <pci_search_device>
c01031b4:	89 45 f4             	mov    %eax,-0xc(%ebp)
c01031b7:	83 7d f4 00          	cmpl   $0x0,-0xc(%ebp)
c01031bb:	0f 85 99 fe ff ff    	jne    c010305a <INIT_RTL8139+0x4d>
c01031c1:	83 c4 30             	add    $0x30,%esp
c01031c4:	5b                   	pop    %ebx
c01031c5:	5e                   	pop    %esi
c01031c6:	5d                   	pop    %ebp
c01031c7:	c3                   	ret    

c01031c8 <rtl8139_reset>:
c01031c8:	55                   	push   %ebp
c01031c9:	89 e5                	mov    %esp,%ebp
c01031cb:	83 ec 0c             	sub    $0xc,%esp
c01031ce:	c7 44 24 08 10 00 00 	movl   $0x10,0x8(%esp)
c01031d5:	00 
c01031d6:	c7 44 24 04 37 00 00 	movl   $0x37,0x4(%esp)
c01031dd:	00 
c01031de:	8b 45 08             	mov    0x8(%ebp),%eax
c01031e1:	89 04 24             	mov    %eax,(%esp)
c01031e4:	e8 84 fd ff ff       	call   c0102f6d <rtl_outb>
c01031e9:	90                   	nop
c01031ea:	c7 44 24 04 37 00 00 	movl   $0x37,0x4(%esp)
c01031f1:	00 
c01031f2:	8b 45 08             	mov    0x8(%ebp),%eax
c01031f5:	89 04 24             	mov    %eax,(%esp)
c01031f8:	e8 f1 fd ff ff       	call   c0102fee <rtl_inb>
c01031fd:	0f b6 c0             	movzbl %al,%eax
c0103200:	83 e0 10             	and    $0x10,%eax
c0103203:	85 c0                	test   %eax,%eax
c0103205:	75 e3                	jne    c01031ea <rtl8139_reset+0x22>
c0103207:	c7 44 24 08 0c 00 00 	movl   $0xc,0x8(%esp)
c010320e:	00 
c010320f:	c7 44 24 04 37 00 00 	movl   $0x37,0x4(%esp)
c0103216:	00 
c0103217:	8b 45 08             	mov    0x8(%ebp),%eax
c010321a:	89 04 24             	mov    %eax,(%esp)
c010321d:	e8 4b fd ff ff       	call   c0102f6d <rtl_outb>
c0103222:	c7 44 24 08 00 07 00 	movl   $0x3000700,0x8(%esp)
c0103229:	03 
c010322a:	c7 44 24 04 40 00 00 	movl   $0x40,0x4(%esp)
c0103231:	00 
c0103232:	8b 45 08             	mov    0x8(%ebp),%eax
c0103235:	89 04 24             	mov    %eax,(%esp)
c0103238:	e8 8b fd ff ff       	call   c0102fc8 <rtl_outl>
c010323d:	c7 44 24 08 0a 07 00 	movl   $0x70a,0x8(%esp)
c0103244:	00 
c0103245:	c7 44 24 04 44 00 00 	movl   $0x44,0x4(%esp)
c010324c:	00 
c010324d:	8b 45 08             	mov    0x8(%ebp),%eax
c0103250:	89 04 24             	mov    %eax,(%esp)
c0103253:	e8 70 fd ff ff       	call   c0102fc8 <rtl_outl>
c0103258:	8b 45 08             	mov    0x8(%ebp),%eax
c010325b:	8b 40 04             	mov    0x4(%eax),%eax
c010325e:	89 44 24 08          	mov    %eax,0x8(%esp)
c0103262:	c7 44 24 04 30 00 00 	movl   $0x30,0x4(%esp)
c0103269:	00 
c010326a:	8b 45 08             	mov    0x8(%ebp),%eax
c010326d:	89 04 24             	mov    %eax,(%esp)
c0103270:	e8 53 fd ff ff       	call   c0102fc8 <rtl_outl>
c0103275:	c7 44 24 08 ff ff 00 	movl   $0xffff,0x8(%esp)
c010327c:	00 
c010327d:	c7 44 24 04 3c 00 00 	movl   $0x3c,0x4(%esp)
c0103284:	00 
c0103285:	8b 45 08             	mov    0x8(%ebp),%eax
c0103288:	89 04 24             	mov    %eax,(%esp)
c010328b:	e8 0a fd ff ff       	call   c0102f9a <rtl_outw>
c0103290:	c9                   	leave  
c0103291:	c3                   	ret    

c0103292 <rtl8139_isr>:
c0103292:	55                   	push   %ebp
c0103293:	89 e5                	mov    %esp,%ebp
c0103295:	83 ec 18             	sub    $0x18,%esp
c0103298:	c7 04 24 4c e0 10 c0 	movl   $0xc010e04c,(%esp)
c010329f:	e8 1a 0e 00 00       	call   c01040be <puts>
c01032a4:	c9                   	leave  
c01032a5:	c3                   	ret    

c01032a6 <inl>:
c01032a6:	55                   	push   %ebp
c01032a7:	89 e5                	mov    %esp,%ebp
c01032a9:	83 ec 14             	sub    $0x14,%esp
c01032ac:	8b 45 08             	mov    0x8(%ebp),%eax
c01032af:	66 89 45 ec          	mov    %ax,-0x14(%ebp)
c01032b3:	0f b7 45 ec          	movzwl -0x14(%ebp),%eax
c01032b7:	89 c2                	mov    %eax,%edx
c01032b9:	ed                   	in     (%dx),%eax
c01032ba:	89 45 fc             	mov    %eax,-0x4(%ebp)
c01032bd:	8b 45 fc             	mov    -0x4(%ebp),%eax
c01032c0:	c9                   	leave  
c01032c1:	c3                   	ret    

c01032c2 <outb>:
c01032c2:	55                   	push   %ebp
c01032c3:	89 e5                	mov    %esp,%ebp
c01032c5:	83 ec 08             	sub    $0x8,%esp
c01032c8:	8b 55 08             	mov    0x8(%ebp),%edx
c01032cb:	8b 45 0c             	mov    0xc(%ebp),%eax
c01032ce:	66 89 55 fc          	mov    %dx,-0x4(%ebp)
c01032d2:	88 45 f8             	mov    %al,-0x8(%ebp)
c01032d5:	0f b7 55 fc          	movzwl -0x4(%ebp),%edx
c01032d9:	0f b6 45 f8          	movzbl -0x8(%ebp),%eax
c01032dd:	ee                   	out    %al,(%dx)
c01032de:	c9                   	leave  
c01032df:	c3                   	ret    

c01032e0 <outw>:
c01032e0:	55                   	push   %ebp
c01032e1:	89 e5                	mov    %esp,%ebp
c01032e3:	83 ec 08             	sub    $0x8,%esp
c01032e6:	8b 55 08             	mov    0x8(%ebp),%edx
c01032e9:	8b 45 0c             	mov    0xc(%ebp),%eax
c01032ec:	66 89 55 fc          	mov    %dx,-0x4(%ebp)
c01032f0:	66 89 45 f8          	mov    %ax,-0x8(%ebp)
c01032f4:	0f b7 55 fc          	movzwl -0x4(%ebp),%edx
c01032f8:	0f b7 45 f8          	movzwl -0x8(%ebp),%eax
c01032fc:	66 ef                	out    %ax,(%dx)
c01032fe:	c9                   	leave  
c01032ff:	c3                   	ret    

c0103300 <outl>:
c0103300:	55                   	push   %ebp
c0103301:	89 e5                	mov    %esp,%ebp
c0103303:	83 ec 04             	sub    $0x4,%esp
c0103306:	8b 45 08             	mov    0x8(%ebp),%eax
c0103309:	66 89 45 fc          	mov    %ax,-0x4(%ebp)
c010330d:	0f b7 55 fc          	movzwl -0x4(%ebp),%edx
c0103311:	8b 45 0c             	mov    0xc(%ebp),%eax
c0103314:	ef                   	out    %eax,(%dx)
c0103315:	c9                   	leave  
c0103316:	c3                   	ret    

c0103317 <pci_read>:
c0103317:	55                   	push   %ebp
c0103318:	89 e5                	mov    %esp,%ebp
c010331a:	53                   	push   %ebx
c010331b:	83 ec 18             	sub    $0x18,%esp
c010331e:	8b 5d 08             	mov    0x8(%ebp),%ebx
c0103321:	8b 4d 0c             	mov    0xc(%ebp),%ecx
c0103324:	8b 55 10             	mov    0x10(%ebp),%edx
c0103327:	8b 45 14             	mov    0x14(%ebp),%eax
c010332a:	88 5d f8             	mov    %bl,-0x8(%ebp)
c010332d:	88 4d f4             	mov    %cl,-0xc(%ebp)
c0103330:	88 55 f0             	mov    %dl,-0x10(%ebp)
c0103333:	88 45 ec             	mov    %al,-0x14(%ebp)
c0103336:	0f b6 45 f8          	movzbl -0x8(%ebp),%eax
c010333a:	c1 e0 10             	shl    $0x10,%eax
c010333d:	89 c2                	mov    %eax,%edx
c010333f:	0f b6 45 f4          	movzbl -0xc(%ebp),%eax
c0103343:	c1 e0 0b             	shl    $0xb,%eax
c0103346:	09 c2                	or     %eax,%edx
c0103348:	0f b6 45 f0          	movzbl -0x10(%ebp),%eax
c010334c:	c1 e0 08             	shl    $0x8,%eax
c010334f:	09 c2                	or     %eax,%edx
c0103351:	0f b6 45 ec          	movzbl -0x14(%ebp),%eax
c0103355:	25 fc 00 00 00       	and    $0xfc,%eax
c010335a:	09 d0                	or     %edx,%eax
c010335c:	0d 00 00 00 80       	or     $0x80000000,%eax
c0103361:	89 44 24 04          	mov    %eax,0x4(%esp)
c0103365:	c7 04 24 f8 0c 00 00 	movl   $0xcf8,(%esp)
c010336c:	e8 8f ff ff ff       	call   c0103300 <outl>
c0103371:	c7 04 24 fc 0c 00 00 	movl   $0xcfc,(%esp)
c0103378:	e8 29 ff ff ff       	call   c01032a6 <inl>
c010337d:	0f b6 55 ec          	movzbl -0x14(%ebp),%edx
c0103381:	83 e2 03             	and    $0x3,%edx
c0103384:	c1 e2 03             	shl    $0x3,%edx
c0103387:	89 d1                	mov    %edx,%ecx
c0103389:	d3 e8                	shr    %cl,%eax
c010338b:	83 c4 18             	add    $0x18,%esp
c010338e:	5b                   	pop    %ebx
c010338f:	5d                   	pop    %ebp
c0103390:	c3                   	ret    

c0103391 <pci_readb>:
c0103391:	55                   	push   %ebp
c0103392:	89 e5                	mov    %esp,%ebp
c0103394:	53                   	push   %ebx
c0103395:	83 ec 20             	sub    $0x20,%esp
c0103398:	8b 5d 08             	mov    0x8(%ebp),%ebx
c010339b:	8b 4d 0c             	mov    0xc(%ebp),%ecx
c010339e:	8b 55 10             	mov    0x10(%ebp),%edx
c01033a1:	8b 45 14             	mov    0x14(%ebp),%eax
c01033a4:	88 5d f8             	mov    %bl,-0x8(%ebp)
c01033a7:	88 4d f4             	mov    %cl,-0xc(%ebp)
c01033aa:	88 55 f0             	mov    %dl,-0x10(%ebp)
c01033ad:	88 45 ec             	mov    %al,-0x14(%ebp)
c01033b0:	0f b6 5d ec          	movzbl -0x14(%ebp),%ebx
c01033b4:	0f b6 4d f0          	movzbl -0x10(%ebp),%ecx
c01033b8:	0f b6 55 f4          	movzbl -0xc(%ebp),%edx
c01033bc:	0f b6 45 f8          	movzbl -0x8(%ebp),%eax
c01033c0:	89 5c 24 0c          	mov    %ebx,0xc(%esp)
c01033c4:	89 4c 24 08          	mov    %ecx,0x8(%esp)
c01033c8:	89 54 24 04          	mov    %edx,0x4(%esp)
c01033cc:	89 04 24             	mov    %eax,(%esp)
c01033cf:	e8 43 ff ff ff       	call   c0103317 <pci_read>
c01033d4:	83 c4 20             	add    $0x20,%esp
c01033d7:	5b                   	pop    %ebx
c01033d8:	5d                   	pop    %ebp
c01033d9:	c3                   	ret    

c01033da <pci_readw>:
c01033da:	55                   	push   %ebp
c01033db:	89 e5                	mov    %esp,%ebp
c01033dd:	53                   	push   %ebx
c01033de:	83 ec 20             	sub    $0x20,%esp
c01033e1:	8b 5d 08             	mov    0x8(%ebp),%ebx
c01033e4:	8b 4d 0c             	mov    0xc(%ebp),%ecx
c01033e7:	8b 55 10             	mov    0x10(%ebp),%edx
c01033ea:	8b 45 14             	mov    0x14(%ebp),%eax
c01033ed:	88 5d f8             	mov    %bl,-0x8(%ebp)
c01033f0:	88 4d f4             	mov    %cl,-0xc(%ebp)
c01033f3:	88 55 f0             	mov    %dl,-0x10(%ebp)
c01033f6:	88 45 ec             	mov    %al,-0x14(%ebp)
c01033f9:	0f b6 5d ec          	movzbl -0x14(%ebp),%ebx
c01033fd:	0f b6 4d f0          	movzbl -0x10(%ebp),%ecx
c0103401:	0f b6 55 f4          	movzbl -0xc(%ebp),%edx
c0103405:	0f b6 45 f8          	movzbl -0x8(%ebp),%eax
c0103409:	89 5c 24 0c          	mov    %ebx,0xc(%esp)
c010340d:	89 4c 24 08          	mov    %ecx,0x8(%esp)
c0103411:	89 54 24 04          	mov    %edx,0x4(%esp)
c0103415:	89 04 24             	mov    %eax,(%esp)
c0103418:	e8 fa fe ff ff       	call   c0103317 <pci_read>
c010341d:	83 c4 20             	add    $0x20,%esp
c0103420:	5b                   	pop    %ebx
c0103421:	5d                   	pop    %ebp
c0103422:	c3                   	ret    

c0103423 <pci_readl>:
c0103423:	55                   	push   %ebp
c0103424:	89 e5                	mov    %esp,%ebp
c0103426:	53                   	push   %ebx
c0103427:	83 ec 20             	sub    $0x20,%esp
c010342a:	8b 5d 08             	mov    0x8(%ebp),%ebx
c010342d:	8b 4d 0c             	mov    0xc(%ebp),%ecx
c0103430:	8b 55 10             	mov    0x10(%ebp),%edx
c0103433:	8b 45 14             	mov    0x14(%ebp),%eax
c0103436:	88 5d f8             	mov    %bl,-0x8(%ebp)
c0103439:	88 4d f4             	mov    %cl,-0xc(%ebp)
c010343c:	88 55 f0             	mov    %dl,-0x10(%ebp)
c010343f:	88 45 ec             	mov    %al,-0x14(%ebp)
c0103442:	0f b6 5d ec          	movzbl -0x14(%ebp),%ebx
c0103446:	0f b6 4d f0          	movzbl -0x10(%ebp),%ecx
c010344a:	0f b6 55 f4          	movzbl -0xc(%ebp),%edx
c010344e:	0f b6 45 f8          	movzbl -0x8(%ebp),%eax
c0103452:	89 5c 24 0c          	mov    %ebx,0xc(%esp)
c0103456:	89 4c 24 08          	mov    %ecx,0x8(%esp)
c010345a:	89 54 24 04          	mov    %edx,0x4(%esp)
c010345e:	89 04 24             	mov    %eax,(%esp)
c0103461:	e8 b1 fe ff ff       	call   c0103317 <pci_read>
c0103466:	83 c4 20             	add    $0x20,%esp
c0103469:	5b                   	pop    %ebx
c010346a:	5d                   	pop    %ebp
c010346b:	c3                   	ret    

c010346c <pci_writeb>:
c010346c:	55                   	push   %ebp
c010346d:	89 e5                	mov    %esp,%ebp
c010346f:	57                   	push   %edi
c0103470:	56                   	push   %esi
c0103471:	53                   	push   %ebx
c0103472:	83 ec 1c             	sub    $0x1c,%esp
c0103475:	8b 75 08             	mov    0x8(%ebp),%esi
c0103478:	8b 5d 0c             	mov    0xc(%ebp),%ebx
c010347b:	8b 4d 10             	mov    0x10(%ebp),%ecx
c010347e:	8b 55 14             	mov    0x14(%ebp),%edx
c0103481:	8b 7d 18             	mov    0x18(%ebp),%edi
c0103484:	89 f0                	mov    %esi,%eax
c0103486:	88 45 f0             	mov    %al,-0x10(%ebp)
c0103489:	88 5d ec             	mov    %bl,-0x14(%ebp)
c010348c:	88 4d e8             	mov    %cl,-0x18(%ebp)
c010348f:	88 55 e4             	mov    %dl,-0x1c(%ebp)
c0103492:	89 f8                	mov    %edi,%eax
c0103494:	88 45 e0             	mov    %al,-0x20(%ebp)
c0103497:	0f b6 45 f0          	movzbl -0x10(%ebp),%eax
c010349b:	c1 e0 10             	shl    $0x10,%eax
c010349e:	89 c2                	mov    %eax,%edx
c01034a0:	0f b6 45 ec          	movzbl -0x14(%ebp),%eax
c01034a4:	c1 e0 0b             	shl    $0xb,%eax
c01034a7:	09 c2                	or     %eax,%edx
c01034a9:	0f b6 45 e8          	movzbl -0x18(%ebp),%eax
c01034ad:	c1 e0 08             	shl    $0x8,%eax
c01034b0:	09 c2                	or     %eax,%edx
c01034b2:	0f b6 45 e4          	movzbl -0x1c(%ebp),%eax
c01034b6:	25 fc 00 00 00       	and    $0xfc,%eax
c01034bb:	09 d0                	or     %edx,%eax
c01034bd:	0d 00 00 00 80       	or     $0x80000000,%eax
c01034c2:	89 44 24 04          	mov    %eax,0x4(%esp)
c01034c6:	c7 04 24 f8 0c 00 00 	movl   $0xcf8,(%esp)
c01034cd:	e8 2e fe ff ff       	call   c0103300 <outl>
c01034d2:	0f b6 55 e0          	movzbl -0x20(%ebp),%edx
c01034d6:	0f b6 45 e4          	movzbl -0x1c(%ebp),%eax
c01034da:	83 e0 03             	and    $0x3,%eax
c01034dd:	66 05 fc 0c          	add    $0xcfc,%ax
c01034e1:	0f b7 c0             	movzwl %ax,%eax
c01034e4:	89 54 24 04          	mov    %edx,0x4(%esp)
c01034e8:	89 04 24             	mov    %eax,(%esp)
c01034eb:	e8 d2 fd ff ff       	call   c01032c2 <outb>
c01034f0:	83 c4 1c             	add    $0x1c,%esp
c01034f3:	5b                   	pop    %ebx
c01034f4:	5e                   	pop    %esi
c01034f5:	5f                   	pop    %edi
c01034f6:	5d                   	pop    %ebp
c01034f7:	c3                   	ret    

c01034f8 <pci_writew>:
c01034f8:	55                   	push   %ebp
c01034f9:	89 e5                	mov    %esp,%ebp
c01034fb:	57                   	push   %edi
c01034fc:	56                   	push   %esi
c01034fd:	53                   	push   %ebx
c01034fe:	83 ec 1c             	sub    $0x1c,%esp
c0103501:	8b 75 08             	mov    0x8(%ebp),%esi
c0103504:	8b 5d 0c             	mov    0xc(%ebp),%ebx
c0103507:	8b 4d 10             	mov    0x10(%ebp),%ecx
c010350a:	8b 55 14             	mov    0x14(%ebp),%edx
c010350d:	8b 7d 18             	mov    0x18(%ebp),%edi
c0103510:	89 f0                	mov    %esi,%eax
c0103512:	88 45 f0             	mov    %al,-0x10(%ebp)
c0103515:	88 5d ec             	mov    %bl,-0x14(%ebp)
c0103518:	88 4d e8             	mov    %cl,-0x18(%ebp)
c010351b:	88 55 e4             	mov    %dl,-0x1c(%ebp)
c010351e:	66 89 7d e0          	mov    %di,-0x20(%ebp)
c0103522:	0f b6 45 f0          	movzbl -0x10(%ebp),%eax
c0103526:	c1 e0 10             	shl    $0x10,%eax
c0103529:	89 c2                	mov    %eax,%edx
c010352b:	0f b6 45 ec          	movzbl -0x14(%ebp),%eax
c010352f:	c1 e0 0b             	shl    $0xb,%eax
c0103532:	09 c2                	or     %eax,%edx
c0103534:	0f b6 45 e8          	movzbl -0x18(%ebp),%eax
c0103538:	c1 e0 08             	shl    $0x8,%eax
c010353b:	09 c2                	or     %eax,%edx
c010353d:	0f b6 45 e4          	movzbl -0x1c(%ebp),%eax
c0103541:	25 fc 00 00 00       	and    $0xfc,%eax
c0103546:	09 d0                	or     %edx,%eax
c0103548:	0d 00 00 00 80       	or     $0x80000000,%eax
c010354d:	89 44 24 04          	mov    %eax,0x4(%esp)
c0103551:	c7 04 24 f8 0c 00 00 	movl   $0xcf8,(%esp)
c0103558:	e8 a3 fd ff ff       	call   c0103300 <outl>
c010355d:	0f b7 55 e0          	movzwl -0x20(%ebp),%edx
c0103561:	0f b6 45 e4          	movzbl -0x1c(%ebp),%eax
c0103565:	83 e0 02             	and    $0x2,%eax
c0103568:	66 05 fc 0c          	add    $0xcfc,%ax
c010356c:	0f b7 c0             	movzwl %ax,%eax
c010356f:	89 54 24 04          	mov    %edx,0x4(%esp)
c0103573:	89 04 24             	mov    %eax,(%esp)
c0103576:	e8 65 fd ff ff       	call   c01032e0 <outw>
c010357b:	83 c4 1c             	add    $0x1c,%esp
c010357e:	5b                   	pop    %ebx
c010357f:	5e                   	pop    %esi
c0103580:	5f                   	pop    %edi
c0103581:	5d                   	pop    %ebp
c0103582:	c3                   	ret    

c0103583 <pci_writel>:
c0103583:	55                   	push   %ebp
c0103584:	89 e5                	mov    %esp,%ebp
c0103586:	53                   	push   %ebx
c0103587:	83 ec 18             	sub    $0x18,%esp
c010358a:	8b 5d 08             	mov    0x8(%ebp),%ebx
c010358d:	8b 4d 0c             	mov    0xc(%ebp),%ecx
c0103590:	8b 55 10             	mov    0x10(%ebp),%edx
c0103593:	8b 45 14             	mov    0x14(%ebp),%eax
c0103596:	88 5d f8             	mov    %bl,-0x8(%ebp)
c0103599:	88 4d f4             	mov    %cl,-0xc(%ebp)
c010359c:	88 55 f0             	mov    %dl,-0x10(%ebp)
c010359f:	88 45 ec             	mov    %al,-0x14(%ebp)
c01035a2:	0f b6 45 f8          	movzbl -0x8(%ebp),%eax
c01035a6:	c1 e0 10             	shl    $0x10,%eax
c01035a9:	89 c2                	mov    %eax,%edx
c01035ab:	0f b6 45 f4          	movzbl -0xc(%ebp),%eax
c01035af:	c1 e0 0b             	shl    $0xb,%eax
c01035b2:	09 c2                	or     %eax,%edx
c01035b4:	0f b6 45 f0          	movzbl -0x10(%ebp),%eax
c01035b8:	c1 e0 08             	shl    $0x8,%eax
c01035bb:	09 c2                	or     %eax,%edx
c01035bd:	0f b6 45 ec          	movzbl -0x14(%ebp),%eax
c01035c1:	25 fc 00 00 00       	and    $0xfc,%eax
c01035c6:	09 d0                	or     %edx,%eax
c01035c8:	0d 00 00 00 80       	or     $0x80000000,%eax
c01035cd:	89 44 24 04          	mov    %eax,0x4(%esp)
c01035d1:	c7 04 24 f8 0c 00 00 	movl   $0xcf8,(%esp)
c01035d8:	e8 23 fd ff ff       	call   c0103300 <outl>
c01035dd:	8b 45 18             	mov    0x18(%ebp),%eax
c01035e0:	89 44 24 04          	mov    %eax,0x4(%esp)
c01035e4:	c7 04 24 fc 0c 00 00 	movl   $0xcfc,(%esp)
c01035eb:	e8 10 fd ff ff       	call   c0103300 <outl>
c01035f0:	83 c4 18             	add    $0x18,%esp
c01035f3:	5b                   	pop    %ebx
c01035f4:	5d                   	pop    %ebp
c01035f5:	c3                   	ret    

c01035f6 <pci_dev_exist>:
c01035f6:	55                   	push   %ebp
c01035f7:	89 e5                	mov    %esp,%ebp
c01035f9:	83 ec 2c             	sub    $0x2c,%esp
c01035fc:	8b 4d 08             	mov    0x8(%ebp),%ecx
c01035ff:	8b 55 0c             	mov    0xc(%ebp),%edx
c0103602:	8b 45 10             	mov    0x10(%ebp),%eax
c0103605:	88 4d ec             	mov    %cl,-0x14(%ebp)
c0103608:	88 55 e8             	mov    %dl,-0x18(%ebp)
c010360b:	88 45 e4             	mov    %al,-0x1c(%ebp)
c010360e:	0f b6 4d e4          	movzbl -0x1c(%ebp),%ecx
c0103612:	0f b6 55 e8          	movzbl -0x18(%ebp),%edx
c0103616:	0f b6 45 ec          	movzbl -0x14(%ebp),%eax
c010361a:	c7 44 24 0c 00 00 00 	movl   $0x0,0xc(%esp)
c0103621:	00 
c0103622:	89 4c 24 08          	mov    %ecx,0x8(%esp)
c0103626:	89 54 24 04          	mov    %edx,0x4(%esp)
c010362a:	89 04 24             	mov    %eax,(%esp)
c010362d:	e8 a8 fd ff ff       	call   c01033da <pci_readw>
c0103632:	66 89 45 fe          	mov    %ax,-0x2(%ebp)
c0103636:	66 83 7d fe 00       	cmpw   $0x0,-0x2(%ebp)
c010363b:	74 07                	je     c0103644 <pci_dev_exist+0x4e>
c010363d:	66 83 7d fe ff       	cmpw   $0xffff,-0x2(%ebp)
c0103642:	75 07                	jne    c010364b <pci_dev_exist+0x55>
c0103644:	b8 00 00 00 00       	mov    $0x0,%eax
c0103649:	eb 05                	jmp    c0103650 <pci_dev_exist+0x5a>
c010364b:	b8 01 00 00 00       	mov    $0x1,%eax
c0103650:	c9                   	leave  
c0103651:	c3                   	ret    

c0103652 <pci_search_device>:
c0103652:	55                   	push   %ebp
c0103653:	89 e5                	mov    %esp,%ebp
c0103655:	83 ec 28             	sub    $0x28,%esp
c0103658:	8b 55 0c             	mov    0xc(%ebp),%edx
c010365b:	8b 45 10             	mov    0x10(%ebp),%eax
c010365e:	66 89 55 e4          	mov    %dx,-0x1c(%ebp)
c0103662:	66 89 45 e0          	mov    %ax,-0x20(%ebp)
c0103666:	90                   	nop
c0103667:	8b 45 08             	mov    0x8(%ebp),%eax
c010366a:	8b 40 08             	mov    0x8(%eax),%eax
c010366d:	85 c0                	test   %eax,%eax
c010366f:	75 f6                	jne    c0103667 <pci_search_device+0x15>
c0103671:	8b 45 08             	mov    0x8(%ebp),%eax
c0103674:	c7 40 08 01 00 00 00 	movl   $0x1,0x8(%eax)
c010367b:	8b 45 08             	mov    0x8(%ebp),%eax
c010367e:	89 04 24             	mov    %eax,(%esp)
c0103681:	e8 48 8a 00 00       	call   c010c0ce <list_set_first>
c0103686:	eb 66                	jmp    c01036ee <pci_search_device+0x9c>
c0103688:	8b 45 08             	mov    0x8(%ebp),%eax
c010368b:	89 04 24             	mov    %eax,(%esp)
c010368e:	e8 e8 89 00 00       	call   c010c07b <list_get_current>
c0103693:	89 45 f4             	mov    %eax,-0xc(%ebp)
c0103696:	83 7d 14 00          	cmpl   $0x0,0x14(%ebp)
c010369a:	75 29                	jne    c01036c5 <pci_search_device+0x73>
c010369c:	8b 45 f4             	mov    -0xc(%ebp),%eax
c010369f:	0f b7 40 08          	movzwl 0x8(%eax),%eax
c01036a3:	66 3b 45 e0          	cmp    -0x20(%ebp),%ax
c01036a7:	75 1c                	jne    c01036c5 <pci_search_device+0x73>
c01036a9:	8b 45 f4             	mov    -0xc(%ebp),%eax
c01036ac:	0f b7 40 0a          	movzwl 0xa(%eax),%eax
c01036b0:	66 3b 45 e4          	cmp    -0x1c(%ebp),%ax
c01036b4:	75 0f                	jne    c01036c5 <pci_search_device+0x73>
c01036b6:	8b 45 08             	mov    0x8(%ebp),%eax
c01036b9:	c7 40 08 00 00 00 00 	movl   $0x0,0x8(%eax)
c01036c0:	8b 45 f4             	mov    -0xc(%ebp),%eax
c01036c3:	eb 47                	jmp    c010370c <pci_search_device+0xba>
c01036c5:	8b 45 f4             	mov    -0xc(%ebp),%eax
c01036c8:	0f b7 40 08          	movzwl 0x8(%eax),%eax
c01036cc:	66 3b 45 e0          	cmp    -0x20(%ebp),%ax
c01036d0:	75 11                	jne    c01036e3 <pci_search_device+0x91>
c01036d2:	8b 45 f4             	mov    -0xc(%ebp),%eax
c01036d5:	0f b7 40 0a          	movzwl 0xa(%eax),%eax
c01036d9:	66 3b 45 e4          	cmp    -0x1c(%ebp),%ax
c01036dd:	75 04                	jne    c01036e3 <pci_search_device+0x91>
c01036df:	83 6d 14 01          	subl   $0x1,0x14(%ebp)
c01036e3:	8b 45 08             	mov    0x8(%ebp),%eax
c01036e6:	89 04 24             	mov    %eax,(%esp)
c01036e9:	e8 9b 89 00 00       	call   c010c089 <list_next>
c01036ee:	8b 45 08             	mov    0x8(%ebp),%eax
c01036f1:	89 04 24             	mov    %eax,(%esp)
c01036f4:	e8 bd 89 00 00       	call   c010c0b6 <list_is_last>
c01036f9:	85 c0                	test   %eax,%eax
c01036fb:	74 8b                	je     c0103688 <pci_search_device+0x36>
c01036fd:	8b 45 08             	mov    0x8(%ebp),%eax
c0103700:	c7 40 08 00 00 00 00 	movl   $0x0,0x8(%eax)
c0103707:	b8 00 00 00 00       	mov    $0x0,%eax
c010370c:	c9                   	leave  
c010370d:	c3                   	ret    

c010370e <pci_install_isr>:
c010370e:	55                   	push   %ebp
c010370f:	89 e5                	mov    %esp,%ebp
c0103711:	83 ec 28             	sub    $0x28,%esp
c0103714:	90                   	nop
c0103715:	a1 1c 60 11 c0       	mov    0xc011601c,%eax
c010371a:	8b 40 08             	mov    0x8(%eax),%eax
c010371d:	85 c0                	test   %eax,%eax
c010371f:	75 f4                	jne    c0103715 <pci_install_isr+0x7>
c0103721:	a1 1c 60 11 c0       	mov    0xc011601c,%eax
c0103726:	c7 40 08 01 00 00 00 	movl   $0x1,0x8(%eax)
c010372d:	c7 04 24 08 00 00 00 	movl   $0x8,(%esp)
c0103734:	e8 6a e9 ff ff       	call   c01020a3 <malloc>
c0103739:	89 45 f4             	mov    %eax,-0xc(%ebp)
c010373c:	8b 45 f4             	mov    -0xc(%ebp),%eax
c010373f:	8b 55 08             	mov    0x8(%ebp),%edx
c0103742:	89 10                	mov    %edx,(%eax)
c0103744:	8b 45 f4             	mov    -0xc(%ebp),%eax
c0103747:	8b 55 0c             	mov    0xc(%ebp),%edx
c010374a:	89 50 04             	mov    %edx,0x4(%eax)
c010374d:	a1 1c 60 11 c0       	mov    0xc011601c,%eax
c0103752:	8b 55 f4             	mov    -0xc(%ebp),%edx
c0103755:	89 54 24 04          	mov    %edx,0x4(%esp)
c0103759:	89 04 24             	mov    %eax,(%esp)
c010375c:	e8 26 87 00 00       	call   c010be87 <list_push_front>
c0103761:	a1 1c 60 11 c0       	mov    0xc011601c,%eax
c0103766:	c7 40 08 00 00 00 00 	movl   $0x0,0x8(%eax)
c010376d:	c9                   	leave  
c010376e:	c3                   	ret    

c010376f <pci_deinstall_isr>:
c010376f:	55                   	push   %ebp
c0103770:	89 e5                	mov    %esp,%ebp
c0103772:	83 ec 28             	sub    $0x28,%esp
c0103775:	90                   	nop
c0103776:	a1 1c 60 11 c0       	mov    0xc011601c,%eax
c010377b:	8b 40 08             	mov    0x8(%eax),%eax
c010377e:	85 c0                	test   %eax,%eax
c0103780:	75 f4                	jne    c0103776 <pci_deinstall_isr+0x7>
c0103782:	a1 1c 60 11 c0       	mov    0xc011601c,%eax
c0103787:	c7 40 08 01 00 00 00 	movl   $0x1,0x8(%eax)
c010378e:	c7 45 f4 00 00 00 00 	movl   $0x0,-0xc(%ebp)
c0103795:	a1 1c 60 11 c0       	mov    0xc011601c,%eax
c010379a:	89 04 24             	mov    %eax,(%esp)
c010379d:	e8 2c 89 00 00       	call   c010c0ce <list_set_first>
c01037a2:	eb 52                	jmp    c01037f6 <pci_deinstall_isr+0x87>
c01037a4:	a1 1c 60 11 c0       	mov    0xc011601c,%eax
c01037a9:	89 04 24             	mov    %eax,(%esp)
c01037ac:	e8 ca 88 00 00       	call   c010c07b <list_get_current>
c01037b1:	89 45 f0             	mov    %eax,-0x10(%ebp)
c01037b4:	8b 45 f0             	mov    -0x10(%ebp),%eax
c01037b7:	8b 00                	mov    (%eax),%eax
c01037b9:	3b 45 08             	cmp    0x8(%ebp),%eax
c01037bc:	75 2b                	jne    c01037e9 <pci_deinstall_isr+0x7a>
c01037be:	8b 45 f0             	mov    -0x10(%ebp),%eax
c01037c1:	8b 40 04             	mov    0x4(%eax),%eax
c01037c4:	3b 45 0c             	cmp    0xc(%ebp),%eax
c01037c7:	75 20                	jne    c01037e9 <pci_deinstall_isr+0x7a>
c01037c9:	a1 1c 60 11 c0       	mov    0xc011601c,%eax
c01037ce:	89 04 24             	mov    %eax,(%esp)
c01037d1:	e8 18 88 00 00       	call   c010bfee <list_remove>
c01037d6:	a1 1c 60 11 c0       	mov    0xc011601c,%eax
c01037db:	89 04 24             	mov    %eax,(%esp)
c01037de:	e8 eb 88 00 00       	call   c010c0ce <list_set_first>
c01037e3:	83 45 f4 01          	addl   $0x1,-0xc(%ebp)
c01037e7:	eb 0d                	jmp    c01037f6 <pci_deinstall_isr+0x87>
c01037e9:	a1 1c 60 11 c0       	mov    0xc011601c,%eax
c01037ee:	89 04 24             	mov    %eax,(%esp)
c01037f1:	e8 93 88 00 00       	call   c010c089 <list_next>
c01037f6:	a1 1c 60 11 c0       	mov    0xc011601c,%eax
c01037fb:	89 04 24             	mov    %eax,(%esp)
c01037fe:	e8 b3 88 00 00       	call   c010c0b6 <list_is_last>
c0103803:	85 c0                	test   %eax,%eax
c0103805:	74 9d                	je     c01037a4 <pci_deinstall_isr+0x35>
c0103807:	a1 1c 60 11 c0       	mov    0xc011601c,%eax
c010380c:	c7 40 08 00 00 00 00 	movl   $0x0,0x8(%eax)
c0103813:	8b 45 f4             	mov    -0xc(%ebp),%eax
c0103816:	c9                   	leave  
c0103817:	c3                   	ret    

c0103818 <pci_irq_handler>:
c0103818:	55                   	push   %ebp
c0103819:	89 e5                	mov    %esp,%ebp
c010381b:	53                   	push   %ebx
c010381c:	83 ec 34             	sub    $0x34,%esp
c010381f:	a1 20 60 11 c0       	mov    0xc0116020,%eax
c0103824:	8b 00                	mov    (%eax),%eax
c0103826:	89 45 f4             	mov    %eax,-0xc(%ebp)
c0103829:	a1 20 60 11 c0       	mov    0xc0116020,%eax
c010382e:	89 04 24             	mov    %eax,(%esp)
c0103831:	e8 98 88 00 00       	call   c010c0ce <list_set_first>
c0103836:	e9 fd 00 00 00       	jmp    c0103938 <pci_irq_handler+0x120>
c010383b:	a1 20 60 11 c0       	mov    0xc0116020,%eax
c0103840:	89 04 24             	mov    %eax,(%esp)
c0103843:	e8 33 88 00 00       	call   c010c07b <list_get_current>
c0103848:	89 45 f0             	mov    %eax,-0x10(%ebp)
c010384b:	8b 45 f0             	mov    -0x10(%ebp),%eax
c010384e:	0f b6 40 02          	movzbl 0x2(%eax),%eax
c0103852:	0f b6 c8             	movzbl %al,%ecx
c0103855:	8b 45 f0             	mov    -0x10(%ebp),%eax
c0103858:	0f b6 40 01          	movzbl 0x1(%eax),%eax
c010385c:	0f b6 d0             	movzbl %al,%edx
c010385f:	8b 45 f0             	mov    -0x10(%ebp),%eax
c0103862:	0f b6 00             	movzbl (%eax),%eax
c0103865:	0f b6 c0             	movzbl %al,%eax
c0103868:	c7 44 24 0c 06 00 00 	movl   $0x6,0xc(%esp)
c010386f:	00 
c0103870:	89 4c 24 08          	mov    %ecx,0x8(%esp)
c0103874:	89 54 24 04          	mov    %edx,0x4(%esp)
c0103878:	89 04 24             	mov    %eax,(%esp)
c010387b:	e8 5a fb ff ff       	call   c01033da <pci_readw>
c0103880:	66 89 45 ee          	mov    %ax,-0x12(%ebp)
c0103884:	0f b7 45 ee          	movzwl -0x12(%ebp),%eax
c0103888:	83 e0 08             	and    $0x8,%eax
c010388b:	85 c0                	test   %eax,%eax
c010388d:	0f 84 98 00 00 00    	je     c010392b <pci_irq_handler+0x113>
c0103893:	a1 1c 60 11 c0       	mov    0xc011601c,%eax
c0103898:	89 04 24             	mov    %eax,(%esp)
c010389b:	e8 2e 88 00 00       	call   c010c0ce <list_set_first>
c01038a0:	eb 35                	jmp    c01038d7 <pci_irq_handler+0xbf>
c01038a2:	a1 1c 60 11 c0       	mov    0xc011601c,%eax
c01038a7:	89 04 24             	mov    %eax,(%esp)
c01038aa:	e8 cc 87 00 00       	call   c010c07b <list_get_current>
c01038af:	89 45 e8             	mov    %eax,-0x18(%ebp)
c01038b2:	8b 45 e8             	mov    -0x18(%ebp),%eax
c01038b5:	8b 40 04             	mov    0x4(%eax),%eax
c01038b8:	3b 45 f0             	cmp    -0x10(%ebp),%eax
c01038bb:	75 0d                	jne    c01038ca <pci_irq_handler+0xb2>
c01038bd:	8b 45 e8             	mov    -0x18(%ebp),%eax
c01038c0:	8b 00                	mov    (%eax),%eax
c01038c2:	8b 55 f0             	mov    -0x10(%ebp),%edx
c01038c5:	89 14 24             	mov    %edx,(%esp)
c01038c8:	ff d0                	call   *%eax
c01038ca:	a1 1c 60 11 c0       	mov    0xc011601c,%eax
c01038cf:	89 04 24             	mov    %eax,(%esp)
c01038d2:	e8 b2 87 00 00       	call   c010c089 <list_next>
c01038d7:	a1 1c 60 11 c0       	mov    0xc011601c,%eax
c01038dc:	89 04 24             	mov    %eax,(%esp)
c01038df:	e8 d2 87 00 00       	call   c010c0b6 <list_is_last>
c01038e4:	85 c0                	test   %eax,%eax
c01038e6:	74 ba                	je     c01038a2 <pci_irq_handler+0x8a>
c01038e8:	0f b7 45 ee          	movzwl -0x12(%ebp),%eax
c01038ec:	83 f0 01             	xor    $0x1,%eax
c01038ef:	0f b7 d8             	movzwl %ax,%ebx
c01038f2:	8b 45 f0             	mov    -0x10(%ebp),%eax
c01038f5:	0f b6 40 02          	movzbl 0x2(%eax),%eax
c01038f9:	0f b6 c8             	movzbl %al,%ecx
c01038fc:	8b 45 f0             	mov    -0x10(%ebp),%eax
c01038ff:	0f b6 40 01          	movzbl 0x1(%eax),%eax
c0103903:	0f b6 d0             	movzbl %al,%edx
c0103906:	8b 45 f0             	mov    -0x10(%ebp),%eax
c0103909:	0f b6 00             	movzbl (%eax),%eax
c010390c:	0f b6 c0             	movzbl %al,%eax
c010390f:	89 5c 24 10          	mov    %ebx,0x10(%esp)
c0103913:	c7 44 24 0c 06 00 00 	movl   $0x6,0xc(%esp)
c010391a:	00 
c010391b:	89 4c 24 08          	mov    %ecx,0x8(%esp)
c010391f:	89 54 24 04          	mov    %edx,0x4(%esp)
c0103923:	89 04 24             	mov    %eax,(%esp)
c0103926:	e8 58 fc ff ff       	call   c0103583 <pci_writel>
c010392b:	a1 20 60 11 c0       	mov    0xc0116020,%eax
c0103930:	89 04 24             	mov    %eax,(%esp)
c0103933:	e8 51 87 00 00       	call   c010c089 <list_next>
c0103938:	a1 20 60 11 c0       	mov    0xc0116020,%eax
c010393d:	89 04 24             	mov    %eax,(%esp)
c0103940:	e8 71 87 00 00       	call   c010c0b6 <list_is_last>
c0103945:	85 c0                	test   %eax,%eax
c0103947:	0f 84 ee fe ff ff    	je     c010383b <pci_irq_handler+0x23>
c010394d:	a1 20 60 11 c0       	mov    0xc0116020,%eax
c0103952:	8b 55 f4             	mov    -0xc(%ebp),%edx
c0103955:	89 10                	mov    %edx,(%eax)
c0103957:	83 c4 34             	add    $0x34,%esp
c010395a:	5b                   	pop    %ebx
c010395b:	5d                   	pop    %ebp
c010395c:	c3                   	ret    

c010395d <INIT_PCI>:
c010395d:	55                   	push   %ebp
c010395e:	89 e5                	mov    %esp,%ebp
c0103960:	57                   	push   %edi
c0103961:	56                   	push   %esi
c0103962:	53                   	push   %ebx
c0103963:	83 ec 5c             	sub    $0x5c,%esp
c0103966:	c7 04 24 41 e2 10 c0 	movl   $0xc010e241,(%esp)
c010396d:	e8 4c 07 00 00       	call   c01040be <puts>
c0103972:	a1 20 60 11 c0       	mov    0xc0116020,%eax
c0103977:	85 c0                	test   %eax,%eax
c0103979:	75 0a                	jne    c0103985 <INIT_PCI+0x28>
c010397b:	e8 bd 83 00 00       	call   c010bd3d <list_create>
c0103980:	a3 20 60 11 c0       	mov    %eax,0xc0116020
c0103985:	a1 1c 60 11 c0       	mov    0xc011601c,%eax
c010398a:	85 c0                	test   %eax,%eax
c010398c:	75 0a                	jne    c0103998 <INIT_PCI+0x3b>
c010398e:	e8 aa 83 00 00       	call   c010bd3d <list_create>
c0103993:	a3 1c 60 11 c0       	mov    %eax,0xc011601c
c0103998:	a1 20 60 11 c0       	mov    0xc0116020,%eax
c010399d:	c7 40 08 01 00 00 00 	movl   $0x1,0x8(%eax)
c01039a4:	c7 45 e0 00 00 00 00 	movl   $0x0,-0x20(%ebp)
c01039ab:	e9 85 05 00 00       	jmp    c0103f35 <INIT_PCI+0x5d8>
c01039b0:	c7 45 e4 00 00 00 00 	movl   $0x0,-0x1c(%ebp)
c01039b7:	e9 6b 05 00 00       	jmp    c0103f27 <INIT_PCI+0x5ca>
c01039bc:	c7 45 dc 00 00 00 00 	movl   $0x0,-0x24(%ebp)
c01039c3:	e9 51 05 00 00       	jmp    c0103f19 <INIT_PCI+0x5bc>
c01039c8:	8b 45 dc             	mov    -0x24(%ebp),%eax
c01039cb:	0f b6 c8             	movzbl %al,%ecx
c01039ce:	8b 45 e4             	mov    -0x1c(%ebp),%eax
c01039d1:	0f b6 d0             	movzbl %al,%edx
c01039d4:	8b 45 e0             	mov    -0x20(%ebp),%eax
c01039d7:	0f b6 c0             	movzbl %al,%eax
c01039da:	89 4c 24 08          	mov    %ecx,0x8(%esp)
c01039de:	89 54 24 04          	mov    %edx,0x4(%esp)
c01039e2:	89 04 24             	mov    %eax,(%esp)
c01039e5:	e8 0c fc ff ff       	call   c01035f6 <pci_dev_exist>
c01039ea:	85 c0                	test   %eax,%eax
c01039ec:	0f 84 23 05 00 00    	je     c0103f15 <INIT_PCI+0x5b8>
c01039f2:	8b 45 dc             	mov    -0x24(%ebp),%eax
c01039f5:	0f b6 c8             	movzbl %al,%ecx
c01039f8:	8b 45 e4             	mov    -0x1c(%ebp),%eax
c01039fb:	0f b6 d0             	movzbl %al,%edx
c01039fe:	8b 45 e0             	mov    -0x20(%ebp),%eax
c0103a01:	0f b6 c0             	movzbl %al,%eax
c0103a04:	c7 44 24 0c 0e 00 00 	movl   $0xe,0xc(%esp)
c0103a0b:	00 
c0103a0c:	89 4c 24 08          	mov    %ecx,0x8(%esp)
c0103a10:	89 54 24 04          	mov    %edx,0x4(%esp)
c0103a14:	89 04 24             	mov    %eax,(%esp)
c0103a17:	e8 75 f9 ff ff       	call   c0103391 <pci_readb>
c0103a1c:	c0 e8 07             	shr    $0x7,%al
c0103a1f:	0f b6 c0             	movzbl %al,%eax
c0103a22:	89 45 d0             	mov    %eax,-0x30(%ebp)
c0103a25:	83 7d dc 00          	cmpl   $0x0,-0x24(%ebp)
c0103a29:	74 0b                	je     c0103a36 <INIT_PCI+0xd9>
c0103a2b:	83 7d d0 00          	cmpl   $0x0,-0x30(%ebp)
c0103a2f:	75 05                	jne    c0103a36 <INIT_PCI+0xd9>
c0103a31:	e9 df 04 00 00       	jmp    c0103f15 <INIT_PCI+0x5b8>
c0103a36:	c7 04 24 60 00 00 00 	movl   $0x60,(%esp)
c0103a3d:	e8 61 e6 ff ff       	call   c01020a3 <malloc>
c0103a42:	89 45 cc             	mov    %eax,-0x34(%ebp)
c0103a45:	8b 45 e0             	mov    -0x20(%ebp),%eax
c0103a48:	89 c2                	mov    %eax,%edx
c0103a4a:	8b 45 cc             	mov    -0x34(%ebp),%eax
c0103a4d:	88 10                	mov    %dl,(%eax)
c0103a4f:	8b 45 e4             	mov    -0x1c(%ebp),%eax
c0103a52:	89 c2                	mov    %eax,%edx
c0103a54:	8b 45 cc             	mov    -0x34(%ebp),%eax
c0103a57:	88 50 01             	mov    %dl,0x1(%eax)
c0103a5a:	8b 45 dc             	mov    -0x24(%ebp),%eax
c0103a5d:	89 c2                	mov    %eax,%edx
c0103a5f:	8b 45 cc             	mov    -0x34(%ebp),%eax
c0103a62:	88 50 02             	mov    %dl,0x2(%eax)
c0103a65:	8b 45 e4             	mov    -0x1c(%ebp),%eax
c0103a68:	0f b6 d0             	movzbl %al,%edx
c0103a6b:	8b 45 e0             	mov    -0x20(%ebp),%eax
c0103a6e:	0f b6 c0             	movzbl %al,%eax
c0103a71:	c7 44 24 0c 08 00 00 	movl   $0x8,0xc(%esp)
c0103a78:	00 
c0103a79:	c7 44 24 08 00 00 00 	movl   $0x0,0x8(%esp)
c0103a80:	00 
c0103a81:	89 54 24 04          	mov    %edx,0x4(%esp)
c0103a85:	89 04 24             	mov    %eax,(%esp)
c0103a88:	e8 96 f9 ff ff       	call   c0103423 <pci_readl>
c0103a8d:	89 45 c8             	mov    %eax,-0x38(%ebp)
c0103a90:	8b 45 c8             	mov    -0x38(%ebp),%eax
c0103a93:	89 c2                	mov    %eax,%edx
c0103a95:	8b 45 cc             	mov    -0x34(%ebp),%eax
c0103a98:	88 50 0c             	mov    %dl,0xc(%eax)
c0103a9b:	8b 45 c8             	mov    -0x38(%ebp),%eax
c0103a9e:	c1 e8 08             	shr    $0x8,%eax
c0103aa1:	89 c2                	mov    %eax,%edx
c0103aa3:	8b 45 cc             	mov    -0x34(%ebp),%eax
c0103aa6:	88 50 0f             	mov    %dl,0xf(%eax)
c0103aa9:	8b 45 c8             	mov    -0x38(%ebp),%eax
c0103aac:	c1 e8 10             	shr    $0x10,%eax
c0103aaf:	89 c2                	mov    %eax,%edx
c0103ab1:	8b 45 cc             	mov    -0x34(%ebp),%eax
c0103ab4:	88 50 0e             	mov    %dl,0xe(%eax)
c0103ab7:	8b 45 c8             	mov    -0x38(%ebp),%eax
c0103aba:	c1 e8 18             	shr    $0x18,%eax
c0103abd:	89 c2                	mov    %eax,%edx
c0103abf:	8b 45 cc             	mov    -0x34(%ebp),%eax
c0103ac2:	88 50 0d             	mov    %dl,0xd(%eax)
c0103ac5:	8b 45 dc             	mov    -0x24(%ebp),%eax
c0103ac8:	0f b6 c8             	movzbl %al,%ecx
c0103acb:	8b 45 e4             	mov    -0x1c(%ebp),%eax
c0103ace:	0f b6 d0             	movzbl %al,%edx
c0103ad1:	8b 45 e0             	mov    -0x20(%ebp),%eax
c0103ad4:	0f b6 c0             	movzbl %al,%eax
c0103ad7:	c7 44 24 0c 02 00 00 	movl   $0x2,0xc(%esp)
c0103ade:	00 
c0103adf:	89 4c 24 08          	mov    %ecx,0x8(%esp)
c0103ae3:	89 54 24 04          	mov    %edx,0x4(%esp)
c0103ae7:	89 04 24             	mov    %eax,(%esp)
c0103aea:	e8 eb f8 ff ff       	call   c01033da <pci_readw>
c0103aef:	8b 55 cc             	mov    -0x34(%ebp),%edx
c0103af2:	66 89 42 08          	mov    %ax,0x8(%edx)
c0103af6:	8b 45 dc             	mov    -0x24(%ebp),%eax
c0103af9:	0f b6 c8             	movzbl %al,%ecx
c0103afc:	8b 45 e4             	mov    -0x1c(%ebp),%eax
c0103aff:	0f b6 d0             	movzbl %al,%edx
c0103b02:	8b 45 e0             	mov    -0x20(%ebp),%eax
c0103b05:	0f b6 c0             	movzbl %al,%eax
c0103b08:	c7 44 24 0c 00 00 00 	movl   $0x0,0xc(%esp)
c0103b0f:	00 
c0103b10:	89 4c 24 08          	mov    %ecx,0x8(%esp)
c0103b14:	89 54 24 04          	mov    %edx,0x4(%esp)
c0103b18:	89 04 24             	mov    %eax,(%esp)
c0103b1b:	e8 ba f8 ff ff       	call   c01033da <pci_readw>
c0103b20:	8b 55 cc             	mov    -0x34(%ebp),%edx
c0103b23:	66 89 42 0a          	mov    %ax,0xa(%edx)
c0103b27:	8b 45 e4             	mov    -0x1c(%ebp),%eax
c0103b2a:	0f b6 d0             	movzbl %al,%edx
c0103b2d:	8b 45 e0             	mov    -0x20(%ebp),%eax
c0103b30:	0f b6 c0             	movzbl %al,%eax
c0103b33:	c7 44 24 0c 0e 00 00 	movl   $0xe,0xc(%esp)
c0103b3a:	00 
c0103b3b:	c7 44 24 08 00 00 00 	movl   $0x0,0x8(%esp)
c0103b42:	00 
c0103b43:	89 54 24 04          	mov    %edx,0x4(%esp)
c0103b47:	89 04 24             	mov    %eax,(%esp)
c0103b4a:	e8 42 f8 ff ff       	call   c0103391 <pci_readb>
c0103b4f:	83 e0 7f             	and    $0x7f,%eax
c0103b52:	89 c2                	mov    %eax,%edx
c0103b54:	8b 45 cc             	mov    -0x34(%ebp),%eax
c0103b57:	88 50 14             	mov    %dl,0x14(%eax)
c0103b5a:	8b 45 cc             	mov    -0x34(%ebp),%eax
c0103b5d:	8b 55 d0             	mov    -0x30(%ebp),%edx
c0103b60:	89 50 10             	mov    %edx,0x10(%eax)
c0103b63:	8b 45 dc             	mov    -0x24(%ebp),%eax
c0103b66:	0f b6 c8             	movzbl %al,%ecx
c0103b69:	8b 45 e4             	mov    -0x1c(%ebp),%eax
c0103b6c:	0f b6 d0             	movzbl %al,%edx
c0103b6f:	8b 45 e0             	mov    -0x20(%ebp),%eax
c0103b72:	0f b6 c0             	movzbl %al,%eax
c0103b75:	c7 44 24 0c 3c 00 00 	movl   $0x3c,0xc(%esp)
c0103b7c:	00 
c0103b7d:	89 4c 24 08          	mov    %ecx,0x8(%esp)
c0103b81:	89 54 24 04          	mov    %edx,0x4(%esp)
c0103b85:	89 04 24             	mov    %eax,(%esp)
c0103b88:	e8 96 f8 ff ff       	call   c0103423 <pci_readl>
c0103b8d:	89 45 c4             	mov    %eax,-0x3c(%ebp)
c0103b90:	8b 45 c4             	mov    -0x3c(%ebp),%eax
c0103b93:	89 c2                	mov    %eax,%edx
c0103b95:	8b 45 cc             	mov    -0x34(%ebp),%eax
c0103b98:	88 50 15             	mov    %dl,0x15(%eax)
c0103b9b:	8b 45 c4             	mov    -0x3c(%ebp),%eax
c0103b9e:	c1 e8 08             	shr    $0x8,%eax
c0103ba1:	89 c2                	mov    %eax,%edx
c0103ba3:	8b 45 cc             	mov    -0x34(%ebp),%eax
c0103ba6:	88 50 16             	mov    %dl,0x16(%eax)
c0103ba9:	8b 45 cc             	mov    -0x34(%ebp),%eax
c0103bac:	c7 40 04 00 00 00 00 	movl   $0x0,0x4(%eax)
c0103bb3:	8b 45 cc             	mov    -0x34(%ebp),%eax
c0103bb6:	0f b6 40 15          	movzbl 0x15(%eax),%eax
c0103bba:	0f b6 f8             	movzbl %al,%edi
c0103bbd:	8b 45 cc             	mov    -0x34(%ebp),%eax
c0103bc0:	0f b6 40 02          	movzbl 0x2(%eax),%eax
c0103bc4:	0f b6 f0             	movzbl %al,%esi
c0103bc7:	8b 45 cc             	mov    -0x34(%ebp),%eax
c0103bca:	0f b6 40 01          	movzbl 0x1(%eax),%eax
c0103bce:	0f b6 d8             	movzbl %al,%ebx
c0103bd1:	8b 45 cc             	mov    -0x34(%ebp),%eax
c0103bd4:	0f b6 00             	movzbl (%eax),%eax
c0103bd7:	0f b6 c8             	movzbl %al,%ecx
c0103bda:	8b 45 cc             	mov    -0x34(%ebp),%eax
c0103bdd:	0f b7 40 0a          	movzwl 0xa(%eax),%eax
c0103be1:	0f b7 d0             	movzwl %ax,%edx
c0103be4:	8b 45 cc             	mov    -0x34(%ebp),%eax
c0103be7:	0f b7 40 08          	movzwl 0x8(%eax),%eax
c0103beb:	0f b7 c0             	movzwl %ax,%eax
c0103bee:	89 7c 24 18          	mov    %edi,0x18(%esp)
c0103bf2:	89 74 24 14          	mov    %esi,0x14(%esp)
c0103bf6:	89 5c 24 10          	mov    %ebx,0x10(%esp)
c0103bfa:	89 4c 24 0c          	mov    %ecx,0xc(%esp)
c0103bfe:	89 54 24 08          	mov    %edx,0x8(%esp)
c0103c02:	89 44 24 04          	mov    %eax,0x4(%esp)
c0103c06:	c7 04 24 50 e2 10 c0 	movl   $0xc010e250,(%esp)
c0103c0d:	e8 39 7c 00 00       	call   c010b84b <printf>
c0103c12:	8b 45 cc             	mov    -0x34(%ebp),%eax
c0103c15:	0f b6 40 15          	movzbl 0x15(%eax),%eax
c0103c19:	3c 0f                	cmp    $0xf,%al
c0103c1b:	0f 87 fd 00 00 00    	ja     c0103d1e <INIT_PCI+0x3c1>
c0103c21:	8b 45 cc             	mov    -0x34(%ebp),%eax
c0103c24:	0f b6 40 16          	movzbl 0x16(%eax),%eax
c0103c28:	84 c0                	test   %al,%al
c0103c2a:	0f 84 ee 00 00 00    	je     c0103d1e <INIT_PCI+0x3c1>
c0103c30:	8b 45 cc             	mov    -0x34(%ebp),%eax
c0103c33:	0f b6 40 15          	movzbl 0x15(%eax),%eax
c0103c37:	84 c0                	test   %al,%al
c0103c39:	0f 84 df 00 00 00    	je     c0103d1e <INIT_PCI+0x3c1>
c0103c3f:	8b 45 cc             	mov    -0x34(%ebp),%eax
c0103c42:	0f b6 40 15          	movzbl 0x15(%eax),%eax
c0103c46:	0f b6 c0             	movzbl %al,%eax
c0103c49:	c7 44 24 04 18 38 10 	movl   $0xc0103818,0x4(%esp)
c0103c50:	c0 
c0103c51:	89 04 24             	mov    %eax,(%esp)
c0103c54:	e8 e8 58 00 00       	call   c0109541 <install_irq>
c0103c59:	85 c0                	test   %eax,%eax
c0103c5b:	0f 85 bd 00 00 00    	jne    c0103d1e <INIT_PCI+0x3c1>
c0103c61:	c7 04 24 04 00 00 00 	movl   $0x4,(%esp)
c0103c68:	e8 30 05 00 00       	call   c010419d <set_color>
c0103c6d:	c7 04 24 a0 e2 10 c0 	movl   $0xc010e2a0,(%esp)
c0103c74:	e8 d2 7b 00 00       	call   c010b84b <printf>
c0103c79:	c7 04 24 0f 00 00 00 	movl   $0xf,(%esp)
c0103c80:	e8 18 05 00 00       	call   c010419d <set_color>
c0103c85:	8b 45 cc             	mov    -0x34(%ebp),%eax
c0103c88:	0f b6 40 15          	movzbl 0x15(%eax),%eax
c0103c8c:	0f b6 c0             	movzbl %al,%eax
c0103c8f:	8b 55 dc             	mov    -0x24(%ebp),%edx
c0103c92:	89 54 24 10          	mov    %edx,0x10(%esp)
c0103c96:	8b 55 e4             	mov    -0x1c(%ebp),%edx
c0103c99:	89 54 24 0c          	mov    %edx,0xc(%esp)
c0103c9d:	8b 55 e0             	mov    -0x20(%ebp),%edx
c0103ca0:	89 54 24 08          	mov    %edx,0x8(%esp)
c0103ca4:	89 44 24 04          	mov    %eax,0x4(%esp)
c0103ca8:	c7 04 24 ac e2 10 c0 	movl   $0xc010e2ac,(%esp)
c0103caf:	e8 97 7b 00 00       	call   c010b84b <printf>
c0103cb4:	c7 04 24 04 00 00 00 	movl   $0x4,(%esp)
c0103cbb:	e8 dd 04 00 00       	call   c010419d <set_color>
c0103cc0:	c7 04 24 a0 e2 10 c0 	movl   $0xc010e2a0,(%esp)
c0103cc7:	e8 7f 7b 00 00       	call   c010b84b <printf>
c0103ccc:	c7 04 24 0f 00 00 00 	movl   $0xf,(%esp)
c0103cd3:	e8 c5 04 00 00       	call   c010419d <set_color>
c0103cd8:	8b 45 cc             	mov    -0x34(%ebp),%eax
c0103cdb:	0f b6 40 15          	movzbl 0x15(%eax),%eax
c0103cdf:	0f b6 c0             	movzbl %al,%eax
c0103ce2:	89 44 24 04          	mov    %eax,0x4(%esp)
c0103ce6:	c7 04 24 e0 e2 10 c0 	movl   $0xc010e2e0,(%esp)
c0103ced:	e8 59 7b 00 00       	call   c010b84b <printf>
c0103cf2:	8b 45 cc             	mov    -0x34(%ebp),%eax
c0103cf5:	0f b6 40 15          	movzbl 0x15(%eax),%eax
c0103cf9:	0f b6 c0             	movzbl %al,%eax
c0103cfc:	89 04 24             	mov    %eax,(%esp)
c0103cff:	e8 95 58 00 00       	call   c0109599 <deinstall_irq>
c0103d04:	8b 45 cc             	mov    -0x34(%ebp),%eax
c0103d07:	0f b6 40 15          	movzbl 0x15(%eax),%eax
c0103d0b:	0f b6 c0             	movzbl %al,%eax
c0103d0e:	c7 44 24 04 18 38 10 	movl   $0xc0103818,0x4(%esp)
c0103d15:	c0 
c0103d16:	89 04 24             	mov    %eax,(%esp)
c0103d19:	e8 23 58 00 00       	call   c0109541 <install_irq>
c0103d1e:	8b 45 cc             	mov    -0x34(%ebp),%eax
c0103d21:	0f b6 40 14          	movzbl 0x14(%eax),%eax
c0103d25:	84 c0                	test   %al,%al
c0103d27:	0f 85 d4 01 00 00    	jne    c0103f01 <INIT_PCI+0x5a4>
c0103d2d:	c7 45 d8 00 00 00 00 	movl   $0x0,-0x28(%ebp)
c0103d34:	e9 be 01 00 00       	jmp    c0103ef7 <INIT_PCI+0x59a>
c0103d39:	8b 45 d8             	mov    -0x28(%ebp),%eax
c0103d3c:	83 c0 04             	add    $0x4,%eax
c0103d3f:	c1 e0 02             	shl    $0x2,%eax
c0103d42:	0f b6 d8             	movzbl %al,%ebx
c0103d45:	8b 45 dc             	mov    -0x24(%ebp),%eax
c0103d48:	0f b6 c8             	movzbl %al,%ecx
c0103d4b:	8b 45 e4             	mov    -0x1c(%ebp),%eax
c0103d4e:	0f b6 d0             	movzbl %al,%edx
c0103d51:	8b 45 e0             	mov    -0x20(%ebp),%eax
c0103d54:	0f b6 c0             	movzbl %al,%eax
c0103d57:	89 5c 24 0c          	mov    %ebx,0xc(%esp)
c0103d5b:	89 4c 24 08          	mov    %ecx,0x8(%esp)
c0103d5f:	89 54 24 04          	mov    %edx,0x4(%esp)
c0103d63:	89 04 24             	mov    %eax,(%esp)
c0103d66:	e8 b8 f6 ff ff       	call   c0103423 <pci_readl>
c0103d6b:	89 45 c0             	mov    %eax,-0x40(%ebp)
c0103d6e:	8b 45 c0             	mov    -0x40(%ebp),%eax
c0103d71:	83 e0 01             	and    $0x1,%eax
c0103d74:	89 c1                	mov    %eax,%ecx
c0103d76:	8b 5d cc             	mov    -0x34(%ebp),%ebx
c0103d79:	8b 55 d8             	mov    -0x28(%ebp),%edx
c0103d7c:	89 d0                	mov    %edx,%eax
c0103d7e:	01 c0                	add    %eax,%eax
c0103d80:	01 d0                	add    %edx,%eax
c0103d82:	c1 e0 02             	shl    $0x2,%eax
c0103d85:	01 d8                	add    %ebx,%eax
c0103d87:	83 c0 1c             	add    $0x1c,%eax
c0103d8a:	89 08                	mov    %ecx,(%eax)
c0103d8c:	8b 45 c0             	mov    -0x40(%ebp),%eax
c0103d8f:	83 e0 fe             	and    $0xfffffffe,%eax
c0103d92:	89 c1                	mov    %eax,%ecx
c0103d94:	8b 5d cc             	mov    -0x34(%ebp),%ebx
c0103d97:	8b 55 d8             	mov    -0x28(%ebp),%edx
c0103d9a:	89 d0                	mov    %edx,%eax
c0103d9c:	01 c0                	add    %eax,%eax
c0103d9e:	01 d0                	add    %edx,%eax
c0103da0:	c1 e0 02             	shl    $0x2,%eax
c0103da3:	01 d8                	add    %ebx,%eax
c0103da5:	83 c0 18             	add    $0x18,%eax
c0103da8:	89 08                	mov    %ecx,(%eax)
c0103daa:	8b 45 d8             	mov    -0x28(%ebp),%eax
c0103dad:	83 c0 04             	add    $0x4,%eax
c0103db0:	c1 e0 02             	shl    $0x2,%eax
c0103db3:	0f b6 d8             	movzbl %al,%ebx
c0103db6:	8b 45 dc             	mov    -0x24(%ebp),%eax
c0103db9:	0f b6 c8             	movzbl %al,%ecx
c0103dbc:	8b 45 e4             	mov    -0x1c(%ebp),%eax
c0103dbf:	0f b6 d0             	movzbl %al,%edx
c0103dc2:	8b 45 e0             	mov    -0x20(%ebp),%eax
c0103dc5:	0f b6 c0             	movzbl %al,%eax
c0103dc8:	c7 44 24 10 ff ff ff 	movl   $0xffffffff,0x10(%esp)
c0103dcf:	ff 
c0103dd0:	89 5c 24 0c          	mov    %ebx,0xc(%esp)
c0103dd4:	89 4c 24 08          	mov    %ecx,0x8(%esp)
c0103dd8:	89 54 24 04          	mov    %edx,0x4(%esp)
c0103ddc:	89 04 24             	mov    %eax,(%esp)
c0103ddf:	e8 9f f7 ff ff       	call   c0103583 <pci_writel>
c0103de4:	8b 45 d8             	mov    -0x28(%ebp),%eax
c0103de7:	83 c0 04             	add    $0x4,%eax
c0103dea:	c1 e0 02             	shl    $0x2,%eax
c0103ded:	0f b6 d8             	movzbl %al,%ebx
c0103df0:	8b 45 dc             	mov    -0x24(%ebp),%eax
c0103df3:	0f b6 c8             	movzbl %al,%ecx
c0103df6:	8b 45 e4             	mov    -0x1c(%ebp),%eax
c0103df9:	0f b6 d0             	movzbl %al,%edx
c0103dfc:	8b 45 e0             	mov    -0x20(%ebp),%eax
c0103dff:	0f b6 c0             	movzbl %al,%eax
c0103e02:	89 5c 24 0c          	mov    %ebx,0xc(%esp)
c0103e06:	89 4c 24 08          	mov    %ecx,0x8(%esp)
c0103e0a:	89 54 24 04          	mov    %edx,0x4(%esp)
c0103e0e:	89 04 24             	mov    %eax,(%esp)
c0103e11:	e8 0d f6 ff ff       	call   c0103423 <pci_readl>
c0103e16:	89 45 bc             	mov    %eax,-0x44(%ebp)
c0103e19:	83 7d bc 00          	cmpl   $0x0,-0x44(%ebp)
c0103e1d:	75 1a                	jne    c0103e39 <INIT_PCI+0x4dc>
c0103e1f:	8b 4d cc             	mov    -0x34(%ebp),%ecx
c0103e22:	8b 55 d8             	mov    -0x28(%ebp),%edx
c0103e25:	89 d0                	mov    %edx,%eax
c0103e27:	01 c0                	add    %eax,%eax
c0103e29:	01 d0                	add    %edx,%eax
c0103e2b:	c1 e0 02             	shl    $0x2,%eax
c0103e2e:	01 c8                	add    %ecx,%eax
c0103e30:	83 c0 1c             	add    $0x1c,%eax
c0103e33:	c7 00 02 00 00 00    	movl   $0x2,(%eax)
c0103e39:	8b 45 bc             	mov    -0x44(%ebp),%eax
c0103e3c:	f7 d0                	not    %eax
c0103e3e:	83 c8 01             	or     $0x1,%eax
c0103e41:	89 45 bc             	mov    %eax,-0x44(%ebp)
c0103e44:	8b 4d cc             	mov    -0x34(%ebp),%ecx
c0103e47:	8b 55 d8             	mov    -0x28(%ebp),%edx
c0103e4a:	89 d0                	mov    %edx,%eax
c0103e4c:	01 c0                	add    %eax,%eax
c0103e4e:	01 d0                	add    %edx,%eax
c0103e50:	c1 e0 02             	shl    $0x2,%eax
c0103e53:	01 c8                	add    %ecx,%eax
c0103e55:	83 c0 10             	add    $0x10,%eax
c0103e58:	c6 40 10 00          	movb   $0x0,0x10(%eax)
c0103e5c:	c7 45 d4 00 00 00 00 	movl   $0x0,-0x2c(%ebp)
c0103e63:	eb 4f                	jmp    c0103eb4 <INIT_PCI+0x557>
c0103e65:	8b 45 d4             	mov    -0x2c(%ebp),%eax
c0103e68:	ba 01 00 00 00       	mov    $0x1,%edx
c0103e6d:	89 c1                	mov    %eax,%ecx
c0103e6f:	d3 e2                	shl    %cl,%edx
c0103e71:	89 d0                	mov    %edx,%eax
c0103e73:	23 45 bc             	and    -0x44(%ebp),%eax
c0103e76:	85 c0                	test   %eax,%eax
c0103e78:	74 38                	je     c0103eb2 <INIT_PCI+0x555>
c0103e7a:	8b 4d cc             	mov    -0x34(%ebp),%ecx
c0103e7d:	8b 55 d8             	mov    -0x28(%ebp),%edx
c0103e80:	89 d0                	mov    %edx,%eax
c0103e82:	01 c0                	add    %eax,%eax
c0103e84:	01 d0                	add    %edx,%eax
c0103e86:	c1 e0 02             	shl    $0x2,%eax
c0103e89:	01 c8                	add    %ecx,%eax
c0103e8b:	83 c0 10             	add    $0x10,%eax
c0103e8e:	0f b6 40 10          	movzbl 0x10(%eax),%eax
c0103e92:	8d 48 01             	lea    0x1(%eax),%ecx
c0103e95:	8b 5d cc             	mov    -0x34(%ebp),%ebx
c0103e98:	8b 55 d8             	mov    -0x28(%ebp),%edx
c0103e9b:	89 d0                	mov    %edx,%eax
c0103e9d:	01 c0                	add    %eax,%eax
c0103e9f:	01 d0                	add    %edx,%eax
c0103ea1:	c1 e0 02             	shl    $0x2,%eax
c0103ea4:	01 d8                	add    %ebx,%eax
c0103ea6:	83 c0 10             	add    $0x10,%eax
c0103ea9:	88 48 10             	mov    %cl,0x10(%eax)
c0103eac:	83 45 d4 01          	addl   $0x1,-0x2c(%ebp)
c0103eb0:	eb 02                	jmp    c0103eb4 <INIT_PCI+0x557>
c0103eb2:	eb 06                	jmp    c0103eba <INIT_PCI+0x55d>
c0103eb4:	83 7d d4 1f          	cmpl   $0x1f,-0x2c(%ebp)
c0103eb8:	7e ab                	jle    c0103e65 <INIT_PCI+0x508>
c0103eba:	8b 45 d8             	mov    -0x28(%ebp),%eax
c0103ebd:	83 c0 04             	add    $0x4,%eax
c0103ec0:	c1 e0 02             	shl    $0x2,%eax
c0103ec3:	0f b6 d8             	movzbl %al,%ebx
c0103ec6:	8b 45 dc             	mov    -0x24(%ebp),%eax
c0103ec9:	0f b6 c8             	movzbl %al,%ecx
c0103ecc:	8b 45 e4             	mov    -0x1c(%ebp),%eax
c0103ecf:	0f b6 d0             	movzbl %al,%edx
c0103ed2:	8b 45 e0             	mov    -0x20(%ebp),%eax
c0103ed5:	0f b6 c0             	movzbl %al,%eax
c0103ed8:	8b 75 c0             	mov    -0x40(%ebp),%esi
c0103edb:	89 74 24 10          	mov    %esi,0x10(%esp)
c0103edf:	89 5c 24 0c          	mov    %ebx,0xc(%esp)
c0103ee3:	89 4c 24 08          	mov    %ecx,0x8(%esp)
c0103ee7:	89 54 24 04          	mov    %edx,0x4(%esp)
c0103eeb:	89 04 24             	mov    %eax,(%esp)
c0103eee:	e8 90 f6 ff ff       	call   c0103583 <pci_writel>
c0103ef3:	83 45 d8 01          	addl   $0x1,-0x28(%ebp)
c0103ef7:	83 7d d8 05          	cmpl   $0x5,-0x28(%ebp)
c0103efb:	0f 8e 38 fe ff ff    	jle    c0103d39 <INIT_PCI+0x3dc>
c0103f01:	a1 20 60 11 c0       	mov    0xc0116020,%eax
c0103f06:	8b 55 cc             	mov    -0x34(%ebp),%edx
c0103f09:	89 54 24 04          	mov    %edx,0x4(%esp)
c0103f0d:	89 04 24             	mov    %eax,(%esp)
c0103f10:	e8 72 7f 00 00       	call   c010be87 <list_push_front>
c0103f15:	83 45 dc 01          	addl   $0x1,-0x24(%ebp)
c0103f19:	83 7d dc 07          	cmpl   $0x7,-0x24(%ebp)
c0103f1d:	0f 8e a5 fa ff ff    	jle    c01039c8 <INIT_PCI+0x6b>
c0103f23:	83 45 e4 01          	addl   $0x1,-0x1c(%ebp)
c0103f27:	83 7d e4 1f          	cmpl   $0x1f,-0x1c(%ebp)
c0103f2b:	0f 8e 8b fa ff ff    	jle    c01039bc <INIT_PCI+0x5f>
c0103f31:	83 45 e0 01          	addl   $0x1,-0x20(%ebp)
c0103f35:	83 7d e0 07          	cmpl   $0x7,-0x20(%ebp)
c0103f39:	0f 8e 71 fa ff ff    	jle    c01039b0 <INIT_PCI+0x53>
c0103f3f:	a1 20 60 11 c0       	mov    0xc0116020,%eax
c0103f44:	c7 40 08 00 00 00 00 	movl   $0x0,0x8(%eax)
c0103f4b:	c7 04 24 0a 00 00 00 	movl   $0xa,(%esp)
c0103f52:	e8 08 00 00 00       	call   c0103f5f <putchar>
c0103f57:	83 c4 5c             	add    $0x5c,%esp
c0103f5a:	5b                   	pop    %ebx
c0103f5b:	5e                   	pop    %esi
c0103f5c:	5f                   	pop    %edi
c0103f5d:	5d                   	pop    %ebp
c0103f5e:	c3                   	ret    

c0103f5f <putchar>:
c0103f5f:	55                   	push   %ebp
c0103f60:	89 e5                	mov    %esp,%ebp
c0103f62:	83 ec 18             	sub    $0x18,%esp
c0103f65:	83 7d 08 08          	cmpl   $0x8,0x8(%ebp)
c0103f69:	0f 85 8a 00 00 00    	jne    c0103ff9 <putchar+0x9a>
c0103f6f:	a1 08 40 11 c0       	mov    0xc0114008,%eax
c0103f74:	85 c0                	test   %eax,%eax
c0103f76:	7e 2b                	jle    c0103fa3 <putchar+0x44>
c0103f78:	a1 0c 40 11 c0       	mov    0xc011400c,%eax
c0103f7d:	0f b6 d0             	movzbl %al,%edx
c0103f80:	a1 08 40 11 c0       	mov    0xc0114008,%eax
c0103f85:	83 e8 01             	sub    $0x1,%eax
c0103f88:	a3 08 40 11 c0       	mov    %eax,0xc0114008
c0103f8d:	a1 08 40 11 c0       	mov    0xc0114008,%eax
c0103f92:	0f b6 c0             	movzbl %al,%eax
c0103f95:	89 54 24 04          	mov    %edx,0x4(%esp)
c0103f99:	89 04 24             	mov    %eax,(%esp)
c0103f9c:	e8 1f 02 00 00       	call   c01041c0 <gotoxy>
c0103fa1:	eb 2c                	jmp    c0103fcf <putchar+0x70>
c0103fa3:	a1 0c 40 11 c0       	mov    0xc011400c,%eax
c0103fa8:	83 e8 01             	sub    $0x1,%eax
c0103fab:	a3 0c 40 11 c0       	mov    %eax,0xc011400c
c0103fb0:	a1 0c 40 11 c0       	mov    0xc011400c,%eax
c0103fb5:	0f b6 d0             	movzbl %al,%edx
c0103fb8:	a1 04 23 11 c0       	mov    0xc0112304,%eax
c0103fbd:	83 e8 01             	sub    $0x1,%eax
c0103fc0:	0f b6 c0             	movzbl %al,%eax
c0103fc3:	89 54 24 04          	mov    %edx,0x4(%esp)
c0103fc7:	89 04 24             	mov    %eax,(%esp)
c0103fca:	e8 f1 01 00 00       	call   c01041c0 <gotoxy>
c0103fcf:	8b 15 0c 23 11 c0    	mov    0xc011230c,%edx
c0103fd5:	8b 0d 0c 40 11 c0    	mov    0xc011400c,%ecx
c0103fdb:	a1 04 23 11 c0       	mov    0xc0112304,%eax
c0103fe0:	0f af c8             	imul   %eax,%ecx
c0103fe3:	a1 08 40 11 c0       	mov    0xc0114008,%eax
c0103fe8:	01 c8                	add    %ecx,%eax
c0103fea:	01 c0                	add    %eax,%eax
c0103fec:	01 d0                	add    %edx,%eax
c0103fee:	c6 00 00             	movb   $0x0,(%eax)
c0103ff1:	8b 45 08             	mov    0x8(%ebp),%eax
c0103ff4:	e9 c3 00 00 00       	jmp    c01040bc <putchar+0x15d>
c0103ff9:	a1 04 23 11 c0       	mov    0xc0112304,%eax
c0103ffe:	8d 50 ff             	lea    -0x1(%eax),%edx
c0104001:	a1 08 40 11 c0       	mov    0xc0114008,%eax
c0104006:	39 c2                	cmp    %eax,%edx
c0104008:	7c 06                	jl     c0104010 <putchar+0xb1>
c010400a:	83 7d 08 0a          	cmpl   $0xa,0x8(%ebp)
c010400e:	75 30                	jne    c0104040 <putchar+0xe1>
c0104010:	a1 0c 40 11 c0       	mov    0xc011400c,%eax
c0104015:	83 c0 01             	add    $0x1,%eax
c0104018:	a3 0c 40 11 c0       	mov    %eax,0xc011400c
c010401d:	a1 0c 40 11 c0       	mov    0xc011400c,%eax
c0104022:	0f b6 c0             	movzbl %al,%eax
c0104025:	89 44 24 04          	mov    %eax,0x4(%esp)
c0104029:	c7 04 24 00 00 00 00 	movl   $0x0,(%esp)
c0104030:	e8 8b 01 00 00       	call   c01041c0 <gotoxy>
c0104035:	83 7d 08 0a          	cmpl   $0xa,0x8(%ebp)
c0104039:	75 05                	jne    c0104040 <putchar+0xe1>
c010403b:	8b 45 08             	mov    0x8(%ebp),%eax
c010403e:	eb 7c                	jmp    c01040bc <putchar+0x15d>
c0104040:	8b 15 0c 23 11 c0    	mov    0xc011230c,%edx
c0104046:	8b 0d 0c 40 11 c0    	mov    0xc011400c,%ecx
c010404c:	a1 04 23 11 c0       	mov    0xc0112304,%eax
c0104051:	0f af c8             	imul   %eax,%ecx
c0104054:	a1 08 40 11 c0       	mov    0xc0114008,%eax
c0104059:	01 c8                	add    %ecx,%eax
c010405b:	01 c0                	add    %eax,%eax
c010405d:	01 c2                	add    %eax,%edx
c010405f:	8b 45 08             	mov    0x8(%ebp),%eax
c0104062:	88 02                	mov    %al,(%edx)
c0104064:	a1 0c 23 11 c0       	mov    0xc011230c,%eax
c0104069:	8b 0d 0c 40 11 c0    	mov    0xc011400c,%ecx
c010406f:	8b 15 04 23 11 c0    	mov    0xc0112304,%edx
c0104075:	0f af ca             	imul   %edx,%ecx
c0104078:	8b 15 08 40 11 c0    	mov    0xc0114008,%edx
c010407e:	01 ca                	add    %ecx,%edx
c0104080:	01 d2                	add    %edx,%edx
c0104082:	83 c2 01             	add    $0x1,%edx
c0104085:	01 c2                	add    %eax,%edx
c0104087:	0f b6 05 08 23 11 c0 	movzbl 0xc0112308,%eax
c010408e:	88 02                	mov    %al,(%edx)
c0104090:	a1 0c 40 11 c0       	mov    0xc011400c,%eax
c0104095:	0f b6 d0             	movzbl %al,%edx
c0104098:	a1 08 40 11 c0       	mov    0xc0114008,%eax
c010409d:	83 c0 01             	add    $0x1,%eax
c01040a0:	a3 08 40 11 c0       	mov    %eax,0xc0114008
c01040a5:	a1 08 40 11 c0       	mov    0xc0114008,%eax
c01040aa:	0f b6 c0             	movzbl %al,%eax
c01040ad:	89 54 24 04          	mov    %edx,0x4(%esp)
c01040b1:	89 04 24             	mov    %eax,(%esp)
c01040b4:	e8 07 01 00 00       	call   c01041c0 <gotoxy>
c01040b9:	8b 45 08             	mov    0x8(%ebp),%eax
c01040bc:	c9                   	leave  
c01040bd:	c3                   	ret    

c01040be <puts>:
c01040be:	55                   	push   %ebp
c01040bf:	89 e5                	mov    %esp,%ebp
c01040c1:	83 ec 28             	sub    $0x28,%esp
c01040c4:	c7 45 f4 01 00 00 00 	movl   $0x1,-0xc(%ebp)
c01040cb:	eb 1b                	jmp    c01040e8 <puts+0x2a>
c01040cd:	8b 45 08             	mov    0x8(%ebp),%eax
c01040d0:	8d 50 01             	lea    0x1(%eax),%edx
c01040d3:	89 55 08             	mov    %edx,0x8(%ebp)
c01040d6:	0f b6 00             	movzbl (%eax),%eax
c01040d9:	0f be c0             	movsbl %al,%eax
c01040dc:	89 04 24             	mov    %eax,(%esp)
c01040df:	e8 7b fe ff ff       	call   c0103f5f <putchar>
c01040e4:	83 45 f4 01          	addl   $0x1,-0xc(%ebp)
c01040e8:	8b 45 08             	mov    0x8(%ebp),%eax
c01040eb:	0f b6 00             	movzbl (%eax),%eax
c01040ee:	84 c0                	test   %al,%al
c01040f0:	75 db                	jne    c01040cd <puts+0xf>
c01040f2:	c7 04 24 0a 00 00 00 	movl   $0xa,(%esp)
c01040f9:	e8 61 fe ff ff       	call   c0103f5f <putchar>
c01040fe:	8b 45 f4             	mov    -0xc(%ebp),%eax
c0104101:	c9                   	leave  
c0104102:	c3                   	ret    

c0104103 <fputs>:
c0104103:	55                   	push   %ebp
c0104104:	89 e5                	mov    %esp,%ebp
c0104106:	83 ec 18             	sub    $0x18,%esp
c0104109:	83 7d 0c 01          	cmpl   $0x1,0xc(%ebp)
c010410d:	75 23                	jne    c0104132 <fputs+0x2f>
c010410f:	eb 17                	jmp    c0104128 <fputs+0x25>
c0104111:	8b 45 08             	mov    0x8(%ebp),%eax
c0104114:	8d 50 01             	lea    0x1(%eax),%edx
c0104117:	89 55 08             	mov    %edx,0x8(%ebp)
c010411a:	0f b6 00             	movzbl (%eax),%eax
c010411d:	0f be c0             	movsbl %al,%eax
c0104120:	89 04 24             	mov    %eax,(%esp)
c0104123:	e8 37 fe ff ff       	call   c0103f5f <putchar>
c0104128:	8b 45 08             	mov    0x8(%ebp),%eax
c010412b:	0f b6 00             	movzbl (%eax),%eax
c010412e:	84 c0                	test   %al,%al
c0104130:	75 df                	jne    c0104111 <fputs+0xe>
c0104132:	b8 00 00 00 00       	mov    $0x0,%eax
c0104137:	c9                   	leave  
c0104138:	c3                   	ret    

c0104139 <clear_screen>:
c0104139:	55                   	push   %ebp
c010413a:	89 e5                	mov    %esp,%ebp
c010413c:	83 ec 28             	sub    $0x28,%esp
c010413f:	c7 45 f4 00 00 00 00 	movl   $0x0,-0xc(%ebp)
c0104146:	eb 2c                	jmp    c0104174 <clear_screen+0x3b>
c0104148:	8b 15 0c 23 11 c0    	mov    0xc011230c,%edx
c010414e:	8b 45 f4             	mov    -0xc(%ebp),%eax
c0104151:	01 c0                	add    %eax,%eax
c0104153:	01 d0                	add    %edx,%eax
c0104155:	c6 00 00             	movb   $0x0,(%eax)
c0104158:	a1 0c 23 11 c0       	mov    0xc011230c,%eax
c010415d:	8b 55 f4             	mov    -0xc(%ebp),%edx
c0104160:	01 d2                	add    %edx,%edx
c0104162:	83 c2 01             	add    $0x1,%edx
c0104165:	01 c2                	add    %eax,%edx
c0104167:	0f b6 05 08 23 11 c0 	movzbl 0xc0112308,%eax
c010416e:	88 02                	mov    %al,(%edx)
c0104170:	83 45 f4 01          	addl   $0x1,-0xc(%ebp)
c0104174:	8b 15 00 23 11 c0    	mov    0xc0112300,%edx
c010417a:	a1 04 23 11 c0       	mov    0xc0112304,%eax
c010417f:	0f af c2             	imul   %edx,%eax
c0104182:	3b 45 f4             	cmp    -0xc(%ebp),%eax
c0104185:	7f c1                	jg     c0104148 <clear_screen+0xf>
c0104187:	c7 44 24 04 00 00 00 	movl   $0x0,0x4(%esp)
c010418e:	00 
c010418f:	c7 04 24 00 00 00 00 	movl   $0x0,(%esp)
c0104196:	e8 25 00 00 00       	call   c01041c0 <gotoxy>
c010419b:	c9                   	leave  
c010419c:	c3                   	ret    

c010419d <set_color>:
c010419d:	55                   	push   %ebp
c010419e:	89 e5                	mov    %esp,%ebp
c01041a0:	83 ec 04             	sub    $0x4,%esp
c01041a3:	8b 45 08             	mov    0x8(%ebp),%eax
c01041a6:	88 45 fc             	mov    %al,-0x4(%ebp)
c01041a9:	0f b6 45 fc          	movzbl -0x4(%ebp),%eax
c01041ad:	a2 08 23 11 c0       	mov    %al,0xc0112308
c01041b2:	c9                   	leave  
c01041b3:	c3                   	ret    

c01041b4 <get_color>:
c01041b4:	55                   	push   %ebp
c01041b5:	89 e5                	mov    %esp,%ebp
c01041b7:	0f b6 05 08 23 11 c0 	movzbl 0xc0112308,%eax
c01041be:	5d                   	pop    %ebp
c01041bf:	c3                   	ret    

c01041c0 <gotoxy>:
c01041c0:	55                   	push   %ebp
c01041c1:	89 e5                	mov    %esp,%ebp
c01041c3:	53                   	push   %ebx
c01041c4:	83 ec 34             	sub    $0x34,%esp
c01041c7:	8b 55 08             	mov    0x8(%ebp),%edx
c01041ca:	8b 45 0c             	mov    0xc(%ebp),%eax
c01041cd:	88 55 e4             	mov    %dl,-0x1c(%ebp)
c01041d0:	88 45 e0             	mov    %al,-0x20(%ebp)
c01041d3:	0f b6 55 e0          	movzbl -0x20(%ebp),%edx
c01041d7:	a1 04 23 11 c0       	mov    0xc0112304,%eax
c01041dc:	0f af d0             	imul   %eax,%edx
c01041df:	0f b6 45 e4          	movzbl -0x1c(%ebp),%eax
c01041e3:	8d 0c 02             	lea    (%edx,%eax,1),%ecx
c01041e6:	8b 15 04 23 11 c0    	mov    0xc0112304,%edx
c01041ec:	a1 00 23 11 c0       	mov    0xc0112300,%eax
c01041f1:	0f af c2             	imul   %edx,%eax
c01041f4:	39 c1                	cmp    %eax,%ecx
c01041f6:	7c 6f                	jl     c0104267 <gotoxy+0xa7>
c01041f8:	a1 00 23 11 c0       	mov    0xc0112300,%eax
c01041fd:	8d 14 00             	lea    (%eax,%eax,1),%edx
c0104200:	a1 04 23 11 c0       	mov    0xc0112304,%eax
c0104205:	0f af c2             	imul   %edx,%eax
c0104208:	89 c2                	mov    %eax,%edx
c010420a:	8b 0d 0c 23 11 c0    	mov    0xc011230c,%ecx
c0104210:	a1 04 23 11 c0       	mov    0xc0112304,%eax
c0104215:	01 c0                	add    %eax,%eax
c0104217:	01 c1                	add    %eax,%ecx
c0104219:	a1 0c 23 11 c0       	mov    0xc011230c,%eax
c010421e:	89 54 24 08          	mov    %edx,0x8(%esp)
c0104222:	89 4c 24 04          	mov    %ecx,0x4(%esp)
c0104226:	89 04 24             	mov    %eax,(%esp)
c0104229:	e8 32 85 00 00       	call   c010c760 <memmove>
c010422e:	a1 04 23 11 c0       	mov    0xc0112304,%eax
c0104233:	01 c0                	add    %eax,%eax
c0104235:	8b 0d 0c 23 11 c0    	mov    0xc011230c,%ecx
c010423b:	8b 15 00 23 11 c0    	mov    0xc0112300,%edx
c0104241:	8d 1c 12             	lea    (%edx,%edx,1),%ebx
c0104244:	8b 15 04 23 11 c0    	mov    0xc0112304,%edx
c010424a:	0f af d3             	imul   %ebx,%edx
c010424d:	01 ca                	add    %ecx,%edx
c010424f:	89 44 24 08          	mov    %eax,0x8(%esp)
c0104253:	c7 44 24 04 00 00 00 	movl   $0x0,0x4(%esp)
c010425a:	00 
c010425b:	89 14 24             	mov    %edx,(%esp)
c010425e:	e8 81 86 00 00       	call   c010c8e4 <memset>
c0104263:	80 6d e0 01          	subb   $0x1,-0x20(%ebp)
c0104267:	0f b6 45 e4          	movzbl -0x1c(%ebp),%eax
c010426b:	a3 08 40 11 c0       	mov    %eax,0xc0114008
c0104270:	0f b6 45 e0          	movzbl -0x20(%ebp),%eax
c0104274:	a3 0c 40 11 c0       	mov    %eax,0xc011400c
c0104279:	0f b6 55 e0          	movzbl -0x20(%ebp),%edx
c010427d:	a1 04 23 11 c0       	mov    0xc0112304,%eax
c0104282:	0f af d0             	imul   %eax,%edx
c0104285:	0f b6 45 e4          	movzbl -0x1c(%ebp),%eax
c0104289:	01 d0                	add    %edx,%eax
c010428b:	66 89 45 f6          	mov    %ax,-0xa(%ebp)
c010428f:	8b 15 0c 23 11 c0    	mov    0xc011230c,%edx
c0104295:	0f b7 45 f6          	movzwl -0xa(%ebp),%eax
c0104299:	01 c0                	add    %eax,%eax
c010429b:	01 d0                	add    %edx,%eax
c010429d:	0f b6 00             	movzbl (%eax),%eax
c01042a0:	84 c0                	test   %al,%al
c01042a2:	75 19                	jne    c01042bd <gotoxy+0xfd>
c01042a4:	a1 0c 23 11 c0       	mov    0xc011230c,%eax
c01042a9:	0f b7 55 f6          	movzwl -0xa(%ebp),%edx
c01042ad:	01 d2                	add    %edx,%edx
c01042af:	83 c2 01             	add    $0x1,%edx
c01042b2:	01 c2                	add    %eax,%edx
c01042b4:	0f b6 05 08 23 11 c0 	movzbl 0xc0112308,%eax
c01042bb:	88 02                	mov    %al,(%edx)
c01042bd:	0f b7 45 f6          	movzwl -0xa(%ebp),%eax
c01042c1:	66 c1 e8 08          	shr    $0x8,%ax
c01042c5:	0f b6 c0             	movzbl %al,%eax
c01042c8:	89 44 24 04          	mov    %eax,0x4(%esp)
c01042cc:	c7 04 24 0e 00 00 00 	movl   $0xe,(%esp)
c01042d3:	e8 dd 07 00 00       	call   c0104ab5 <crtc_write>
c01042d8:	0f b7 45 f6          	movzwl -0xa(%ebp),%eax
c01042dc:	0f b6 c0             	movzbl %al,%eax
c01042df:	89 44 24 04          	mov    %eax,0x4(%esp)
c01042e3:	c7 04 24 0f 00 00 00 	movl   $0xf,(%esp)
c01042ea:	e8 c6 07 00 00       	call   c0104ab5 <crtc_write>
c01042ef:	83 c4 34             	add    $0x34,%esp
c01042f2:	5b                   	pop    %ebx
c01042f3:	5d                   	pop    %ebp
c01042f4:	c3                   	ret    

c01042f5 <BCD_ENCODE>:
c01042f5:	55                   	push   %ebp
c01042f6:	89 e5                	mov    %esp,%ebp
c01042f8:	83 ec 18             	sub    $0x18,%esp
c01042fb:	8b 45 0c             	mov    0xc(%ebp),%eax
c01042fe:	89 44 24 08          	mov    %eax,0x8(%esp)
c0104302:	c7 44 24 04 00 e3 10 	movl   $0xc010e300,0x4(%esp)
c0104309:	c0 
c010430a:	8b 45 08             	mov    0x8(%ebp),%eax
c010430d:	89 04 24             	mov    %eax,(%esp)
c0104310:	e8 a3 75 00 00       	call   c010b8b8 <sprintf>
c0104315:	8b 45 08             	mov    0x8(%ebp),%eax
c0104318:	c9                   	leave  
c0104319:	c3                   	ret    

c010431a <outb>:
c010431a:	55                   	push   %ebp
c010431b:	89 e5                	mov    %esp,%ebp
c010431d:	83 ec 08             	sub    $0x8,%esp
c0104320:	8b 55 08             	mov    0x8(%ebp),%edx
c0104323:	8b 45 0c             	mov    0xc(%ebp),%eax
c0104326:	66 89 55 fc          	mov    %dx,-0x4(%ebp)
c010432a:	88 45 f8             	mov    %al,-0x8(%ebp)
c010432d:	0f b7 55 fc          	movzwl -0x4(%ebp),%edx
c0104331:	0f b6 45 f8          	movzbl -0x8(%ebp),%eax
c0104335:	ee                   	out    %al,(%dx)
c0104336:	c9                   	leave  
c0104337:	c3                   	ret    

c0104338 <set_pit_freq>:
c0104338:	55                   	push   %ebp
c0104339:	89 e5                	mov    %esp,%ebp
c010433b:	83 ec 18             	sub    $0x18,%esp
c010433e:	b8 de 34 12 00       	mov    $0x1234de,%eax
c0104343:	99                   	cltd   
c0104344:	f7 7d 08             	idivl  0x8(%ebp)
c0104347:	89 45 fc             	mov    %eax,-0x4(%ebp)
c010434a:	8b 45 fc             	mov    -0x4(%ebp),%eax
c010434d:	0f b6 c0             	movzbl %al,%eax
c0104350:	89 44 24 04          	mov    %eax,0x4(%esp)
c0104354:	c7 04 24 40 00 00 00 	movl   $0x40,(%esp)
c010435b:	e8 ba ff ff ff       	call   c010431a <outb>
c0104360:	8b 45 fc             	mov    -0x4(%ebp),%eax
c0104363:	c1 f8 08             	sar    $0x8,%eax
c0104366:	0f b6 c0             	movzbl %al,%eax
c0104369:	89 44 24 04          	mov    %eax,0x4(%esp)
c010436d:	c7 04 24 40 00 00 00 	movl   $0x40,(%esp)
c0104374:	e8 a1 ff ff ff       	call   c010431a <outb>
c0104379:	c9                   	leave  
c010437a:	c3                   	ret    

c010437b <INIT_PIT>:
c010437b:	55                   	push   %ebp
c010437c:	89 e5                	mov    %esp,%ebp
c010437e:	83 ec 08             	sub    $0x8,%esp
c0104381:	c7 44 24 04 34 00 00 	movl   $0x34,0x4(%esp)
c0104388:	00 
c0104389:	c7 04 24 43 00 00 00 	movl   $0x43,(%esp)
c0104390:	e8 85 ff ff ff       	call   c010431a <outb>
c0104395:	8b 45 08             	mov    0x8(%ebp),%eax
c0104398:	89 04 24             	mov    %eax,(%esp)
c010439b:	e8 98 ff ff ff       	call   c0104338 <set_pit_freq>
c01043a0:	c9                   	leave  
c01043a1:	c3                   	ret    

c01043a2 <INIT_RTC>:
c01043a2:	55                   	push   %ebp
c01043a3:	89 e5                	mov    %esp,%ebp
c01043a5:	83 ec 18             	sub    $0x18,%esp
c01043a8:	c7 04 24 13 00 00 00 	movl   $0x13,(%esp)
c01043af:	e8 ef dc ff ff       	call   c01020a3 <malloc>
c01043b4:	a3 24 60 11 c0       	mov    %eax,0xc0116024
c01043b9:	c7 04 24 0b 00 00 00 	movl   $0xb,(%esp)
c01043c0:	e8 de dc ff ff       	call   c01020a3 <malloc>
c01043c5:	a3 28 60 11 c0       	mov    %eax,0xc0116028
c01043ca:	a1 24 60 11 c0       	mov    0xc0116024,%eax
c01043cf:	89 04 24             	mov    %eax,(%esp)
c01043d2:	e8 1d e9 ff ff       	call   c0102cf4 <get_cmos_data>
c01043d7:	a1 28 60 11 c0       	mov    0xc0116028,%eax
c01043dc:	89 04 24             	mov    %eax,(%esp)
c01043df:	e8 02 00 00 00       	call   c01043e6 <update_time>
c01043e4:	c9                   	leave  
c01043e5:	c3                   	ret    

c01043e6 <update_time>:
c01043e6:	55                   	push   %ebp
c01043e7:	89 e5                	mov    %esp,%ebp
c01043e9:	53                   	push   %ebx
c01043ea:	83 ec 14             	sub    $0x14,%esp
c01043ed:	c7 04 24 00 00 00 00 	movl   $0x0,(%esp)
c01043f4:	e8 58 ea ff ff       	call   c0102e51 <cmos_read_byte>
c01043f9:	83 e0 0f             	and    $0xf,%eax
c01043fc:	89 c3                	mov    %eax,%ebx
c01043fe:	c7 04 24 00 00 00 00 	movl   $0x0,(%esp)
c0104405:	e8 47 ea ff ff       	call   c0102e51 <cmos_read_byte>
c010440a:	c0 e8 04             	shr    $0x4,%al
c010440d:	89 c2                	mov    %eax,%edx
c010440f:	89 d0                	mov    %edx,%eax
c0104411:	c1 e0 02             	shl    $0x2,%eax
c0104414:	01 d0                	add    %edx,%eax
c0104416:	01 c0                	add    %eax,%eax
c0104418:	8d 14 03             	lea    (%ebx,%eax,1),%edx
c010441b:	8b 45 08             	mov    0x8(%ebp),%eax
c010441e:	88 10                	mov    %dl,(%eax)
c0104420:	c7 04 24 01 00 00 00 	movl   $0x1,(%esp)
c0104427:	e8 25 ea ff ff       	call   c0102e51 <cmos_read_byte>
c010442c:	83 e0 0f             	and    $0xf,%eax
c010442f:	89 c3                	mov    %eax,%ebx
c0104431:	c7 04 24 01 00 00 00 	movl   $0x1,(%esp)
c0104438:	e8 14 ea ff ff       	call   c0102e51 <cmos_read_byte>
c010443d:	c0 e8 04             	shr    $0x4,%al
c0104440:	89 c2                	mov    %eax,%edx
c0104442:	89 d0                	mov    %edx,%eax
c0104444:	c1 e0 02             	shl    $0x2,%eax
c0104447:	01 d0                	add    %edx,%eax
c0104449:	01 c0                	add    %eax,%eax
c010444b:	8d 14 03             	lea    (%ebx,%eax,1),%edx
c010444e:	8b 45 08             	mov    0x8(%ebp),%eax
c0104451:	88 50 01             	mov    %dl,0x1(%eax)
c0104454:	c7 04 24 02 00 00 00 	movl   $0x2,(%esp)
c010445b:	e8 f1 e9 ff ff       	call   c0102e51 <cmos_read_byte>
c0104460:	83 e0 0f             	and    $0xf,%eax
c0104463:	89 c3                	mov    %eax,%ebx
c0104465:	c7 04 24 02 00 00 00 	movl   $0x2,(%esp)
c010446c:	e8 e0 e9 ff ff       	call   c0102e51 <cmos_read_byte>
c0104471:	c0 e8 04             	shr    $0x4,%al
c0104474:	89 c2                	mov    %eax,%edx
c0104476:	89 d0                	mov    %edx,%eax
c0104478:	c1 e0 02             	shl    $0x2,%eax
c010447b:	01 d0                	add    %edx,%eax
c010447d:	01 c0                	add    %eax,%eax
c010447f:	8d 14 03             	lea    (%ebx,%eax,1),%edx
c0104482:	8b 45 08             	mov    0x8(%ebp),%eax
c0104485:	88 50 02             	mov    %dl,0x2(%eax)
c0104488:	c7 04 24 03 00 00 00 	movl   $0x3,(%esp)
c010448f:	e8 bd e9 ff ff       	call   c0102e51 <cmos_read_byte>
c0104494:	83 e0 0f             	and    $0xf,%eax
c0104497:	89 c3                	mov    %eax,%ebx
c0104499:	c7 04 24 03 00 00 00 	movl   $0x3,(%esp)
c01044a0:	e8 ac e9 ff ff       	call   c0102e51 <cmos_read_byte>
c01044a5:	c0 e8 04             	shr    $0x4,%al
c01044a8:	89 c2                	mov    %eax,%edx
c01044aa:	89 d0                	mov    %edx,%eax
c01044ac:	c1 e0 02             	shl    $0x2,%eax
c01044af:	01 d0                	add    %edx,%eax
c01044b1:	01 c0                	add    %eax,%eax
c01044b3:	8d 14 03             	lea    (%ebx,%eax,1),%edx
c01044b6:	8b 45 08             	mov    0x8(%ebp),%eax
c01044b9:	88 50 03             	mov    %dl,0x3(%eax)
c01044bc:	c7 04 24 04 00 00 00 	movl   $0x4,(%esp)
c01044c3:	e8 89 e9 ff ff       	call   c0102e51 <cmos_read_byte>
c01044c8:	83 e0 0f             	and    $0xf,%eax
c01044cb:	89 c3                	mov    %eax,%ebx
c01044cd:	c7 04 24 04 00 00 00 	movl   $0x4,(%esp)
c01044d4:	e8 78 e9 ff ff       	call   c0102e51 <cmos_read_byte>
c01044d9:	c0 e8 04             	shr    $0x4,%al
c01044dc:	89 c2                	mov    %eax,%edx
c01044de:	89 d0                	mov    %edx,%eax
c01044e0:	c1 e0 02             	shl    $0x2,%eax
c01044e3:	01 d0                	add    %edx,%eax
c01044e5:	01 c0                	add    %eax,%eax
c01044e7:	8d 14 03             	lea    (%ebx,%eax,1),%edx
c01044ea:	8b 45 08             	mov    0x8(%ebp),%eax
c01044ed:	88 50 04             	mov    %dl,0x4(%eax)
c01044f0:	c7 04 24 05 00 00 00 	movl   $0x5,(%esp)
c01044f7:	e8 55 e9 ff ff       	call   c0102e51 <cmos_read_byte>
c01044fc:	83 e0 0f             	and    $0xf,%eax
c01044ff:	89 c3                	mov    %eax,%ebx
c0104501:	c7 04 24 05 00 00 00 	movl   $0x5,(%esp)
c0104508:	e8 44 e9 ff ff       	call   c0102e51 <cmos_read_byte>
c010450d:	c0 e8 04             	shr    $0x4,%al
c0104510:	89 c2                	mov    %eax,%edx
c0104512:	89 d0                	mov    %edx,%eax
c0104514:	c1 e0 02             	shl    $0x2,%eax
c0104517:	01 d0                	add    %edx,%eax
c0104519:	01 c0                	add    %eax,%eax
c010451b:	8d 14 03             	lea    (%ebx,%eax,1),%edx
c010451e:	8b 45 08             	mov    0x8(%ebp),%eax
c0104521:	88 50 05             	mov    %dl,0x5(%eax)
c0104524:	c7 04 24 06 00 00 00 	movl   $0x6,(%esp)
c010452b:	e8 21 e9 ff ff       	call   c0102e51 <cmos_read_byte>
c0104530:	83 e0 0f             	and    $0xf,%eax
c0104533:	89 c3                	mov    %eax,%ebx
c0104535:	c7 04 24 06 00 00 00 	movl   $0x6,(%esp)
c010453c:	e8 10 e9 ff ff       	call   c0102e51 <cmos_read_byte>
c0104541:	c0 e8 04             	shr    $0x4,%al
c0104544:	89 c2                	mov    %eax,%edx
c0104546:	89 d0                	mov    %edx,%eax
c0104548:	c1 e0 02             	shl    $0x2,%eax
c010454b:	01 d0                	add    %edx,%eax
c010454d:	01 c0                	add    %eax,%eax
c010454f:	01 d8                	add    %ebx,%eax
c0104551:	8d 50 ff             	lea    -0x1(%eax),%edx
c0104554:	8b 45 08             	mov    0x8(%ebp),%eax
c0104557:	88 50 06             	mov    %dl,0x6(%eax)
c010455a:	c7 04 24 07 00 00 00 	movl   $0x7,(%esp)
c0104561:	e8 eb e8 ff ff       	call   c0102e51 <cmos_read_byte>
c0104566:	83 e0 0f             	and    $0xf,%eax
c0104569:	89 c3                	mov    %eax,%ebx
c010456b:	c7 04 24 07 00 00 00 	movl   $0x7,(%esp)
c0104572:	e8 da e8 ff ff       	call   c0102e51 <cmos_read_byte>
c0104577:	c0 e8 04             	shr    $0x4,%al
c010457a:	89 c2                	mov    %eax,%edx
c010457c:	89 d0                	mov    %edx,%eax
c010457e:	c1 e0 02             	shl    $0x2,%eax
c0104581:	01 d0                	add    %edx,%eax
c0104583:	01 c0                	add    %eax,%eax
c0104585:	8d 14 03             	lea    (%ebx,%eax,1),%edx
c0104588:	8b 45 08             	mov    0x8(%ebp),%eax
c010458b:	88 50 07             	mov    %dl,0x7(%eax)
c010458e:	c7 04 24 08 00 00 00 	movl   $0x8,(%esp)
c0104595:	e8 b7 e8 ff ff       	call   c0102e51 <cmos_read_byte>
c010459a:	83 e0 0f             	and    $0xf,%eax
c010459d:	89 c3                	mov    %eax,%ebx
c010459f:	c7 04 24 08 00 00 00 	movl   $0x8,(%esp)
c01045a6:	e8 a6 e8 ff ff       	call   c0102e51 <cmos_read_byte>
c01045ab:	c0 e8 04             	shr    $0x4,%al
c01045ae:	89 c2                	mov    %eax,%edx
c01045b0:	89 d0                	mov    %edx,%eax
c01045b2:	c1 e0 02             	shl    $0x2,%eax
c01045b5:	01 d0                	add    %edx,%eax
c01045b7:	01 c0                	add    %eax,%eax
c01045b9:	8d 14 03             	lea    (%ebx,%eax,1),%edx
c01045bc:	8b 45 08             	mov    0x8(%ebp),%eax
c01045bf:	88 50 08             	mov    %dl,0x8(%eax)
c01045c2:	c7 04 24 09 00 00 00 	movl   $0x9,(%esp)
c01045c9:	e8 83 e8 ff ff       	call   c0102e51 <cmos_read_byte>
c01045ce:	83 e0 0f             	and    $0xf,%eax
c01045d1:	89 c3                	mov    %eax,%ebx
c01045d3:	c7 04 24 09 00 00 00 	movl   $0x9,(%esp)
c01045da:	e8 72 e8 ff ff       	call   c0102e51 <cmos_read_byte>
c01045df:	c0 e8 04             	shr    $0x4,%al
c01045e2:	89 c2                	mov    %eax,%edx
c01045e4:	89 d0                	mov    %edx,%eax
c01045e6:	c1 e0 02             	shl    $0x2,%eax
c01045e9:	01 d0                	add    %edx,%eax
c01045eb:	01 c0                	add    %eax,%eax
c01045ed:	8d 14 03             	lea    (%ebx,%eax,1),%edx
c01045f0:	8b 45 08             	mov    0x8(%ebp),%eax
c01045f3:	88 50 09             	mov    %dl,0x9(%eax)
c01045f6:	c7 04 24 32 00 00 00 	movl   $0x32,(%esp)
c01045fd:	e8 4f e8 ff ff       	call   c0102e51 <cmos_read_byte>
c0104602:	83 e0 0f             	and    $0xf,%eax
c0104605:	89 c3                	mov    %eax,%ebx
c0104607:	c7 04 24 32 00 00 00 	movl   $0x32,(%esp)
c010460e:	e8 3e e8 ff ff       	call   c0102e51 <cmos_read_byte>
c0104613:	c0 e8 04             	shr    $0x4,%al
c0104616:	89 c2                	mov    %eax,%edx
c0104618:	89 d0                	mov    %edx,%eax
c010461a:	c1 e0 02             	shl    $0x2,%eax
c010461d:	01 d0                	add    %edx,%eax
c010461f:	01 c0                	add    %eax,%eax
c0104621:	8d 14 03             	lea    (%ebx,%eax,1),%edx
c0104624:	8b 45 08             	mov    0x8(%ebp),%eax
c0104627:	88 50 0a             	mov    %dl,0xa(%eax)
c010462a:	83 c4 14             	add    $0x14,%esp
c010462d:	5b                   	pop    %ebx
c010462e:	5d                   	pop    %ebp
c010462f:	c3                   	ret    

c0104630 <change_time>:
c0104630:	55                   	push   %ebp
c0104631:	89 e5                	mov    %esp,%ebp
c0104633:	83 ec 28             	sub    $0x28,%esp
c0104636:	8b 45 08             	mov    0x8(%ebp),%eax
c0104639:	0f b6 00             	movzbl (%eax),%eax
c010463c:	0f b6 c0             	movzbl %al,%eax
c010463f:	89 44 24 04          	mov    %eax,0x4(%esp)
c0104643:	8d 45 f6             	lea    -0xa(%ebp),%eax
c0104646:	89 04 24             	mov    %eax,(%esp)
c0104649:	e8 a7 fc ff ff       	call   c01042f5 <BCD_ENCODE>
c010464e:	0f b6 c0             	movzbl %al,%eax
c0104651:	89 44 24 04          	mov    %eax,0x4(%esp)
c0104655:	c7 04 24 00 00 00 00 	movl   $0x0,(%esp)
c010465c:	e8 3e e8 ff ff       	call   c0102e9f <cmos_write_byte>
c0104661:	8b 45 08             	mov    0x8(%ebp),%eax
c0104664:	0f b6 40 01          	movzbl 0x1(%eax),%eax
c0104668:	0f b6 c0             	movzbl %al,%eax
c010466b:	89 44 24 04          	mov    %eax,0x4(%esp)
c010466f:	8d 45 f6             	lea    -0xa(%ebp),%eax
c0104672:	89 04 24             	mov    %eax,(%esp)
c0104675:	e8 7b fc ff ff       	call   c01042f5 <BCD_ENCODE>
c010467a:	0f b6 c0             	movzbl %al,%eax
c010467d:	89 44 24 04          	mov    %eax,0x4(%esp)
c0104681:	c7 04 24 01 00 00 00 	movl   $0x1,(%esp)
c0104688:	e8 12 e8 ff ff       	call   c0102e9f <cmos_write_byte>
c010468d:	8b 45 08             	mov    0x8(%ebp),%eax
c0104690:	0f b6 40 02          	movzbl 0x2(%eax),%eax
c0104694:	0f b6 c0             	movzbl %al,%eax
c0104697:	89 44 24 04          	mov    %eax,0x4(%esp)
c010469b:	8d 45 f6             	lea    -0xa(%ebp),%eax
c010469e:	89 04 24             	mov    %eax,(%esp)
c01046a1:	e8 4f fc ff ff       	call   c01042f5 <BCD_ENCODE>
c01046a6:	0f b6 c0             	movzbl %al,%eax
c01046a9:	89 44 24 04          	mov    %eax,0x4(%esp)
c01046ad:	c7 04 24 02 00 00 00 	movl   $0x2,(%esp)
c01046b4:	e8 e6 e7 ff ff       	call   c0102e9f <cmos_write_byte>
c01046b9:	8b 45 08             	mov    0x8(%ebp),%eax
c01046bc:	0f b6 40 03          	movzbl 0x3(%eax),%eax
c01046c0:	0f b6 c0             	movzbl %al,%eax
c01046c3:	89 44 24 04          	mov    %eax,0x4(%esp)
c01046c7:	8d 45 f6             	lea    -0xa(%ebp),%eax
c01046ca:	89 04 24             	mov    %eax,(%esp)
c01046cd:	e8 23 fc ff ff       	call   c01042f5 <BCD_ENCODE>
c01046d2:	0f b6 c0             	movzbl %al,%eax
c01046d5:	89 44 24 04          	mov    %eax,0x4(%esp)
c01046d9:	c7 04 24 03 00 00 00 	movl   $0x3,(%esp)
c01046e0:	e8 ba e7 ff ff       	call   c0102e9f <cmos_write_byte>
c01046e5:	8b 45 08             	mov    0x8(%ebp),%eax
c01046e8:	0f b6 40 04          	movzbl 0x4(%eax),%eax
c01046ec:	0f b6 c0             	movzbl %al,%eax
c01046ef:	89 44 24 04          	mov    %eax,0x4(%esp)
c01046f3:	8d 45 f6             	lea    -0xa(%ebp),%eax
c01046f6:	89 04 24             	mov    %eax,(%esp)
c01046f9:	e8 f7 fb ff ff       	call   c01042f5 <BCD_ENCODE>
c01046fe:	0f b6 c0             	movzbl %al,%eax
c0104701:	89 44 24 04          	mov    %eax,0x4(%esp)
c0104705:	c7 04 24 04 00 00 00 	movl   $0x4,(%esp)
c010470c:	e8 8e e7 ff ff       	call   c0102e9f <cmos_write_byte>
c0104711:	8b 45 08             	mov    0x8(%ebp),%eax
c0104714:	0f b6 40 05          	movzbl 0x5(%eax),%eax
c0104718:	0f b6 c0             	movzbl %al,%eax
c010471b:	89 44 24 04          	mov    %eax,0x4(%esp)
c010471f:	8d 45 f6             	lea    -0xa(%ebp),%eax
c0104722:	89 04 24             	mov    %eax,(%esp)
c0104725:	e8 cb fb ff ff       	call   c01042f5 <BCD_ENCODE>
c010472a:	0f b6 c0             	movzbl %al,%eax
c010472d:	89 44 24 04          	mov    %eax,0x4(%esp)
c0104731:	c7 04 24 05 00 00 00 	movl   $0x5,(%esp)
c0104738:	e8 62 e7 ff ff       	call   c0102e9f <cmos_write_byte>
c010473d:	8b 45 08             	mov    0x8(%ebp),%eax
c0104740:	0f b6 40 06          	movzbl 0x6(%eax),%eax
c0104744:	0f b6 c0             	movzbl %al,%eax
c0104747:	89 44 24 04          	mov    %eax,0x4(%esp)
c010474b:	8d 45 f6             	lea    -0xa(%ebp),%eax
c010474e:	89 04 24             	mov    %eax,(%esp)
c0104751:	e8 9f fb ff ff       	call   c01042f5 <BCD_ENCODE>
c0104756:	0f b6 c0             	movzbl %al,%eax
c0104759:	89 44 24 04          	mov    %eax,0x4(%esp)
c010475d:	c7 04 24 06 00 00 00 	movl   $0x6,(%esp)
c0104764:	e8 36 e7 ff ff       	call   c0102e9f <cmos_write_byte>
c0104769:	8b 45 08             	mov    0x8(%ebp),%eax
c010476c:	0f b6 40 07          	movzbl 0x7(%eax),%eax
c0104770:	0f b6 c0             	movzbl %al,%eax
c0104773:	89 44 24 04          	mov    %eax,0x4(%esp)
c0104777:	8d 45 f6             	lea    -0xa(%ebp),%eax
c010477a:	89 04 24             	mov    %eax,(%esp)
c010477d:	e8 73 fb ff ff       	call   c01042f5 <BCD_ENCODE>
c0104782:	0f b6 c0             	movzbl %al,%eax
c0104785:	89 44 24 04          	mov    %eax,0x4(%esp)
c0104789:	c7 04 24 07 00 00 00 	movl   $0x7,(%esp)
c0104790:	e8 0a e7 ff ff       	call   c0102e9f <cmos_write_byte>
c0104795:	8b 45 08             	mov    0x8(%ebp),%eax
c0104798:	0f b6 40 08          	movzbl 0x8(%eax),%eax
c010479c:	0f b6 c0             	movzbl %al,%eax
c010479f:	89 44 24 04          	mov    %eax,0x4(%esp)
c01047a3:	8d 45 f6             	lea    -0xa(%ebp),%eax
c01047a6:	89 04 24             	mov    %eax,(%esp)
c01047a9:	e8 47 fb ff ff       	call   c01042f5 <BCD_ENCODE>
c01047ae:	0f b6 c0             	movzbl %al,%eax
c01047b1:	89 44 24 04          	mov    %eax,0x4(%esp)
c01047b5:	c7 04 24 08 00 00 00 	movl   $0x8,(%esp)
c01047bc:	e8 de e6 ff ff       	call   c0102e9f <cmos_write_byte>
c01047c1:	8b 45 08             	mov    0x8(%ebp),%eax
c01047c4:	0f b6 40 09          	movzbl 0x9(%eax),%eax
c01047c8:	0f b6 c0             	movzbl %al,%eax
c01047cb:	89 44 24 04          	mov    %eax,0x4(%esp)
c01047cf:	8d 45 f6             	lea    -0xa(%ebp),%eax
c01047d2:	89 04 24             	mov    %eax,(%esp)
c01047d5:	e8 1b fb ff ff       	call   c01042f5 <BCD_ENCODE>
c01047da:	0f b6 c0             	movzbl %al,%eax
c01047dd:	89 44 24 04          	mov    %eax,0x4(%esp)
c01047e1:	c7 04 24 09 00 00 00 	movl   $0x9,(%esp)
c01047e8:	e8 b2 e6 ff ff       	call   c0102e9f <cmos_write_byte>
c01047ed:	8b 45 08             	mov    0x8(%ebp),%eax
c01047f0:	0f b6 40 0a          	movzbl 0xa(%eax),%eax
c01047f4:	0f b6 c0             	movzbl %al,%eax
c01047f7:	89 44 24 04          	mov    %eax,0x4(%esp)
c01047fb:	8d 45 f6             	lea    -0xa(%ebp),%eax
c01047fe:	89 04 24             	mov    %eax,(%esp)
c0104801:	e8 ef fa ff ff       	call   c01042f5 <BCD_ENCODE>
c0104806:	0f b6 c0             	movzbl %al,%eax
c0104809:	89 44 24 04          	mov    %eax,0x4(%esp)
c010480d:	c7 04 24 32 00 00 00 	movl   $0x32,(%esp)
c0104814:	e8 86 e6 ff ff       	call   c0102e9f <cmos_write_byte>
c0104819:	c9                   	leave  
c010481a:	c3                   	ret    

c010481b <unix_time>:
c010481b:	55                   	push   %ebp
c010481c:	89 e5                	mov    %esp,%ebp
c010481e:	53                   	push   %ebx
c010481f:	83 ec 10             	sub    $0x10,%esp
c0104822:	8b 45 08             	mov    0x8(%ebp),%eax
c0104825:	0f b6 40 0a          	movzbl 0xa(%eax),%eax
c0104829:	0f b6 c0             	movzbl %al,%eax
c010482c:	6b d0 64             	imul   $0x64,%eax,%edx
c010482f:	8b 45 08             	mov    0x8(%ebp),%eax
c0104832:	0f b6 40 09          	movzbl 0x9(%eax),%eax
c0104836:	0f b6 c0             	movzbl %al,%eax
c0104839:	01 d0                	add    %edx,%eax
c010483b:	89 45 f4             	mov    %eax,-0xc(%ebp)
c010483e:	8b 45 f4             	mov    -0xc(%ebp),%eax
c0104841:	2d b1 07 00 00       	sub    $0x7b1,%eax
c0104846:	8d 50 03             	lea    0x3(%eax),%edx
c0104849:	85 c0                	test   %eax,%eax
c010484b:	0f 48 c2             	cmovs  %edx,%eax
c010484e:	c1 f8 02             	sar    $0x2,%eax
c0104851:	89 c3                	mov    %eax,%ebx
c0104853:	8b 45 f4             	mov    -0xc(%ebp),%eax
c0104856:	8d 88 93 f8 ff ff    	lea    -0x76d(%eax),%ecx
c010485c:	ba 1f 85 eb 51       	mov    $0x51eb851f,%edx
c0104861:	89 c8                	mov    %ecx,%eax
c0104863:	f7 ea                	imul   %edx
c0104865:	c1 fa 05             	sar    $0x5,%edx
c0104868:	89 c8                	mov    %ecx,%eax
c010486a:	c1 f8 1f             	sar    $0x1f,%eax
c010486d:	29 c2                	sub    %eax,%edx
c010486f:	89 d0                	mov    %edx,%eax
c0104871:	29 c3                	sub    %eax,%ebx
c0104873:	8b 45 f4             	mov    -0xc(%ebp),%eax
c0104876:	8d 88 bf f9 ff ff    	lea    -0x641(%eax),%ecx
c010487c:	ba 1f 85 eb 51       	mov    $0x51eb851f,%edx
c0104881:	89 c8                	mov    %ecx,%eax
c0104883:	f7 ea                	imul   %edx
c0104885:	c1 fa 07             	sar    $0x7,%edx
c0104888:	89 c8                	mov    %ecx,%eax
c010488a:	c1 f8 1f             	sar    $0x1f,%eax
c010488d:	29 c2                	sub    %eax,%edx
c010488f:	89 d0                	mov    %edx,%eax
c0104891:	01 d8                	add    %ebx,%eax
c0104893:	89 45 f0             	mov    %eax,-0x10(%ebp)
c0104896:	8b 45 08             	mov    0x8(%ebp),%eax
c0104899:	0f b6 00             	movzbl (%eax),%eax
c010489c:	0f b6 d0             	movzbl %al,%edx
c010489f:	8b 45 08             	mov    0x8(%ebp),%eax
c01048a2:	0f b6 40 02          	movzbl 0x2(%eax),%eax
c01048a6:	0f b6 c0             	movzbl %al,%eax
c01048a9:	c1 e0 02             	shl    $0x2,%eax
c01048ac:	89 c1                	mov    %eax,%ecx
c01048ae:	c1 e1 04             	shl    $0x4,%ecx
c01048b1:	29 c1                	sub    %eax,%ecx
c01048b3:	89 c8                	mov    %ecx,%eax
c01048b5:	01 c2                	add    %eax,%edx
c01048b7:	8b 45 08             	mov    0x8(%ebp),%eax
c01048ba:	0f b6 40 04          	movzbl 0x4(%eax),%eax
c01048be:	0f b6 c0             	movzbl %al,%eax
c01048c1:	69 c0 10 0e 00 00    	imul   $0xe10,%eax,%eax
c01048c7:	8d 0c 02             	lea    (%edx,%eax,1),%ecx
c01048ca:	8b 45 08             	mov    0x8(%ebp),%eax
c01048cd:	0f b6 40 08          	movzbl 0x8(%eax),%eax
c01048d1:	0f b6 c0             	movzbl %al,%eax
c01048d4:	83 e8 01             	sub    $0x1,%eax
c01048d7:	8b 14 85 20 e3 10 c0 	mov    -0x3fef1ce0(,%eax,4),%edx
c01048de:	8b 45 08             	mov    0x8(%ebp),%eax
c01048e1:	0f b6 40 07          	movzbl 0x7(%eax),%eax
c01048e5:	0f b6 c0             	movzbl %al,%eax
c01048e8:	01 d0                	add    %edx,%eax
c01048ea:	83 e8 01             	sub    $0x1,%eax
c01048ed:	69 c0 80 51 01 00    	imul   $0x15180,%eax,%eax
c01048f3:	01 c1                	add    %eax,%ecx
c01048f5:	8b 45 f4             	mov    -0xc(%ebp),%eax
c01048f8:	2d b2 07 00 00       	sub    $0x7b2,%eax
c01048fd:	69 d0 6d 01 00 00    	imul   $0x16d,%eax,%edx
c0104903:	8b 45 f0             	mov    -0x10(%ebp),%eax
c0104906:	01 d0                	add    %edx,%eax
c0104908:	69 c0 80 51 01 00    	imul   $0x15180,%eax,%eax
c010490e:	01 c8                	add    %ecx,%eax
c0104910:	89 45 f8             	mov    %eax,-0x8(%ebp)
c0104913:	8b 45 08             	mov    0x8(%ebp),%eax
c0104916:	0f b6 40 08          	movzbl 0x8(%eax),%eax
c010491a:	3c 02                	cmp    $0x2,%al
c010491c:	76 5a                	jbe    c0104978 <unix_time+0x15d>
c010491e:	8b 45 f4             	mov    -0xc(%ebp),%eax
c0104921:	83 e0 03             	and    $0x3,%eax
c0104924:	85 c0                	test   %eax,%eax
c0104926:	75 50                	jne    c0104978 <unix_time+0x15d>
c0104928:	8b 4d f4             	mov    -0xc(%ebp),%ecx
c010492b:	ba 1f 85 eb 51       	mov    $0x51eb851f,%edx
c0104930:	89 c8                	mov    %ecx,%eax
c0104932:	f7 ea                	imul   %edx
c0104934:	c1 fa 05             	sar    $0x5,%edx
c0104937:	89 c8                	mov    %ecx,%eax
c0104939:	c1 f8 1f             	sar    $0x1f,%eax
c010493c:	29 c2                	sub    %eax,%edx
c010493e:	89 d0                	mov    %edx,%eax
c0104940:	6b c0 64             	imul   $0x64,%eax,%eax
c0104943:	29 c1                	sub    %eax,%ecx
c0104945:	89 c8                	mov    %ecx,%eax
c0104947:	85 c0                	test   %eax,%eax
c0104949:	75 26                	jne    c0104971 <unix_time+0x156>
c010494b:	8b 4d f4             	mov    -0xc(%ebp),%ecx
c010494e:	ba 1f 85 eb 51       	mov    $0x51eb851f,%edx
c0104953:	89 c8                	mov    %ecx,%eax
c0104955:	f7 ea                	imul   %edx
c0104957:	c1 fa 07             	sar    $0x7,%edx
c010495a:	89 c8                	mov    %ecx,%eax
c010495c:	c1 f8 1f             	sar    $0x1f,%eax
c010495f:	29 c2                	sub    %eax,%edx
c0104961:	89 d0                	mov    %edx,%eax
c0104963:	69 c0 90 01 00 00    	imul   $0x190,%eax,%eax
c0104969:	29 c1                	sub    %eax,%ecx
c010496b:	89 c8                	mov    %ecx,%eax
c010496d:	85 c0                	test   %eax,%eax
c010496f:	75 07                	jne    c0104978 <unix_time+0x15d>
c0104971:	81 45 f8 80 51 01 00 	addl   $0x15180,-0x8(%ebp)
c0104978:	8b 45 f8             	mov    -0x8(%ebp),%eax
c010497b:	83 c4 10             	add    $0x10,%esp
c010497e:	5b                   	pop    %ebx
c010497f:	5d                   	pop    %ebp
c0104980:	c3                   	ret    

c0104981 <sys_time>:
c0104981:	55                   	push   %ebp
c0104982:	89 e5                	mov    %esp,%ebp
c0104984:	83 ec 28             	sub    $0x28,%esp
c0104987:	a1 28 60 11 c0       	mov    0xc0116028,%eax
c010498c:	89 04 24             	mov    %eax,(%esp)
c010498f:	e8 52 fa ff ff       	call   c01043e6 <update_time>
c0104994:	a1 28 60 11 c0       	mov    0xc0116028,%eax
c0104999:	89 04 24             	mov    %eax,(%esp)
c010499c:	e8 7a fe ff ff       	call   c010481b <unix_time>
c01049a1:	89 45 f4             	mov    %eax,-0xc(%ebp)
c01049a4:	8b 45 08             	mov    0x8(%ebp),%eax
c01049a7:	8b 00                	mov    (%eax),%eax
c01049a9:	8b 40 1c             	mov    0x1c(%eax),%eax
c01049ac:	85 c0                	test   %eax,%eax
c01049ae:	74 0d                	je     c01049bd <sys_time+0x3c>
c01049b0:	8b 45 08             	mov    0x8(%ebp),%eax
c01049b3:	8b 00                	mov    (%eax),%eax
c01049b5:	8b 40 1c             	mov    0x1c(%eax),%eax
c01049b8:	8b 55 f4             	mov    -0xc(%ebp),%edx
c01049bb:	89 10                	mov    %edx,(%eax)
c01049bd:	8b 45 f4             	mov    -0xc(%ebp),%eax
c01049c0:	c9                   	leave  
c01049c1:	c3                   	ret    

c01049c2 <print_time>:
c01049c2:	55                   	push   %ebp
c01049c3:	89 e5                	mov    %esp,%ebp
c01049c5:	53                   	push   %ebx
c01049c6:	83 ec 34             	sub    $0x34,%esp
c01049c9:	8b 45 08             	mov    0x8(%ebp),%eax
c01049cc:	0f b6 40 06          	movzbl 0x6(%eax),%eax
c01049d0:	0f b6 c0             	movzbl %al,%eax
c01049d3:	83 f8 06             	cmp    $0x6,%eax
c01049d6:	77 47                	ja     c0104a1f <print_time+0x5d>
c01049d8:	8b 04 85 cc e3 10 c0 	mov    -0x3fef1c34(,%eax,4),%eax
c01049df:	ff e0                	jmp    *%eax
c01049e1:	c7 45 f4 50 e3 10 c0 	movl   $0xc010e350,-0xc(%ebp)
c01049e8:	eb 35                	jmp    c0104a1f <print_time+0x5d>
c01049ea:	c7 45 f4 58 e3 10 c0 	movl   $0xc010e358,-0xc(%ebp)
c01049f1:	eb 2c                	jmp    c0104a1f <print_time+0x5d>
c01049f3:	c7 45 f4 5f e3 10 c0 	movl   $0xc010e35f,-0xc(%ebp)
c01049fa:	eb 23                	jmp    c0104a1f <print_time+0x5d>
c01049fc:	c7 45 f4 68 e3 10 c0 	movl   $0xc010e368,-0xc(%ebp)
c0104a03:	eb 1a                	jmp    c0104a1f <print_time+0x5d>
c0104a05:	c7 45 f4 71 e3 10 c0 	movl   $0xc010e371,-0xc(%ebp)
c0104a0c:	eb 11                	jmp    c0104a1f <print_time+0x5d>
c0104a0e:	c7 45 f4 7c e3 10 c0 	movl   $0xc010e37c,-0xc(%ebp)
c0104a15:	eb 08                	jmp    c0104a1f <print_time+0x5d>
c0104a17:	c7 45 f4 84 e3 10 c0 	movl   $0xc010e384,-0xc(%ebp)
c0104a1e:	90                   	nop
c0104a1f:	8b 45 08             	mov    0x8(%ebp),%eax
c0104a22:	0f b6 40 09          	movzbl 0x9(%eax),%eax
c0104a26:	0f b6 c8             	movzbl %al,%ecx
c0104a29:	8b 45 08             	mov    0x8(%ebp),%eax
c0104a2c:	0f b6 40 08          	movzbl 0x8(%eax),%eax
c0104a30:	0f b6 d0             	movzbl %al,%edx
c0104a33:	8b 45 08             	mov    0x8(%ebp),%eax
c0104a36:	0f b6 40 07          	movzbl 0x7(%eax),%eax
c0104a3a:	0f b6 c0             	movzbl %al,%eax
c0104a3d:	8b 5d f4             	mov    -0xc(%ebp),%ebx
c0104a40:	89 5c 24 10          	mov    %ebx,0x10(%esp)
c0104a44:	89 4c 24 0c          	mov    %ecx,0xc(%esp)
c0104a48:	89 54 24 08          	mov    %edx,0x8(%esp)
c0104a4c:	89 44 24 04          	mov    %eax,0x4(%esp)
c0104a50:	c7 04 24 8c e3 10 c0 	movl   $0xc010e38c,(%esp)
c0104a57:	e8 ef 6d 00 00       	call   c010b84b <printf>
c0104a5c:	8b 45 08             	mov    0x8(%ebp),%eax
c0104a5f:	0f b6 00             	movzbl (%eax),%eax
c0104a62:	0f b6 c8             	movzbl %al,%ecx
c0104a65:	8b 45 08             	mov    0x8(%ebp),%eax
c0104a68:	0f b6 40 02          	movzbl 0x2(%eax),%eax
c0104a6c:	0f b6 d0             	movzbl %al,%edx
c0104a6f:	8b 45 08             	mov    0x8(%ebp),%eax
c0104a72:	0f b6 40 04          	movzbl 0x4(%eax),%eax
c0104a76:	0f b6 c0             	movzbl %al,%eax
c0104a79:	89 4c 24 0c          	mov    %ecx,0xc(%esp)
c0104a7d:	89 54 24 08          	mov    %edx,0x8(%esp)
c0104a81:	89 44 24 04          	mov    %eax,0x4(%esp)
c0104a85:	c7 04 24 ae e3 10 c0 	movl   $0xc010e3ae,(%esp)
c0104a8c:	e8 ba 6d 00 00       	call   c010b84b <printf>
c0104a91:	83 c4 34             	add    $0x34,%esp
c0104a94:	5b                   	pop    %ebx
c0104a95:	5d                   	pop    %ebp
c0104a96:	c3                   	ret    

c0104a97 <outb>:
c0104a97:	55                   	push   %ebp
c0104a98:	89 e5                	mov    %esp,%ebp
c0104a9a:	83 ec 08             	sub    $0x8,%esp
c0104a9d:	8b 55 08             	mov    0x8(%ebp),%edx
c0104aa0:	8b 45 0c             	mov    0xc(%ebp),%eax
c0104aa3:	66 89 55 fc          	mov    %dx,-0x4(%ebp)
c0104aa7:	88 45 f8             	mov    %al,-0x8(%ebp)
c0104aaa:	0f b7 55 fc          	movzwl -0x4(%ebp),%edx
c0104aae:	0f b6 45 f8          	movzbl -0x8(%ebp),%eax
c0104ab2:	ee                   	out    %al,(%dx)
c0104ab3:	c9                   	leave  
c0104ab4:	c3                   	ret    

c0104ab5 <crtc_write>:
c0104ab5:	55                   	push   %ebp
c0104ab6:	89 e5                	mov    %esp,%ebp
c0104ab8:	83 ec 10             	sub    $0x10,%esp
c0104abb:	8b 55 08             	mov    0x8(%ebp),%edx
c0104abe:	8b 45 0c             	mov    0xc(%ebp),%eax
c0104ac1:	88 55 fc             	mov    %dl,-0x4(%ebp)
c0104ac4:	88 45 f8             	mov    %al,-0x8(%ebp)
c0104ac7:	0f b6 45 fc          	movzbl -0x4(%ebp),%eax
c0104acb:	89 44 24 04          	mov    %eax,0x4(%esp)
c0104acf:	c7 04 24 d4 03 00 00 	movl   $0x3d4,(%esp)
c0104ad6:	e8 bc ff ff ff       	call   c0104a97 <outb>
c0104adb:	0f b6 45 f8          	movzbl -0x8(%ebp),%eax
c0104adf:	89 44 24 04          	mov    %eax,0x4(%esp)
c0104ae3:	c7 04 24 d5 03 00 00 	movl   $0x3d5,(%esp)
c0104aea:	e8 a8 ff ff ff       	call   c0104a97 <outb>
c0104aef:	c9                   	leave  
c0104af0:	c3                   	ret    

c0104af1 <inb>:
c0104af1:	55                   	push   %ebp
c0104af2:	89 e5                	mov    %esp,%ebp
c0104af4:	83 ec 14             	sub    $0x14,%esp
c0104af7:	8b 45 08             	mov    0x8(%ebp),%eax
c0104afa:	66 89 45 ec          	mov    %ax,-0x14(%ebp)
c0104afe:	0f b7 45 ec          	movzwl -0x14(%ebp),%eax
c0104b02:	89 c2                	mov    %eax,%edx
c0104b04:	ec                   	in     (%dx),%al
c0104b05:	88 45 ff             	mov    %al,-0x1(%ebp)
c0104b08:	0f b6 45 ff          	movzbl -0x1(%ebp),%eax
c0104b0c:	c9                   	leave  
c0104b0d:	c3                   	ret    

c0104b0e <outb>:
c0104b0e:	55                   	push   %ebp
c0104b0f:	89 e5                	mov    %esp,%ebp
c0104b11:	83 ec 08             	sub    $0x8,%esp
c0104b14:	8b 55 08             	mov    0x8(%ebp),%edx
c0104b17:	8b 45 0c             	mov    0xc(%ebp),%eax
c0104b1a:	66 89 55 fc          	mov    %dx,-0x4(%ebp)
c0104b1e:	88 45 f8             	mov    %al,-0x8(%ebp)
c0104b21:	0f b7 55 fc          	movzwl -0x4(%ebp),%edx
c0104b25:	0f b6 45 f8          	movzbl -0x8(%ebp),%eax
c0104b29:	ee                   	out    %al,(%dx)
c0104b2a:	c9                   	leave  
c0104b2b:	c3                   	ret    

c0104b2c <sound_on>:
c0104b2c:	55                   	push   %ebp
c0104b2d:	89 e5                	mov    %esp,%ebp
c0104b2f:	83 ec 08             	sub    $0x8,%esp
c0104b32:	c7 04 24 61 00 00 00 	movl   $0x61,(%esp)
c0104b39:	e8 b3 ff ff ff       	call   c0104af1 <inb>
c0104b3e:	83 c8 03             	or     $0x3,%eax
c0104b41:	0f b6 c0             	movzbl %al,%eax
c0104b44:	89 44 24 04          	mov    %eax,0x4(%esp)
c0104b48:	c7 04 24 61 00 00 00 	movl   $0x61,(%esp)
c0104b4f:	e8 ba ff ff ff       	call   c0104b0e <outb>
c0104b54:	c9                   	leave  
c0104b55:	c3                   	ret    

c0104b56 <sound_off>:
c0104b56:	55                   	push   %ebp
c0104b57:	89 e5                	mov    %esp,%ebp
c0104b59:	83 ec 08             	sub    $0x8,%esp
c0104b5c:	c7 04 24 61 00 00 00 	movl   $0x61,(%esp)
c0104b63:	e8 89 ff ff ff       	call   c0104af1 <inb>
c0104b68:	0f b6 c0             	movzbl %al,%eax
c0104b6b:	25 fc 00 00 00       	and    $0xfc,%eax
c0104b70:	89 44 24 04          	mov    %eax,0x4(%esp)
c0104b74:	c7 04 24 61 00 00 00 	movl   $0x61,(%esp)
c0104b7b:	e8 8e ff ff ff       	call   c0104b0e <outb>
c0104b80:	c9                   	leave  
c0104b81:	c3                   	ret    

c0104b82 <sound>:
c0104b82:	55                   	push   %ebp
c0104b83:	89 e5                	mov    %esp,%ebp
c0104b85:	83 ec 18             	sub    $0x18,%esp
c0104b88:	b8 dc 34 12 00       	mov    $0x1234dc,%eax
c0104b8d:	ba 00 00 00 00       	mov    $0x0,%edx
c0104b92:	f7 75 08             	divl   0x8(%ebp)
c0104b95:	66 89 45 fa          	mov    %ax,-0x6(%ebp)
c0104b99:	c7 44 24 04 b6 00 00 	movl   $0xb6,0x4(%esp)
c0104ba0:	00 
c0104ba1:	c7 04 24 43 00 00 00 	movl   $0x43,(%esp)
c0104ba8:	e8 61 ff ff ff       	call   c0104b0e <outb>
c0104bad:	0f b7 45 fa          	movzwl -0x6(%ebp),%eax
c0104bb1:	0f b6 c0             	movzbl %al,%eax
c0104bb4:	89 44 24 04          	mov    %eax,0x4(%esp)
c0104bb8:	c7 04 24 42 00 00 00 	movl   $0x42,(%esp)
c0104bbf:	e8 4a ff ff ff       	call   c0104b0e <outb>
c0104bc4:	0f b7 45 fa          	movzwl -0x6(%ebp),%eax
c0104bc8:	66 c1 e8 08          	shr    $0x8,%ax
c0104bcc:	0f b6 c0             	movzbl %al,%eax
c0104bcf:	89 44 24 04          	mov    %eax,0x4(%esp)
c0104bd3:	c7 04 24 42 00 00 00 	movl   $0x42,(%esp)
c0104bda:	e8 2f ff ff ff       	call   c0104b0e <outb>
c0104bdf:	e8 48 ff ff ff       	call   c0104b2c <sound_on>
c0104be4:	c7 45 fc 00 00 00 00 	movl   $0x0,-0x4(%ebp)
c0104beb:	eb 04                	jmp    c0104bf1 <sound+0x6f>
c0104bed:	83 45 fc 01          	addl   $0x1,-0x4(%ebp)
c0104bf1:	8b 55 fc             	mov    -0x4(%ebp),%edx
c0104bf4:	8b 45 0c             	mov    0xc(%ebp),%eax
c0104bf7:	69 c0 10 27 00 00    	imul   $0x2710,%eax,%eax
c0104bfd:	39 c2                	cmp    %eax,%edx
c0104bff:	72 ec                	jb     c0104bed <sound+0x6b>
c0104c01:	e8 50 ff ff ff       	call   c0104b56 <sound_off>
c0104c06:	c9                   	leave  
c0104c07:	c3                   	ret    

c0104c08 <subsystem_isr>:
c0104c08:	55                   	push   %ebp
c0104c09:	89 e5                	mov    %esp,%ebp
c0104c0b:	83 ec 28             	sub    $0x28,%esp
c0104c0e:	a1 2c 60 11 c0       	mov    0xc011602c,%eax
c0104c13:	89 04 24             	mov    %eax,(%esp)
c0104c16:	e8 b3 74 00 00       	call   c010c0ce <list_set_first>
c0104c1b:	eb 4f                	jmp    c0104c6c <subsystem_isr+0x64>
c0104c1d:	a1 2c 60 11 c0       	mov    0xc011602c,%eax
c0104c22:	89 04 24             	mov    %eax,(%esp)
c0104c25:	e8 51 74 00 00       	call   c010c07b <list_get_current>
c0104c2a:	89 45 f4             	mov    %eax,-0xc(%ebp)
c0104c2d:	8b 45 f4             	mov    -0xc(%ebp),%eax
c0104c30:	8b 10                	mov    (%eax),%edx
c0104c32:	8b 45 08             	mov    0x8(%ebp),%eax
c0104c35:	39 c2                	cmp    %eax,%edx
c0104c37:	75 26                	jne    c0104c5f <subsystem_isr+0x57>
c0104c39:	8b 45 f4             	mov    -0xc(%ebp),%eax
c0104c3c:	8b 40 04             	mov    0x4(%eax),%eax
c0104c3f:	c7 44 24 0c 00 00 00 	movl   $0x0,0xc(%esp)
c0104c46:	00 
c0104c47:	c7 44 24 08 00 00 00 	movl   $0x0,0x8(%esp)
c0104c4e:	00 
c0104c4f:	c7 44 24 04 05 00 00 	movl   $0x5,0x4(%esp)
c0104c56:	00 
c0104c57:	89 04 24             	mov    %eax,(%esp)
c0104c5a:	e8 63 3d 00 00       	call   c01089c2 <send_package>
c0104c5f:	a1 2c 60 11 c0       	mov    0xc011602c,%eax
c0104c64:	89 04 24             	mov    %eax,(%esp)
c0104c67:	e8 1d 74 00 00       	call   c010c089 <list_next>
c0104c6c:	a1 2c 60 11 c0       	mov    0xc011602c,%eax
c0104c71:	89 04 24             	mov    %eax,(%esp)
c0104c74:	e8 3d 74 00 00       	call   c010c0b6 <list_is_last>
c0104c79:	85 c0                	test   %eax,%eax
c0104c7b:	75 11                	jne    c0104c8e <subsystem_isr+0x86>
c0104c7d:	a1 2c 60 11 c0       	mov    0xc011602c,%eax
c0104c82:	89 04 24             	mov    %eax,(%esp)
c0104c85:	e8 6f 74 00 00       	call   c010c0f9 <list_is_empty>
c0104c8a:	85 c0                	test   %eax,%eax
c0104c8c:	74 8f                	je     c0104c1d <subsystem_isr+0x15>
c0104c8e:	c9                   	leave  
c0104c8f:	c3                   	ret    

c0104c90 <INIT_UHOST>:
c0104c90:	55                   	push   %ebp
c0104c91:	89 e5                	mov    %esp,%ebp
c0104c93:	56                   	push   %esi
c0104c94:	53                   	push   %ebx
c0104c95:	83 ec 50             	sub    $0x50,%esp
c0104c98:	e8 a0 70 00 00       	call   c010bd3d <list_create>
c0104c9d:	a3 30 60 11 c0       	mov    %eax,0xc0116030
c0104ca2:	e8 96 70 00 00       	call   c010bd3d <list_create>
c0104ca7:	a3 2c 60 11 c0       	mov    %eax,0xc011602c
c0104cac:	8b 45 0c             	mov    0xc(%ebp),%eax
c0104caf:	8b 40 04             	mov    0x4(%eax),%eax
c0104cb2:	89 45 f0             	mov    %eax,-0x10(%ebp)
c0104cb5:	8b 45 0c             	mov    0xc(%ebp),%eax
c0104cb8:	8b 00                	mov    (%eax),%eax
c0104cba:	89 45 ec             	mov    %eax,-0x14(%ebp)
c0104cbd:	c7 04 24 e8 e3 10 c0 	movl   $0xc010e3e8,(%esp)
c0104cc4:	e8 f5 f3 ff ff       	call   c01040be <puts>
c0104cc9:	c7 45 f4 00 00 00 00 	movl   $0x0,-0xc(%ebp)
c0104cd0:	e9 32 01 00 00       	jmp    c0104e07 <INIT_UHOST+0x177>
c0104cd5:	8b 45 f4             	mov    -0xc(%ebp),%eax
c0104cd8:	8d 14 85 00 00 00 00 	lea    0x0(,%eax,4),%edx
c0104cdf:	8b 45 ec             	mov    -0x14(%ebp),%eax
c0104ce2:	01 d0                	add    %edx,%eax
c0104ce4:	8b 00                	mov    (%eax),%eax
c0104ce6:	89 44 24 04          	mov    %eax,0x4(%esp)
c0104cea:	8b 45 f0             	mov    -0x10(%ebp),%eax
c0104ced:	89 04 24             	mov    %eax,(%esp)
c0104cf0:	e8 89 34 00 00       	call   c010817e <find_module>
c0104cf5:	89 45 e8             	mov    %eax,-0x18(%ebp)
c0104cf8:	83 7d e8 00          	cmpl   $0x0,-0x18(%ebp)
c0104cfc:	0f 84 01 01 00 00    	je     c0104e03 <INIT_UHOST+0x173>
c0104d02:	8b 45 e8             	mov    -0x18(%ebp),%eax
c0104d05:	8b 50 04             	mov    0x4(%eax),%edx
c0104d08:	8b 45 e8             	mov    -0x18(%ebp),%eax
c0104d0b:	8b 00                	mov    (%eax),%eax
c0104d0d:	29 c2                	sub    %eax,%edx
c0104d0f:	89 d0                	mov    %edx,%eax
c0104d11:	89 45 e4             	mov    %eax,-0x1c(%ebp)
c0104d14:	8b 45 e4             	mov    -0x1c(%ebp),%eax
c0104d17:	05 ff 0f 00 00       	add    $0xfff,%eax
c0104d1c:	25 00 f0 ff ff       	and    $0xfffff000,%eax
c0104d21:	c1 e8 0c             	shr    $0xc,%eax
c0104d24:	89 45 e0             	mov    %eax,-0x20(%ebp)
c0104d27:	8b 4d e0             	mov    -0x20(%ebp),%ecx
c0104d2a:	8b 45 e8             	mov    -0x18(%ebp),%eax
c0104d2d:	8b 10                	mov    (%eax),%edx
c0104d2f:	a1 60 49 11 c0       	mov    0xc0114960,%eax
c0104d34:	c7 44 24 0c 02 00 00 	movl   $0x2,0xc(%esp)
c0104d3b:	00 
c0104d3c:	89 4c 24 08          	mov    %ecx,0x8(%esp)
c0104d40:	89 54 24 04          	mov    %edx,0x4(%esp)
c0104d44:	89 04 24             	mov    %eax,(%esp)
c0104d47:	e8 c4 82 00 00       	call   c010d010 <vmm_automap_kernel_range>
c0104d4c:	89 45 dc             	mov    %eax,-0x24(%ebp)
c0104d4f:	c7 44 24 04 00 00 00 	movl   $0x0,0x4(%esp)
c0104d56:	00 
c0104d57:	c7 04 24 00 00 00 00 	movl   $0x0,(%esp)
c0104d5e:	e8 93 1a 00 00       	call   c01067f6 <vfs_create_pipe>
c0104d63:	89 c6                	mov    %eax,%esi
c0104d65:	c7 44 24 04 00 00 00 	movl   $0x0,0x4(%esp)
c0104d6c:	00 
c0104d6d:	c7 04 24 00 00 00 00 	movl   $0x0,(%esp)
c0104d74:	e8 7d 1a 00 00       	call   c01067f6 <vfs_create_pipe>
c0104d79:	89 c3                	mov    %eax,%ebx
c0104d7b:	c7 44 24 04 00 00 00 	movl   $0x0,0x4(%esp)
c0104d82:	00 
c0104d83:	c7 04 24 00 00 00 00 	movl   $0x0,(%esp)
c0104d8a:	e8 67 1a 00 00       	call   c01067f6 <vfs_create_pipe>
c0104d8f:	89 74 24 08          	mov    %esi,0x8(%esp)
c0104d93:	89 5c 24 04          	mov    %ebx,0x4(%esp)
c0104d97:	89 04 24             	mov    %eax,(%esp)
c0104d9a:	e8 10 3a 00 00       	call   c01087af <new_pckmgr>
c0104d9f:	89 45 d8             	mov    %eax,-0x28(%ebp)
c0104da2:	8b 45 d8             	mov    -0x28(%ebp),%eax
c0104da5:	83 c0 08             	add    $0x8,%eax
c0104da8:	89 44 24 0c          	mov    %eax,0xc(%esp)
c0104dac:	c7 44 24 08 00 00 00 	movl   $0x0,0x8(%esp)
c0104db3:	00 
c0104db4:	c7 44 24 04 00 00 00 	movl   $0x0,0x4(%esp)
c0104dbb:	00 
c0104dbc:	8b 45 dc             	mov    -0x24(%ebp),%eax
c0104dbf:	89 04 24             	mov    %eax,(%esp)
c0104dc2:	e8 63 0c 00 00       	call   c0105a2a <load_elf>
c0104dc7:	a1 30 60 11 c0       	mov    0xc0116030,%eax
c0104dcc:	8b 55 d8             	mov    -0x28(%ebp),%edx
c0104dcf:	89 54 24 04          	mov    %edx,0x4(%esp)
c0104dd3:	89 04 24             	mov    %eax,(%esp)
c0104dd6:	e8 ac 70 00 00       	call   c010be87 <list_push_front>
c0104ddb:	8b 45 f4             	mov    -0xc(%ebp),%eax
c0104dde:	8d 14 85 00 00 00 00 	lea    0x0(,%eax,4),%edx
c0104de5:	8b 45 ec             	mov    -0x14(%ebp),%eax
c0104de8:	01 d0                	add    %edx,%eax
c0104dea:	8b 00                	mov    (%eax),%eax
c0104dec:	8b 55 e8             	mov    -0x18(%ebp),%edx
c0104def:	89 54 24 08          	mov    %edx,0x8(%esp)
c0104df3:	89 44 24 04          	mov    %eax,0x4(%esp)
c0104df7:	c7 04 24 fa e3 10 c0 	movl   $0xc010e3fa,(%esp)
c0104dfe:	e8 48 6a 00 00       	call   c010b84b <printf>
c0104e03:	83 45 f4 01          	addl   $0x1,-0xc(%ebp)
c0104e07:	8b 45 f4             	mov    -0xc(%ebp),%eax
c0104e0a:	8d 14 85 00 00 00 00 	lea    0x0(,%eax,4),%edx
c0104e11:	8b 45 ec             	mov    -0x14(%ebp),%eax
c0104e14:	01 d0                	add    %edx,%eax
c0104e16:	8b 00                	mov    (%eax),%eax
c0104e18:	85 c0                	test   %eax,%eax
c0104e1a:	0f 85 b5 fe ff ff    	jne    c0104cd5 <INIT_UHOST+0x45>
c0104e20:	c7 04 24 0a 00 00 00 	movl   $0xa,(%esp)
c0104e27:	e8 33 f1 ff ff       	call   c0103f5f <putchar>
c0104e2c:	a1 30 60 11 c0       	mov    0xc0116030,%eax
c0104e31:	89 04 24             	mov    %eax,(%esp)
c0104e34:	e8 c0 72 00 00       	call   c010c0f9 <list_is_empty>
c0104e39:	85 c0                	test   %eax,%eax
c0104e3b:	74 0e                	je     c0104e4b <INIT_UHOST+0x1bb>
c0104e3d:	c7 04 24 02 e4 10 c0 	movl   $0xc010e402,(%esp)
c0104e44:	e8 75 f2 ff ff       	call   c01040be <puts>
c0104e49:	eb fe                	jmp    c0104e49 <INIT_UHOST+0x1b9>
c0104e4b:	a1 30 60 11 c0       	mov    0xc0116030,%eax
c0104e50:	89 04 24             	mov    %eax,(%esp)
c0104e53:	e8 76 72 00 00       	call   c010c0ce <list_set_first>
c0104e58:	a1 30 60 11 c0       	mov    0xc0116030,%eax
c0104e5d:	89 04 24             	mov    %eax,(%esp)
c0104e60:	e8 16 72 00 00       	call   c010c07b <list_get_current>
c0104e65:	89 45 d8             	mov    %eax,-0x28(%ebp)
c0104e68:	8b 45 d8             	mov    -0x28(%ebp),%eax
c0104e6b:	89 04 24             	mov    %eax,(%esp)
c0104e6e:	e8 9a 3e 00 00       	call   c0108d0d <fetch_pipe>
c0104e73:	89 45 d4             	mov    %eax,-0x2c(%ebp)
c0104e76:	83 7d d4 00          	cmpl   $0x0,-0x2c(%ebp)
c0104e7a:	75 2e                	jne    c0104eaa <INIT_UHOST+0x21a>
c0104e7c:	a1 30 60 11 c0       	mov    0xc0116030,%eax
c0104e81:	89 04 24             	mov    %eax,(%esp)
c0104e84:	e8 00 72 00 00       	call   c010c089 <list_next>
c0104e89:	a1 30 60 11 c0       	mov    0xc0116030,%eax
c0104e8e:	89 04 24             	mov    %eax,(%esp)
c0104e91:	e8 20 72 00 00       	call   c010c0b6 <list_is_last>
c0104e96:	85 c0                	test   %eax,%eax
c0104e98:	74 0e                	je     c0104ea8 <INIT_UHOST+0x218>
c0104e9a:	a1 30 60 11 c0       	mov    0xc0116030,%eax
c0104e9f:	89 04 24             	mov    %eax,(%esp)
c0104ea2:	e8 27 72 00 00       	call   c010c0ce <list_set_first>
c0104ea7:	90                   	nop
c0104ea8:	eb ae                	jmp    c0104e58 <INIT_UHOST+0x1c8>
c0104eaa:	8b 45 d4             	mov    -0x2c(%ebp),%eax
c0104ead:	8b 40 08             	mov    0x8(%eax),%eax
c0104eb0:	83 f8 02             	cmp    $0x2,%eax
c0104eb3:	74 32                	je     c0104ee7 <INIT_UHOST+0x257>
c0104eb5:	83 f8 02             	cmp    $0x2,%eax
c0104eb8:	77 09                	ja     c0104ec3 <INIT_UHOST+0x233>
c0104eba:	85 c0                	test   %eax,%eax
c0104ebc:	74 18                	je     c0104ed6 <INIT_UHOST+0x246>
c0104ebe:	e9 9c 01 00 00       	jmp    c010505f <INIT_UHOST+0x3cf>
c0104ec3:	83 f8 05             	cmp    $0x5,%eax
c0104ec6:	0f 84 a7 00 00 00    	je     c0104f73 <INIT_UHOST+0x2e3>
c0104ecc:	83 f8 07             	cmp    $0x7,%eax
c0104ecf:	74 53                	je     c0104f24 <INIT_UHOST+0x294>
c0104ed1:	e9 89 01 00 00       	jmp    c010505f <INIT_UHOST+0x3cf>
c0104ed6:	c7 04 24 20 e4 10 c0 	movl   $0xc010e420,(%esp)
c0104edd:	e8 dc f1 ff ff       	call   c01040be <puts>
c0104ee2:	e9 a2 01 00 00       	jmp    c0105089 <INIT_UHOST+0x3f9>
c0104ee7:	c7 04 24 38 e4 10 c0 	movl   $0xc010e438,(%esp)
c0104eee:	e8 cb f1 ff ff       	call   c01040be <puts>
c0104ef3:	8b 45 d4             	mov    -0x2c(%ebp),%eax
c0104ef6:	8b 00                	mov    (%eax),%eax
c0104ef8:	c7 44 24 10 5c e4 10 	movl   $0xc010e45c,0x10(%esp)
c0104eff:	c0 
c0104f00:	c7 44 24 0c 04 00 00 	movl   $0x4,0xc(%esp)
c0104f07:	00 
c0104f08:	c7 44 24 08 03 00 00 	movl   $0x3,0x8(%esp)
c0104f0f:	00 
c0104f10:	89 44 24 04          	mov    %eax,0x4(%esp)
c0104f14:	8b 45 d8             	mov    -0x28(%ebp),%eax
c0104f17:	89 04 24             	mov    %eax,(%esp)
c0104f1a:	e8 50 3b 00 00       	call   c0108a6f <respond>
c0104f1f:	e9 65 01 00 00       	jmp    c0105089 <INIT_UHOST+0x3f9>
c0104f24:	8b 45 d4             	mov    -0x2c(%ebp),%eax
c0104f27:	8b 40 0c             	mov    0xc(%eax),%eax
c0104f2a:	8b 00                	mov    (%eax),%eax
c0104f2c:	89 44 24 04          	mov    %eax,0x4(%esp)
c0104f30:	c7 04 24 61 e4 10 c0 	movl   $0xc010e461,(%esp)
c0104f37:	e8 0f 69 00 00       	call   c010b84b <printf>
c0104f3c:	c7 45 cc 00 00 00 00 	movl   $0x0,-0x34(%ebp)
c0104f43:	8b 45 d4             	mov    -0x2c(%ebp),%eax
c0104f46:	8b 00                	mov    (%eax),%eax
c0104f48:	8d 55 cc             	lea    -0x34(%ebp),%edx
c0104f4b:	89 54 24 10          	mov    %edx,0x10(%esp)
c0104f4f:	c7 44 24 0c 04 00 00 	movl   $0x4,0xc(%esp)
c0104f56:	00 
c0104f57:	c7 44 24 08 02 00 00 	movl   $0x2,0x8(%esp)
c0104f5e:	00 
c0104f5f:	89 44 24 04          	mov    %eax,0x4(%esp)
c0104f63:	8b 45 d8             	mov    -0x28(%ebp),%eax
c0104f66:	89 04 24             	mov    %eax,(%esp)
c0104f69:	e8 01 3b 00 00       	call   c0108a6f <respond>
c0104f6e:	e9 16 01 00 00       	jmp    c0105089 <INIT_UHOST+0x3f9>
c0104f73:	8b 45 d4             	mov    -0x2c(%ebp),%eax
c0104f76:	8b 40 0c             	mov    0xc(%eax),%eax
c0104f79:	8b 00                	mov    (%eax),%eax
c0104f7b:	89 44 24 04          	mov    %eax,0x4(%esp)
c0104f7f:	c7 04 24 80 e4 10 c0 	movl   $0xc010e480,(%esp)
c0104f86:	e8 c0 68 00 00       	call   c010b84b <printf>
c0104f8b:	c7 04 24 08 00 00 00 	movl   $0x8,(%esp)
c0104f92:	e8 0c d1 ff ff       	call   c01020a3 <malloc>
c0104f97:	89 45 d0             	mov    %eax,-0x30(%ebp)
c0104f9a:	8b 45 d4             	mov    -0x2c(%ebp),%eax
c0104f9d:	8b 40 0c             	mov    0xc(%eax),%eax
c0104fa0:	8b 10                	mov    (%eax),%edx
c0104fa2:	8b 45 d0             	mov    -0x30(%ebp),%eax
c0104fa5:	89 10                	mov    %edx,(%eax)
c0104fa7:	8b 45 d0             	mov    -0x30(%ebp),%eax
c0104faa:	8b 55 d8             	mov    -0x28(%ebp),%edx
c0104fad:	89 50 04             	mov    %edx,0x4(%eax)
c0104fb0:	a1 2c 60 11 c0       	mov    0xc011602c,%eax
c0104fb5:	8b 55 d0             	mov    -0x30(%ebp),%edx
c0104fb8:	89 54 24 04          	mov    %edx,0x4(%esp)
c0104fbc:	89 04 24             	mov    %eax,(%esp)
c0104fbf:	e8 c3 6e 00 00       	call   c010be87 <list_push_front>
c0104fc4:	8b 45 d0             	mov    -0x30(%ebp),%eax
c0104fc7:	8b 00                	mov    (%eax),%eax
c0104fc9:	c7 44 24 08 08 4c 10 	movl   $0xc0104c08,0x8(%esp)
c0104fd0:	c0 
c0104fd1:	c7 44 24 04 00 00 00 	movl   $0x0,0x4(%esp)
c0104fd8:	00 
c0104fd9:	89 04 24             	mov    %eax,(%esp)
c0104fdc:	e8 fe 06 00 00       	call   c01056df <add_int_trigger>
c0104fe1:	85 c0                	test   %eax,%eax
c0104fe3:	74 3a                	je     c010501f <INIT_UHOST+0x38f>
c0104fe5:	c7 04 24 a8 e4 10 c0 	movl   $0xc010e4a8,(%esp)
c0104fec:	e8 cd f0 ff ff       	call   c01040be <puts>
c0104ff1:	8b 45 d4             	mov    -0x2c(%ebp),%eax
c0104ff4:	8b 00                	mov    (%eax),%eax
c0104ff6:	c7 44 24 10 00 00 00 	movl   $0x0,0x10(%esp)
c0104ffd:	00 
c0104ffe:	c7 44 24 0c 00 00 00 	movl   $0x0,0xc(%esp)
c0105005:	00 
c0105006:	c7 44 24 08 02 00 00 	movl   $0x2,0x8(%esp)
c010500d:	00 
c010500e:	89 44 24 04          	mov    %eax,0x4(%esp)
c0105012:	8b 45 d8             	mov    -0x28(%ebp),%eax
c0105015:	89 04 24             	mov    %eax,(%esp)
c0105018:	e8 52 3a 00 00       	call   c0108a6f <respond>
c010501d:	eb 6a                	jmp    c0105089 <INIT_UHOST+0x3f9>
c010501f:	c7 04 24 b0 e4 10 c0 	movl   $0xc010e4b0,(%esp)
c0105026:	e8 93 f0 ff ff       	call   c01040be <puts>
c010502b:	c7 45 c8 ff ff ff ff 	movl   $0xffffffff,-0x38(%ebp)
c0105032:	8b 45 d4             	mov    -0x2c(%ebp),%eax
c0105035:	8b 00                	mov    (%eax),%eax
c0105037:	8d 55 c8             	lea    -0x38(%ebp),%edx
c010503a:	89 54 24 10          	mov    %edx,0x10(%esp)
c010503e:	c7 44 24 0c 04 00 00 	movl   $0x4,0xc(%esp)
c0105045:	00 
c0105046:	c7 44 24 08 00 00 00 	movl   $0x0,0x8(%esp)
c010504d:	00 
c010504e:	89 44 24 04          	mov    %eax,0x4(%esp)
c0105052:	8b 45 d8             	mov    -0x28(%ebp),%eax
c0105055:	89 04 24             	mov    %eax,(%esp)
c0105058:	e8 12 3a 00 00       	call   c0108a6f <respond>
c010505d:	eb 2a                	jmp    c0105089 <INIT_UHOST+0x3f9>
c010505f:	8b 45 d4             	mov    -0x2c(%ebp),%eax
c0105062:	8b 48 08             	mov    0x8(%eax),%ecx
c0105065:	8b 45 d4             	mov    -0x2c(%ebp),%eax
c0105068:	8b 50 04             	mov    0x4(%eax),%edx
c010506b:	8b 45 d4             	mov    -0x2c(%ebp),%eax
c010506e:	8b 00                	mov    (%eax),%eax
c0105070:	89 4c 24 0c          	mov    %ecx,0xc(%esp)
c0105074:	89 54 24 08          	mov    %edx,0x8(%esp)
c0105078:	89 44 24 04          	mov    %eax,0x4(%esp)
c010507c:	c7 04 24 d0 e4 10 c0 	movl   $0xc010e4d0,(%esp)
c0105083:	e8 c3 67 00 00       	call   c010b84b <printf>
c0105088:	90                   	nop
c0105089:	e9 ca fd ff ff       	jmp    c0104e58 <INIT_UHOST+0x1c8>

c010508e <INIT_TRIGGER>:
c010508e:	55                   	push   %ebp
c010508f:	89 e5                	mov    %esp,%ebp
c0105091:	83 ec 08             	sub    $0x8,%esp
c0105094:	e8 a4 6c 00 00       	call   c010bd3d <list_create>
c0105099:	a3 10 40 11 c0       	mov    %eax,0xc0114010
c010509e:	e8 9a 6c 00 00       	call   c010bd3d <list_create>
c01050a3:	a3 14 40 11 c0       	mov    %eax,0xc0114014
c01050a8:	c9                   	leave  
c01050a9:	c3                   	ret    

c01050aa <suspend_thread>:
c01050aa:	55                   	push   %ebp
c01050ab:	89 e5                	mov    %esp,%ebp
c01050ad:	83 ec 18             	sub    $0x18,%esp
c01050b0:	a1 14 60 11 c0       	mov    0xc0116014,%eax
c01050b5:	89 04 24             	mov    %eax,(%esp)
c01050b8:	e8 3c 70 00 00       	call   c010c0f9 <list_is_empty>
c01050bd:	85 c0                	test   %eax,%eax
c01050bf:	74 02                	je     c01050c3 <suspend_thread+0x19>
c01050c1:	eb 7b                	jmp    c010513e <suspend_thread+0x94>
c01050c3:	a1 14 60 11 c0       	mov    0xc0116014,%eax
c01050c8:	89 04 24             	mov    %eax,(%esp)
c01050cb:	e8 fe 6f 00 00       	call   c010c0ce <list_set_first>
c01050d0:	eb 0d                	jmp    c01050df <suspend_thread+0x35>
c01050d2:	a1 14 60 11 c0       	mov    0xc0116014,%eax
c01050d7:	89 04 24             	mov    %eax,(%esp)
c01050da:	e8 aa 6f 00 00       	call   c010c089 <list_next>
c01050df:	a1 14 60 11 c0       	mov    0xc0116014,%eax
c01050e4:	89 04 24             	mov    %eax,(%esp)
c01050e7:	e8 8f 6f 00 00       	call   c010c07b <list_get_current>
c01050ec:	3b 45 08             	cmp    0x8(%ebp),%eax
c01050ef:	74 11                	je     c0105102 <suspend_thread+0x58>
c01050f1:	a1 14 60 11 c0       	mov    0xc0116014,%eax
c01050f6:	89 04 24             	mov    %eax,(%esp)
c01050f9:	e8 b8 6f 00 00       	call   c010c0b6 <list_is_last>
c01050fe:	85 c0                	test   %eax,%eax
c0105100:	74 d0                	je     c01050d2 <suspend_thread+0x28>
c0105102:	a1 14 60 11 c0       	mov    0xc0116014,%eax
c0105107:	89 04 24             	mov    %eax,(%esp)
c010510a:	e8 6c 6f 00 00       	call   c010c07b <list_get_current>
c010510f:	3b 45 08             	cmp    0x8(%ebp),%eax
c0105112:	75 2a                	jne    c010513e <suspend_thread+0x94>
c0105114:	a1 14 60 11 c0       	mov    0xc0116014,%eax
c0105119:	89 04 24             	mov    %eax,(%esp)
c010511c:	e8 cd 6e 00 00       	call   c010bfee <list_remove>
c0105121:	8b 45 08             	mov    0x8(%ebp),%eax
c0105124:	c7 40 10 00 00 00 00 	movl   $0x0,0x10(%eax)
c010512b:	8b 45 08             	mov    0x8(%ebp),%eax
c010512e:	0f b7 40 14          	movzwl 0x14(%eax),%eax
c0105132:	83 e0 fe             	and    $0xfffffffe,%eax
c0105135:	89 c2                	mov    %eax,%edx
c0105137:	8b 45 08             	mov    0x8(%ebp),%eax
c010513a:	66 89 50 14          	mov    %dx,0x14(%eax)
c010513e:	c9                   	leave  
c010513f:	c3                   	ret    

c0105140 <suspend_process>:
c0105140:	55                   	push   %ebp
c0105141:	89 e5                	mov    %esp,%ebp
c0105143:	83 ec 28             	sub    $0x28,%esp
c0105146:	8b 45 08             	mov    0x8(%ebp),%eax
c0105149:	8b 40 24             	mov    0x24(%eax),%eax
c010514c:	89 04 24             	mov    %eax,(%esp)
c010514f:	e8 a5 6f 00 00       	call   c010c0f9 <list_is_empty>
c0105154:	85 c0                	test   %eax,%eax
c0105156:	74 02                	je     c010515a <suspend_process+0x1a>
c0105158:	eb 70                	jmp    c01051ca <suspend_process+0x8a>
c010515a:	8b 45 08             	mov    0x8(%ebp),%eax
c010515d:	8b 40 24             	mov    0x24(%eax),%eax
c0105160:	89 04 24             	mov    %eax,(%esp)
c0105163:	e8 66 6f 00 00       	call   c010c0ce <list_set_first>
c0105168:	eb 3b                	jmp    c01051a5 <suspend_process+0x65>
c010516a:	8b 45 08             	mov    0x8(%ebp),%eax
c010516d:	8b 40 24             	mov    0x24(%eax),%eax
c0105170:	89 04 24             	mov    %eax,(%esp)
c0105173:	e8 03 6f 00 00       	call   c010c07b <list_get_current>
c0105178:	89 45 f4             	mov    %eax,-0xc(%ebp)
c010517b:	8b 45 f4             	mov    -0xc(%ebp),%eax
c010517e:	0f b7 40 14          	movzwl 0x14(%eax),%eax
c0105182:	0f b7 c0             	movzwl %ax,%eax
c0105185:	83 e0 01             	and    $0x1,%eax
c0105188:	85 c0                	test   %eax,%eax
c010518a:	74 0b                	je     c0105197 <suspend_process+0x57>
c010518c:	8b 45 f4             	mov    -0xc(%ebp),%eax
c010518f:	89 04 24             	mov    %eax,(%esp)
c0105192:	e8 13 ff ff ff       	call   c01050aa <suspend_thread>
c0105197:	8b 45 08             	mov    0x8(%ebp),%eax
c010519a:	8b 40 24             	mov    0x24(%eax),%eax
c010519d:	89 04 24             	mov    %eax,(%esp)
c01051a0:	e8 e4 6e 00 00       	call   c010c089 <list_next>
c01051a5:	8b 45 08             	mov    0x8(%ebp),%eax
c01051a8:	8b 40 24             	mov    0x24(%eax),%eax
c01051ab:	89 04 24             	mov    %eax,(%esp)
c01051ae:	e8 03 6f 00 00       	call   c010c0b6 <list_is_last>
c01051b3:	85 c0                	test   %eax,%eax
c01051b5:	74 b3                	je     c010516a <suspend_process+0x2a>
c01051b7:	8b 45 08             	mov    0x8(%ebp),%eax
c01051ba:	0f b7 40 38          	movzwl 0x38(%eax),%eax
c01051be:	83 e0 fe             	and    $0xfffffffe,%eax
c01051c1:	89 c2                	mov    %eax,%edx
c01051c3:	8b 45 08             	mov    0x8(%ebp),%eax
c01051c6:	66 89 50 38          	mov    %dx,0x38(%eax)
c01051ca:	c9                   	leave  
c01051cb:	c3                   	ret    

c01051cc <wakeup_thread>:
c01051cc:	55                   	push   %ebp
c01051cd:	89 e5                	mov    %esp,%ebp
c01051cf:	83 ec 18             	sub    $0x18,%esp
c01051d2:	a1 14 60 11 c0       	mov    0xc0116014,%eax
c01051d7:	8b 55 08             	mov    0x8(%ebp),%edx
c01051da:	89 54 24 04          	mov    %edx,0x4(%esp)
c01051de:	89 04 24             	mov    %eax,(%esp)
c01051e1:	e8 a1 6c 00 00       	call   c010be87 <list_push_front>
c01051e6:	8b 45 08             	mov    0x8(%ebp),%eax
c01051e9:	0f b7 40 14          	movzwl 0x14(%eax),%eax
c01051ed:	83 c8 01             	or     $0x1,%eax
c01051f0:	89 c2                	mov    %eax,%edx
c01051f2:	8b 45 08             	mov    0x8(%ebp),%eax
c01051f5:	66 89 50 14          	mov    %dx,0x14(%eax)
c01051f9:	c9                   	leave  
c01051fa:	c3                   	ret    

c01051fb <wakeup_process>:
c01051fb:	55                   	push   %ebp
c01051fc:	89 e5                	mov    %esp,%ebp
c01051fe:	83 ec 28             	sub    $0x28,%esp
c0105201:	8b 45 08             	mov    0x8(%ebp),%eax
c0105204:	89 45 f4             	mov    %eax,-0xc(%ebp)
c0105207:	8b 45 f4             	mov    -0xc(%ebp),%eax
c010520a:	8b 40 24             	mov    0x24(%eax),%eax
c010520d:	89 04 24             	mov    %eax,(%esp)
c0105210:	e8 b9 6e 00 00       	call   c010c0ce <list_set_first>
c0105215:	eb 3b                	jmp    c0105252 <wakeup_process+0x57>
c0105217:	8b 45 f4             	mov    -0xc(%ebp),%eax
c010521a:	8b 40 24             	mov    0x24(%eax),%eax
c010521d:	89 04 24             	mov    %eax,(%esp)
c0105220:	e8 56 6e 00 00       	call   c010c07b <list_get_current>
c0105225:	89 45 f0             	mov    %eax,-0x10(%ebp)
c0105228:	8b 45 f0             	mov    -0x10(%ebp),%eax
c010522b:	0f b7 40 14          	movzwl 0x14(%eax),%eax
c010522f:	0f b7 c0             	movzwl %ax,%eax
c0105232:	83 e0 01             	and    $0x1,%eax
c0105235:	85 c0                	test   %eax,%eax
c0105237:	75 0b                	jne    c0105244 <wakeup_process+0x49>
c0105239:	8b 45 f0             	mov    -0x10(%ebp),%eax
c010523c:	89 04 24             	mov    %eax,(%esp)
c010523f:	e8 88 ff ff ff       	call   c01051cc <wakeup_thread>
c0105244:	8b 45 f4             	mov    -0xc(%ebp),%eax
c0105247:	8b 40 24             	mov    0x24(%eax),%eax
c010524a:	89 04 24             	mov    %eax,(%esp)
c010524d:	e8 37 6e 00 00       	call   c010c089 <list_next>
c0105252:	8b 45 f4             	mov    -0xc(%ebp),%eax
c0105255:	8b 40 24             	mov    0x24(%eax),%eax
c0105258:	89 04 24             	mov    %eax,(%esp)
c010525b:	e8 99 6e 00 00       	call   c010c0f9 <list_is_empty>
c0105260:	85 c0                	test   %eax,%eax
c0105262:	75 12                	jne    c0105276 <wakeup_process+0x7b>
c0105264:	8b 45 f4             	mov    -0xc(%ebp),%eax
c0105267:	8b 40 24             	mov    0x24(%eax),%eax
c010526a:	89 04 24             	mov    %eax,(%esp)
c010526d:	e8 44 6e 00 00       	call   c010c0b6 <list_is_last>
c0105272:	85 c0                	test   %eax,%eax
c0105274:	74 a1                	je     c0105217 <wakeup_process+0x1c>
c0105276:	8b 45 08             	mov    0x8(%ebp),%eax
c0105279:	0f b7 40 38          	movzwl 0x38(%eax),%eax
c010527d:	83 c8 01             	or     $0x1,%eax
c0105280:	89 c2                	mov    %eax,%edx
c0105282:	8b 45 08             	mov    0x8(%ebp),%eax
c0105285:	66 89 50 38          	mov    %dx,0x38(%eax)
c0105289:	c9                   	leave  
c010528a:	c3                   	ret    

c010528b <remove_event_trigger>:
c010528b:	55                   	push   %ebp
c010528c:	89 e5                	mov    %esp,%ebp
c010528e:	83 ec 28             	sub    $0x28,%esp
c0105291:	c7 45 f4 00 00 00 00 	movl   $0x0,-0xc(%ebp)
c0105298:	83 7d 0c 00          	cmpl   $0x0,0xc(%ebp)
c010529c:	0f 85 a5 00 00 00    	jne    c0105347 <remove_event_trigger+0xbc>
c01052a2:	a1 10 40 11 c0       	mov    0xc0114010,%eax
c01052a7:	89 04 24             	mov    %eax,(%esp)
c01052aa:	e8 1f 6e 00 00       	call   c010c0ce <list_set_first>
c01052af:	eb 67                	jmp    c0105318 <remove_event_trigger+0x8d>
c01052b1:	a1 10 40 11 c0       	mov    0xc0114010,%eax
c01052b6:	89 04 24             	mov    %eax,(%esp)
c01052b9:	e8 bd 6d 00 00       	call   c010c07b <list_get_current>
c01052be:	89 45 f0             	mov    %eax,-0x10(%ebp)
c01052c1:	8b 45 f0             	mov    -0x10(%ebp),%eax
c01052c4:	8b 40 0c             	mov    0xc(%eax),%eax
c01052c7:	3b 45 08             	cmp    0x8(%ebp),%eax
c01052ca:	75 3f                	jne    c010530b <remove_event_trigger+0x80>
c01052cc:	a1 10 40 11 c0       	mov    0xc0114010,%eax
c01052d1:	89 04 24             	mov    %eax,(%esp)
c01052d4:	e8 15 6d 00 00       	call   c010bfee <list_remove>
c01052d9:	8b 45 f0             	mov    -0x10(%ebp),%eax
c01052dc:	8b 00                	mov    (%eax),%eax
c01052de:	83 f8 02             	cmp    $0x2,%eax
c01052e1:	75 19                	jne    c01052fc <remove_event_trigger+0x71>
c01052e3:	8b 45 f0             	mov    -0x10(%ebp),%eax
c01052e6:	8b 40 04             	mov    0x4(%eax),%eax
c01052e9:	89 c2                	mov    %eax,%edx
c01052eb:	a1 14 40 11 c0       	mov    0xc0114014,%eax
c01052f0:	89 54 24 04          	mov    %edx,0x4(%esp)
c01052f4:	89 04 24             	mov    %eax,(%esp)
c01052f7:	e8 8b 6b 00 00       	call   c010be87 <list_push_front>
c01052fc:	8b 45 f0             	mov    -0x10(%ebp),%eax
c01052ff:	89 04 24             	mov    %eax,(%esp)
c0105302:	e8 b7 cd ff ff       	call   c01020be <free>
c0105307:	83 45 f4 01          	addl   $0x1,-0xc(%ebp)
c010530b:	a1 10 40 11 c0       	mov    0xc0114010,%eax
c0105310:	89 04 24             	mov    %eax,(%esp)
c0105313:	e8 71 6d 00 00       	call   c010c089 <list_next>
c0105318:	a1 10 40 11 c0       	mov    0xc0114010,%eax
c010531d:	89 04 24             	mov    %eax,(%esp)
c0105320:	e8 91 6d 00 00       	call   c010c0b6 <list_is_last>
c0105325:	85 c0                	test   %eax,%eax
c0105327:	0f 85 c3 00 00 00    	jne    c01053f0 <remove_event_trigger+0x165>
c010532d:	a1 10 40 11 c0       	mov    0xc0114010,%eax
c0105332:	89 04 24             	mov    %eax,(%esp)
c0105335:	e8 bf 6d 00 00       	call   c010c0f9 <list_is_empty>
c010533a:	85 c0                	test   %eax,%eax
c010533c:	0f 84 6f ff ff ff    	je     c01052b1 <remove_event_trigger+0x26>
c0105342:	e9 a9 00 00 00       	jmp    c01053f0 <remove_event_trigger+0x165>
c0105347:	a1 10 40 11 c0       	mov    0xc0114010,%eax
c010534c:	89 04 24             	mov    %eax,(%esp)
c010534f:	e8 7a 6d 00 00       	call   c010c0ce <list_set_first>
c0105354:	eb 74                	jmp    c01053ca <remove_event_trigger+0x13f>
c0105356:	a1 10 40 11 c0       	mov    0xc0114010,%eax
c010535b:	89 04 24             	mov    %eax,(%esp)
c010535e:	e8 18 6d 00 00       	call   c010c07b <list_get_current>
c0105363:	89 45 ec             	mov    %eax,-0x14(%ebp)
c0105366:	8b 45 ec             	mov    -0x14(%ebp),%eax
c0105369:	8b 40 0c             	mov    0xc(%eax),%eax
c010536c:	3b 45 08             	cmp    0x8(%ebp),%eax
c010536f:	75 4c                	jne    c01053bd <remove_event_trigger+0x132>
c0105371:	8b 45 ec             	mov    -0x14(%ebp),%eax
c0105374:	8b 40 04             	mov    0x4(%eax),%eax
c0105377:	3b 45 0c             	cmp    0xc(%ebp),%eax
c010537a:	75 41                	jne    c01053bd <remove_event_trigger+0x132>
c010537c:	a1 10 40 11 c0       	mov    0xc0114010,%eax
c0105381:	89 04 24             	mov    %eax,(%esp)
c0105384:	e8 65 6c 00 00       	call   c010bfee <list_remove>
c0105389:	8b 45 ec             	mov    -0x14(%ebp),%eax
c010538c:	8b 00                	mov    (%eax),%eax
c010538e:	83 f8 02             	cmp    $0x2,%eax
c0105391:	75 19                	jne    c01053ac <remove_event_trigger+0x121>
c0105393:	8b 45 ec             	mov    -0x14(%ebp),%eax
c0105396:	8b 40 04             	mov    0x4(%eax),%eax
c0105399:	89 c2                	mov    %eax,%edx
c010539b:	a1 14 40 11 c0       	mov    0xc0114014,%eax
c01053a0:	89 54 24 04          	mov    %edx,0x4(%esp)
c01053a4:	89 04 24             	mov    %eax,(%esp)
c01053a7:	e8 db 6a 00 00       	call   c010be87 <list_push_front>
c01053ac:	8b 45 ec             	mov    -0x14(%ebp),%eax
c01053af:	89 04 24             	mov    %eax,(%esp)
c01053b2:	e8 07 cd ff ff       	call   c01020be <free>
c01053b7:	83 45 f4 01          	addl   $0x1,-0xc(%ebp)
c01053bb:	eb 33                	jmp    c01053f0 <remove_event_trigger+0x165>
c01053bd:	a1 10 40 11 c0       	mov    0xc0114010,%eax
c01053c2:	89 04 24             	mov    %eax,(%esp)
c01053c5:	e8 bf 6c 00 00       	call   c010c089 <list_next>
c01053ca:	a1 10 40 11 c0       	mov    0xc0114010,%eax
c01053cf:	89 04 24             	mov    %eax,(%esp)
c01053d2:	e8 df 6c 00 00       	call   c010c0b6 <list_is_last>
c01053d7:	85 c0                	test   %eax,%eax
c01053d9:	75 15                	jne    c01053f0 <remove_event_trigger+0x165>
c01053db:	a1 10 40 11 c0       	mov    0xc0114010,%eax
c01053e0:	89 04 24             	mov    %eax,(%esp)
c01053e3:	e8 11 6d 00 00       	call   c010c0f9 <list_is_empty>
c01053e8:	85 c0                	test   %eax,%eax
c01053ea:	0f 84 66 ff ff ff    	je     c0105356 <remove_event_trigger+0xcb>
c01053f0:	8b 45 f4             	mov    -0xc(%ebp),%eax
c01053f3:	c9                   	leave  
c01053f4:	c3                   	ret    

c01053f5 <remove_event>:
c01053f5:	55                   	push   %ebp
c01053f6:	89 e5                	mov    %esp,%ebp
c01053f8:	83 ec 28             	sub    $0x28,%esp
c01053fb:	c7 45 f4 00 00 00 00 	movl   $0x0,-0xc(%ebp)
c0105402:	a1 10 40 11 c0       	mov    0xc0114010,%eax
c0105407:	89 04 24             	mov    %eax,(%esp)
c010540a:	e8 bf 6c 00 00       	call   c010c0ce <list_set_first>
c010540f:	eb 69                	jmp    c010547a <remove_event+0x85>
c0105411:	a1 10 40 11 c0       	mov    0xc0114010,%eax
c0105416:	89 04 24             	mov    %eax,(%esp)
c0105419:	e8 5d 6c 00 00       	call   c010c07b <list_get_current>
c010541e:	89 45 f0             	mov    %eax,-0x10(%ebp)
c0105421:	8b 45 f0             	mov    -0x10(%ebp),%eax
c0105424:	8b 40 04             	mov    0x4(%eax),%eax
c0105427:	3b 45 08             	cmp    0x8(%ebp),%eax
c010542a:	75 41                	jne    c010546d <remove_event+0x78>
c010542c:	a1 10 40 11 c0       	mov    0xc0114010,%eax
c0105431:	89 04 24             	mov    %eax,(%esp)
c0105434:	e8 b5 6b 00 00       	call   c010bfee <list_remove>
c0105439:	8b 45 f0             	mov    -0x10(%ebp),%eax
c010543c:	8b 00                	mov    (%eax),%eax
c010543e:	83 f8 02             	cmp    $0x2,%eax
c0105441:	75 19                	jne    c010545c <remove_event+0x67>
c0105443:	8b 45 f0             	mov    -0x10(%ebp),%eax
c0105446:	8b 40 04             	mov    0x4(%eax),%eax
c0105449:	89 c2                	mov    %eax,%edx
c010544b:	a1 14 40 11 c0       	mov    0xc0114014,%eax
c0105450:	89 54 24 04          	mov    %edx,0x4(%esp)
c0105454:	89 04 24             	mov    %eax,(%esp)
c0105457:	e8 2b 6a 00 00       	call   c010be87 <list_push_front>
c010545c:	8b 45 f0             	mov    -0x10(%ebp),%eax
c010545f:	89 04 24             	mov    %eax,(%esp)
c0105462:	e8 57 cc ff ff       	call   c01020be <free>
c0105467:	83 45 f4 01          	addl   $0x1,-0xc(%ebp)
c010546b:	eb 33                	jmp    c01054a0 <remove_event+0xab>
c010546d:	a1 10 40 11 c0       	mov    0xc0114010,%eax
c0105472:	89 04 24             	mov    %eax,(%esp)
c0105475:	e8 0f 6c 00 00       	call   c010c089 <list_next>
c010547a:	a1 10 40 11 c0       	mov    0xc0114010,%eax
c010547f:	89 04 24             	mov    %eax,(%esp)
c0105482:	e8 2f 6c 00 00       	call   c010c0b6 <list_is_last>
c0105487:	85 c0                	test   %eax,%eax
c0105489:	75 15                	jne    c01054a0 <remove_event+0xab>
c010548b:	a1 10 40 11 c0       	mov    0xc0114010,%eax
c0105490:	89 04 24             	mov    %eax,(%esp)
c0105493:	e8 61 6c 00 00       	call   c010c0f9 <list_is_empty>
c0105498:	85 c0                	test   %eax,%eax
c010549a:	0f 84 71 ff ff ff    	je     c0105411 <remove_event+0x1c>
c01054a0:	8b 45 f4             	mov    -0xc(%ebp),%eax
c01054a3:	c9                   	leave  
c01054a4:	c3                   	ret    

c01054a5 <send_event>:
c01054a5:	55                   	push   %ebp
c01054a6:	89 e5                	mov    %esp,%ebp
c01054a8:	83 ec 38             	sub    $0x38,%esp
c01054ab:	c7 45 f4 00 00 00 00 	movl   $0x0,-0xc(%ebp)
c01054b2:	a1 10 40 11 c0       	mov    0xc0114010,%eax
c01054b7:	89 04 24             	mov    %eax,(%esp)
c01054ba:	e8 0f 6c 00 00       	call   c010c0ce <list_set_first>
c01054bf:	e9 03 01 00 00       	jmp    c01055c7 <send_event+0x122>
c01054c4:	a1 10 40 11 c0       	mov    0xc0114010,%eax
c01054c9:	89 04 24             	mov    %eax,(%esp)
c01054cc:	e8 aa 6b 00 00       	call   c010c07b <list_get_current>
c01054d1:	89 45 f0             	mov    %eax,-0x10(%ebp)
c01054d4:	8b 45 f0             	mov    -0x10(%ebp),%eax
c01054d7:	8b 40 04             	mov    0x4(%eax),%eax
c01054da:	3b 45 08             	cmp    0x8(%ebp),%eax
c01054dd:	0f 85 d7 00 00 00    	jne    c01055ba <send_event+0x115>
c01054e3:	8b 45 f0             	mov    -0x10(%ebp),%eax
c01054e6:	8b 00                	mov    (%eax),%eax
c01054e8:	83 f8 02             	cmp    $0x2,%eax
c01054eb:	0f 85 c9 00 00 00    	jne    c01055ba <send_event+0x115>
c01054f1:	8b 45 f0             	mov    -0x10(%ebp),%eax
c01054f4:	8b 40 08             	mov    0x8(%eax),%eax
c01054f7:	85 c0                	test   %eax,%eax
c01054f9:	74 2b                	je     c0105526 <send_event+0x81>
c01054fb:	8b 45 f0             	mov    -0x10(%ebp),%eax
c01054fe:	8b 40 0c             	mov    0xc(%eax),%eax
c0105501:	89 04 24             	mov    %eax,(%esp)
c0105504:	e8 f2 fc ff ff       	call   c01051fb <wakeup_process>
c0105509:	8b 45 f0             	mov    -0x10(%ebp),%eax
c010550c:	8b 50 04             	mov    0x4(%eax),%edx
c010550f:	8b 45 f0             	mov    -0x10(%ebp),%eax
c0105512:	8b 40 0c             	mov    0xc(%eax),%eax
c0105515:	89 54 24 04          	mov    %edx,0x4(%esp)
c0105519:	89 04 24             	mov    %eax,(%esp)
c010551c:	e8 6a fd ff ff       	call   c010528b <remove_event_trigger>
c0105521:	e9 82 00 00 00       	jmp    c01055a8 <send_event+0x103>
c0105526:	8b 45 f0             	mov    -0x10(%ebp),%eax
c0105529:	8b 40 0c             	mov    0xc(%eax),%eax
c010552c:	89 45 ec             	mov    %eax,-0x14(%ebp)
c010552f:	8b 45 f0             	mov    -0x10(%ebp),%eax
c0105532:	8b 50 04             	mov    0x4(%eax),%edx
c0105535:	8b 45 f0             	mov    -0x10(%ebp),%eax
c0105538:	8b 40 0c             	mov    0xc(%eax),%eax
c010553b:	89 54 24 04          	mov    %edx,0x4(%esp)
c010553f:	89 04 24             	mov    %eax,(%esp)
c0105542:	e8 44 fd ff ff       	call   c010528b <remove_event_trigger>
c0105547:	8b 45 ec             	mov    -0x14(%ebp),%eax
c010554a:	89 04 24             	mov    %eax,(%esp)
c010554d:	e8 7a fc ff ff       	call   c01051cc <wakeup_thread>
c0105552:	8b 45 f0             	mov    -0x10(%ebp),%eax
c0105555:	8b 40 10             	mov    0x10(%eax),%eax
c0105558:	85 c0                	test   %eax,%eax
c010555a:	74 4c                	je     c01055a8 <send_event+0x103>
c010555c:	8b 45 ec             	mov    -0x14(%ebp),%eax
c010555f:	89 45 e8             	mov    %eax,-0x18(%ebp)
c0105562:	a1 10 60 11 c0       	mov    0xc0116010,%eax
c0105567:	89 45 e4             	mov    %eax,-0x1c(%ebp)
c010556a:	8b 45 ec             	mov    -0x14(%ebp),%eax
c010556d:	a3 10 60 11 c0       	mov    %eax,0xc0116010
c0105572:	a1 10 60 11 c0       	mov    0xc0116010,%eax
c0105577:	83 c0 08             	add    $0x8,%eax
c010557a:	89 04 24             	mov    %eax,(%esp)
c010557d:	e8 0f 79 00 00       	call   c010ce91 <vmm_switch_context>
c0105582:	8b 45 f0             	mov    -0x10(%ebp),%eax
c0105585:	8b 40 10             	mov    0x10(%eax),%eax
c0105588:	8b 55 e8             	mov    -0x18(%ebp),%edx
c010558b:	89 14 24             	mov    %edx,(%esp)
c010558e:	ff d0                	call   *%eax
c0105590:	8b 45 e4             	mov    -0x1c(%ebp),%eax
c0105593:	a3 10 60 11 c0       	mov    %eax,0xc0116010
c0105598:	a1 10 60 11 c0       	mov    0xc0116010,%eax
c010559d:	83 c0 08             	add    $0x8,%eax
c01055a0:	89 04 24             	mov    %eax,(%esp)
c01055a3:	e8 e9 78 00 00       	call   c010ce91 <vmm_switch_context>
c01055a8:	8b 45 08             	mov    0x8(%ebp),%eax
c01055ab:	89 04 24             	mov    %eax,(%esp)
c01055ae:	e8 42 fe ff ff       	call   c01053f5 <remove_event>
c01055b3:	c7 45 f4 01 00 00 00 	movl   $0x1,-0xc(%ebp)
c01055ba:	a1 10 40 11 c0       	mov    0xc0114010,%eax
c01055bf:	89 04 24             	mov    %eax,(%esp)
c01055c2:	e8 c2 6a 00 00       	call   c010c089 <list_next>
c01055c7:	a1 10 40 11 c0       	mov    0xc0114010,%eax
c01055cc:	89 04 24             	mov    %eax,(%esp)
c01055cf:	e8 e2 6a 00 00       	call   c010c0b6 <list_is_last>
c01055d4:	85 c0                	test   %eax,%eax
c01055d6:	75 15                	jne    c01055ed <send_event+0x148>
c01055d8:	a1 10 40 11 c0       	mov    0xc0114010,%eax
c01055dd:	89 04 24             	mov    %eax,(%esp)
c01055e0:	e8 14 6b 00 00       	call   c010c0f9 <list_is_empty>
c01055e5:	85 c0                	test   %eax,%eax
c01055e7:	0f 84 d7 fe ff ff    	je     c01054c4 <send_event+0x1f>
c01055ed:	8b 45 f4             	mov    -0xc(%ebp),%eax
c01055f0:	c9                   	leave  
c01055f1:	c3                   	ret    

c01055f2 <get_new_event_ID>:
c01055f2:	55                   	push   %ebp
c01055f3:	89 e5                	mov    %esp,%ebp
c01055f5:	83 ec 18             	sub    $0x18,%esp
c01055f8:	a1 14 40 11 c0       	mov    0xc0114014,%eax
c01055fd:	89 04 24             	mov    %eax,(%esp)
c0105600:	e8 f4 6a 00 00       	call   c010c0f9 <list_is_empty>
c0105605:	85 c0                	test   %eax,%eax
c0105607:	74 10                	je     c0105619 <get_new_event_ID+0x27>
c0105609:	a1 10 23 11 c0       	mov    0xc0112310,%eax
c010560e:	8d 50 01             	lea    0x1(%eax),%edx
c0105611:	89 15 10 23 11 c0    	mov    %edx,0xc0112310
c0105617:	eb 0d                	jmp    c0105626 <get_new_event_ID+0x34>
c0105619:	a1 14 40 11 c0       	mov    0xc0114014,%eax
c010561e:	89 04 24             	mov    %eax,(%esp)
c0105621:	e8 b0 68 00 00       	call   c010bed6 <list_pop_back>
c0105626:	c9                   	leave  
c0105627:	c3                   	ret    

c0105628 <add_event_trigger>:
c0105628:	55                   	push   %ebp
c0105629:	89 e5                	mov    %esp,%ebp
c010562b:	83 ec 28             	sub    $0x28,%esp
c010562e:	c7 04 24 14 00 00 00 	movl   $0x14,(%esp)
c0105635:	e8 69 ca ff ff       	call   c01020a3 <malloc>
c010563a:	89 45 f4             	mov    %eax,-0xc(%ebp)
c010563d:	8b 45 f4             	mov    -0xc(%ebp),%eax
c0105640:	c7 00 02 00 00 00    	movl   $0x2,(%eax)
c0105646:	e8 a7 ff ff ff       	call   c01055f2 <get_new_event_ID>
c010564b:	8b 55 f4             	mov    -0xc(%ebp),%edx
c010564e:	89 42 04             	mov    %eax,0x4(%edx)
c0105651:	8b 45 f4             	mov    -0xc(%ebp),%eax
c0105654:	8b 55 08             	mov    0x8(%ebp),%edx
c0105657:	89 50 08             	mov    %edx,0x8(%eax)
c010565a:	8b 45 f4             	mov    -0xc(%ebp),%eax
c010565d:	8b 55 0c             	mov    0xc(%ebp),%edx
c0105660:	89 50 0c             	mov    %edx,0xc(%eax)
c0105663:	8b 45 f4             	mov    -0xc(%ebp),%eax
c0105666:	8b 55 10             	mov    0x10(%ebp),%edx
c0105669:	89 50 10             	mov    %edx,0x10(%eax)
c010566c:	a1 10 40 11 c0       	mov    0xc0114010,%eax
c0105671:	8b 55 f4             	mov    -0xc(%ebp),%edx
c0105674:	89 54 24 04          	mov    %edx,0x4(%esp)
c0105678:	89 04 24             	mov    %eax,(%esp)
c010567b:	e8 07 68 00 00       	call   c010be87 <list_push_front>
c0105680:	8b 45 f4             	mov    -0xc(%ebp),%eax
c0105683:	8b 40 04             	mov    0x4(%eax),%eax
c0105686:	c9                   	leave  
c0105687:	c3                   	ret    

c0105688 <add_trigger>:
c0105688:	55                   	push   %ebp
c0105689:	89 e5                	mov    %esp,%ebp
c010568b:	83 ec 28             	sub    $0x28,%esp
c010568e:	c7 04 24 14 00 00 00 	movl   $0x14,(%esp)
c0105695:	e8 09 ca ff ff       	call   c01020a3 <malloc>
c010569a:	89 45 f4             	mov    %eax,-0xc(%ebp)
c010569d:	8b 45 f4             	mov    -0xc(%ebp),%eax
c01056a0:	8b 55 08             	mov    0x8(%ebp),%edx
c01056a3:	89 10                	mov    %edx,(%eax)
c01056a5:	8b 45 f4             	mov    -0xc(%ebp),%eax
c01056a8:	8b 55 0c             	mov    0xc(%ebp),%edx
c01056ab:	89 50 04             	mov    %edx,0x4(%eax)
c01056ae:	8b 45 f4             	mov    -0xc(%ebp),%eax
c01056b1:	8b 55 10             	mov    0x10(%ebp),%edx
c01056b4:	89 50 08             	mov    %edx,0x8(%eax)
c01056b7:	8b 45 f4             	mov    -0xc(%ebp),%eax
c01056ba:	8b 55 14             	mov    0x14(%ebp),%edx
c01056bd:	89 50 0c             	mov    %edx,0xc(%eax)
c01056c0:	8b 45 f4             	mov    -0xc(%ebp),%eax
c01056c3:	8b 55 18             	mov    0x18(%ebp),%edx
c01056c6:	89 50 10             	mov    %edx,0x10(%eax)
c01056c9:	a1 10 40 11 c0       	mov    0xc0114010,%eax
c01056ce:	8b 55 f4             	mov    -0xc(%ebp),%edx
c01056d1:	89 54 24 04          	mov    %edx,0x4(%esp)
c01056d5:	89 04 24             	mov    %eax,(%esp)
c01056d8:	e8 aa 67 00 00       	call   c010be87 <list_push_front>
c01056dd:	c9                   	leave  
c01056de:	c3                   	ret    

c01056df <add_int_trigger>:
c01056df:	55                   	push   %ebp
c01056e0:	89 e5                	mov    %esp,%ebp
c01056e2:	83 ec 28             	sub    $0x28,%esp
c01056e5:	c7 44 24 04 33 57 10 	movl   $0xc0105733,0x4(%esp)
c01056ec:	c0 
c01056ed:	8b 45 08             	mov    0x8(%ebp),%eax
c01056f0:	89 04 24             	mov    %eax,(%esp)
c01056f3:	e8 49 3e 00 00       	call   c0109541 <install_irq>
c01056f8:	85 c0                	test   %eax,%eax
c01056fa:	74 30                	je     c010572c <add_int_trigger+0x4d>
c01056fc:	8b 45 08             	mov    0x8(%ebp),%eax
c01056ff:	8b 55 10             	mov    0x10(%ebp),%edx
c0105702:	89 54 24 10          	mov    %edx,0x10(%esp)
c0105706:	8b 55 0c             	mov    0xc(%ebp),%edx
c0105709:	89 54 24 0c          	mov    %edx,0xc(%esp)
c010570d:	c7 44 24 08 00 00 00 	movl   $0x0,0x8(%esp)
c0105714:	00 
c0105715:	89 44 24 04          	mov    %eax,0x4(%esp)
c0105719:	c7 04 24 05 00 00 00 	movl   $0x5,(%esp)
c0105720:	e8 63 ff ff ff       	call   c0105688 <add_trigger>
c0105725:	b8 01 00 00 00       	mov    $0x1,%eax
c010572a:	eb 05                	jmp    c0105731 <add_int_trigger+0x52>
c010572c:	b8 00 00 00 00       	mov    $0x0,%eax
c0105731:	c9                   	leave  
c0105732:	c3                   	ret    

c0105733 <handle_interupts>:
c0105733:	55                   	push   %ebp
c0105734:	89 e5                	mov    %esp,%ebp
c0105736:	83 ec 28             	sub    $0x28,%esp
c0105739:	a1 10 40 11 c0       	mov    0xc0114010,%eax
c010573e:	89 04 24             	mov    %eax,(%esp)
c0105741:	e8 88 69 00 00       	call   c010c0ce <list_set_first>
c0105746:	e9 d8 00 00 00       	jmp    c0105823 <handle_interupts+0xf0>
c010574b:	a1 10 40 11 c0       	mov    0xc0114010,%eax
c0105750:	89 04 24             	mov    %eax,(%esp)
c0105753:	e8 23 69 00 00       	call   c010c07b <list_get_current>
c0105758:	89 45 f4             	mov    %eax,-0xc(%ebp)
c010575b:	8b 45 f4             	mov    -0xc(%ebp),%eax
c010575e:	8b 00                	mov    (%eax),%eax
c0105760:	83 f8 05             	cmp    $0x5,%eax
c0105763:	0f 85 ad 00 00 00    	jne    c0105816 <handle_interupts+0xe3>
c0105769:	8b 45 f4             	mov    -0xc(%ebp),%eax
c010576c:	8b 50 04             	mov    0x4(%eax),%edx
c010576f:	8b 45 08             	mov    0x8(%ebp),%eax
c0105772:	8b 00                	mov    (%eax),%eax
c0105774:	8b 40 2c             	mov    0x2c(%eax),%eax
c0105777:	83 e8 20             	sub    $0x20,%eax
c010577a:	39 c2                	cmp    %eax,%edx
c010577c:	0f 85 94 00 00 00    	jne    c0105816 <handle_interupts+0xe3>
c0105782:	8b 45 f4             	mov    -0xc(%ebp),%eax
c0105785:	8b 40 10             	mov    0x10(%eax),%eax
c0105788:	85 c0                	test   %eax,%eax
c010578a:	74 11                	je     c010579d <handle_interupts+0x6a>
c010578c:	8b 45 f4             	mov    -0xc(%ebp),%eax
c010578f:	8b 40 10             	mov    0x10(%eax),%eax
c0105792:	8b 55 f4             	mov    -0xc(%ebp),%edx
c0105795:	8b 52 04             	mov    0x4(%edx),%edx
c0105798:	89 14 24             	mov    %edx,(%esp)
c010579b:	ff d0                	call   *%eax
c010579d:	8b 45 f4             	mov    -0xc(%ebp),%eax
c01057a0:	8b 40 0c             	mov    0xc(%eax),%eax
c01057a3:	85 c0                	test   %eax,%eax
c01057a5:	74 6f                	je     c0105816 <handle_interupts+0xe3>
c01057a7:	8b 45 f4             	mov    -0xc(%ebp),%eax
c01057aa:	8b 40 0c             	mov    0xc(%eax),%eax
c01057ad:	0f b7 40 14          	movzwl 0x14(%eax),%eax
c01057b1:	0f b7 c0             	movzwl %ax,%eax
c01057b4:	83 e0 01             	and    $0x1,%eax
c01057b7:	85 c0                	test   %eax,%eax
c01057b9:	75 5b                	jne    c0105816 <handle_interupts+0xe3>
c01057bb:	8b 45 f4             	mov    -0xc(%ebp),%eax
c01057be:	8b 40 0c             	mov    0xc(%eax),%eax
c01057c1:	8b 55 f4             	mov    -0xc(%ebp),%edx
c01057c4:	8b 52 0c             	mov    0xc(%edx),%edx
c01057c7:	0f b7 52 14          	movzwl 0x14(%edx),%edx
c01057cb:	83 ca 01             	or     $0x1,%edx
c01057ce:	66 89 50 14          	mov    %dx,0x14(%eax)
c01057d2:	8b 45 f4             	mov    -0xc(%ebp),%eax
c01057d5:	8b 50 0c             	mov    0xc(%eax),%edx
c01057d8:	a1 14 60 11 c0       	mov    0xc0116014,%eax
c01057dd:	89 54 24 04          	mov    %edx,0x4(%esp)
c01057e1:	89 04 24             	mov    %eax,(%esp)
c01057e4:	e8 28 67 00 00       	call   c010bf11 <list_insert_after>
c01057e9:	8b 45 f4             	mov    -0xc(%ebp),%eax
c01057ec:	8b 40 0c             	mov    0xc(%eax),%eax
c01057ef:	c7 40 10 0a 00 00 00 	movl   $0xa,0x10(%eax)
c01057f6:	a1 10 60 11 c0       	mov    0xc0116010,%eax
c01057fb:	c7 40 10 00 00 00 00 	movl   $0x0,0x10(%eax)
c0105802:	8b 45 08             	mov    0x8(%ebp),%eax
c0105805:	8b 00                	mov    (%eax),%eax
c0105807:	89 04 24             	mov    %eax,(%esp)
c010580a:	e8 e6 d2 ff ff       	call   c0102af5 <task_schedule>
c010580f:	8b 55 08             	mov    0x8(%ebp),%edx
c0105812:	89 02                	mov    %eax,(%edx)
c0105814:	eb 33                	jmp    c0105849 <handle_interupts+0x116>
c0105816:	a1 10 40 11 c0       	mov    0xc0114010,%eax
c010581b:	89 04 24             	mov    %eax,(%esp)
c010581e:	e8 66 68 00 00       	call   c010c089 <list_next>
c0105823:	a1 10 40 11 c0       	mov    0xc0114010,%eax
c0105828:	89 04 24             	mov    %eax,(%esp)
c010582b:	e8 c9 68 00 00       	call   c010c0f9 <list_is_empty>
c0105830:	85 c0                	test   %eax,%eax
c0105832:	75 15                	jne    c0105849 <handle_interupts+0x116>
c0105834:	a1 10 40 11 c0       	mov    0xc0114010,%eax
c0105839:	89 04 24             	mov    %eax,(%esp)
c010583c:	e8 75 68 00 00       	call   c010c0b6 <list_is_last>
c0105841:	85 c0                	test   %eax,%eax
c0105843:	0f 84 02 ff ff ff    	je     c010574b <handle_interupts+0x18>
c0105849:	c9                   	leave  
c010584a:	c3                   	ret    

c010584b <send_killed_process>:
c010584b:	55                   	push   %ebp
c010584c:	89 e5                	mov    %esp,%ebp
c010584e:	83 ec 28             	sub    $0x28,%esp
c0105851:	a1 10 40 11 c0       	mov    0xc0114010,%eax
c0105856:	89 04 24             	mov    %eax,(%esp)
c0105859:	e8 70 68 00 00       	call   c010c0ce <list_set_first>
c010585e:	e9 9f 01 00 00       	jmp    c0105a02 <send_killed_process+0x1b7>
c0105863:	a1 10 40 11 c0       	mov    0xc0114010,%eax
c0105868:	89 04 24             	mov    %eax,(%esp)
c010586b:	e8 0b 68 00 00       	call   c010c07b <list_get_current>
c0105870:	89 45 f4             	mov    %eax,-0xc(%ebp)
c0105873:	8b 45 f4             	mov    -0xc(%ebp),%eax
c0105876:	8b 50 04             	mov    0x4(%eax),%edx
c0105879:	8b 45 08             	mov    0x8(%ebp),%eax
c010587c:	8b 00                	mov    (%eax),%eax
c010587e:	39 c2                	cmp    %eax,%edx
c0105880:	75 7e                	jne    c0105900 <send_killed_process+0xb5>
c0105882:	8b 45 f4             	mov    -0xc(%ebp),%eax
c0105885:	8b 00                	mov    (%eax),%eax
c0105887:	85 c0                	test   %eax,%eax
c0105889:	75 75                	jne    c0105900 <send_killed_process+0xb5>
c010588b:	8b 45 f4             	mov    -0xc(%ebp),%eax
c010588e:	8b 40 08             	mov    0x8(%eax),%eax
c0105891:	85 c0                	test   %eax,%eax
c0105893:	74 28                	je     c01058bd <send_killed_process+0x72>
c0105895:	8b 45 f4             	mov    -0xc(%ebp),%eax
c0105898:	8b 40 0c             	mov    0xc(%eax),%eax
c010589b:	89 04 24             	mov    %eax,(%esp)
c010589e:	e8 58 f9 ff ff       	call   c01051fb <wakeup_process>
c01058a3:	8b 45 f4             	mov    -0xc(%ebp),%eax
c01058a6:	8b 50 04             	mov    0x4(%eax),%edx
c01058a9:	8b 45 f4             	mov    -0xc(%ebp),%eax
c01058ac:	8b 40 0c             	mov    0xc(%eax),%eax
c01058af:	89 54 24 04          	mov    %edx,0x4(%esp)
c01058b3:	89 04 24             	mov    %eax,(%esp)
c01058b6:	e8 d0 f9 ff ff       	call   c010528b <remove_event_trigger>
c01058bb:	eb 26                	jmp    c01058e3 <send_killed_process+0x98>
c01058bd:	8b 45 f4             	mov    -0xc(%ebp),%eax
c01058c0:	8b 40 0c             	mov    0xc(%eax),%eax
c01058c3:	89 04 24             	mov    %eax,(%esp)
c01058c6:	e8 01 f9 ff ff       	call   c01051cc <wakeup_thread>
c01058cb:	8b 45 f4             	mov    -0xc(%ebp),%eax
c01058ce:	8b 50 04             	mov    0x4(%eax),%edx
c01058d1:	8b 45 f4             	mov    -0xc(%ebp),%eax
c01058d4:	8b 40 0c             	mov    0xc(%eax),%eax
c01058d7:	89 54 24 04          	mov    %edx,0x4(%esp)
c01058db:	89 04 24             	mov    %eax,(%esp)
c01058de:	e8 a8 f9 ff ff       	call   c010528b <remove_event_trigger>
c01058e3:	a1 10 40 11 c0       	mov    0xc0114010,%eax
c01058e8:	89 04 24             	mov    %eax,(%esp)
c01058eb:	e8 fe 66 00 00       	call   c010bfee <list_remove>
c01058f0:	8b 45 f4             	mov    -0xc(%ebp),%eax
c01058f3:	89 04 24             	mov    %eax,(%esp)
c01058f6:	e8 c3 c7 ff ff       	call   c01020be <free>
c01058fb:	e9 02 01 00 00       	jmp    c0105a02 <send_killed_process+0x1b7>
c0105900:	8b 45 f4             	mov    -0xc(%ebp),%eax
c0105903:	8b 40 04             	mov    0x4(%eax),%eax
c0105906:	85 c0                	test   %eax,%eax
c0105908:	8b 45 f4             	mov    -0xc(%ebp),%eax
c010590b:	8b 40 04             	mov    0x4(%eax),%eax
c010590e:	83 f8 ff             	cmp    $0xffffffff,%eax
c0105911:	0f 85 d5 00 00 00    	jne    c01059ec <send_killed_process+0x1a1>
c0105917:	8b 45 f4             	mov    -0xc(%ebp),%eax
c010591a:	8b 00                	mov    (%eax),%eax
c010591c:	85 c0                	test   %eax,%eax
c010591e:	0f 85 c8 00 00 00    	jne    c01059ec <send_killed_process+0x1a1>
c0105924:	8b 45 f4             	mov    -0xc(%ebp),%eax
c0105927:	8b 50 0c             	mov    0xc(%eax),%edx
c010592a:	8b 45 08             	mov    0x8(%ebp),%eax
c010592d:	8b 40 14             	mov    0x14(%eax),%eax
c0105930:	39 c2                	cmp    %eax,%edx
c0105932:	75 2b                	jne    c010595f <send_killed_process+0x114>
c0105934:	8b 45 08             	mov    0x8(%ebp),%eax
c0105937:	8b 40 14             	mov    0x14(%eax),%eax
c010593a:	89 04 24             	mov    %eax,(%esp)
c010593d:	e8 b9 f8 ff ff       	call   c01051fb <wakeup_process>
c0105942:	8b 45 f4             	mov    -0xc(%ebp),%eax
c0105945:	8b 50 04             	mov    0x4(%eax),%edx
c0105948:	8b 45 08             	mov    0x8(%ebp),%eax
c010594b:	8b 40 14             	mov    0x14(%eax),%eax
c010594e:	89 54 24 04          	mov    %edx,0x4(%esp)
c0105952:	89 04 24             	mov    %eax,(%esp)
c0105955:	e8 31 f9 ff ff       	call   c010528b <remove_event_trigger>
c010595a:	e9 8d 00 00 00       	jmp    c01059ec <send_killed_process+0x1a1>
c010595f:	8b 45 08             	mov    0x8(%ebp),%eax
c0105962:	8b 40 14             	mov    0x14(%eax),%eax
c0105965:	8b 40 24             	mov    0x24(%eax),%eax
c0105968:	89 04 24             	mov    %eax,(%esp)
c010596b:	e8 5e 67 00 00       	call   c010c0ce <list_set_first>
c0105970:	eb 50                	jmp    c01059c2 <send_killed_process+0x177>
c0105972:	8b 45 08             	mov    0x8(%ebp),%eax
c0105975:	8b 40 14             	mov    0x14(%eax),%eax
c0105978:	8b 40 24             	mov    0x24(%eax),%eax
c010597b:	89 04 24             	mov    %eax,(%esp)
c010597e:	e8 f8 66 00 00       	call   c010c07b <list_get_current>
c0105983:	89 45 f0             	mov    %eax,-0x10(%ebp)
c0105986:	8b 45 f4             	mov    -0xc(%ebp),%eax
c0105989:	8b 40 0c             	mov    0xc(%eax),%eax
c010598c:	3b 45 f0             	cmp    -0x10(%ebp),%eax
c010598f:	75 20                	jne    c01059b1 <send_killed_process+0x166>
c0105991:	8b 45 f0             	mov    -0x10(%ebp),%eax
c0105994:	89 04 24             	mov    %eax,(%esp)
c0105997:	e8 30 f8 ff ff       	call   c01051cc <wakeup_thread>
c010599c:	8b 45 f4             	mov    -0xc(%ebp),%eax
c010599f:	8b 40 04             	mov    0x4(%eax),%eax
c01059a2:	89 44 24 04          	mov    %eax,0x4(%esp)
c01059a6:	8b 45 f0             	mov    -0x10(%ebp),%eax
c01059a9:	89 04 24             	mov    %eax,(%esp)
c01059ac:	e8 da f8 ff ff       	call   c010528b <remove_event_trigger>
c01059b1:	8b 45 08             	mov    0x8(%ebp),%eax
c01059b4:	8b 40 14             	mov    0x14(%eax),%eax
c01059b7:	8b 40 24             	mov    0x24(%eax),%eax
c01059ba:	89 04 24             	mov    %eax,(%esp)
c01059bd:	e8 c7 66 00 00       	call   c010c089 <list_next>
c01059c2:	8b 45 08             	mov    0x8(%ebp),%eax
c01059c5:	8b 40 14             	mov    0x14(%eax),%eax
c01059c8:	8b 40 24             	mov    0x24(%eax),%eax
c01059cb:	89 04 24             	mov    %eax,(%esp)
c01059ce:	e8 26 67 00 00       	call   c010c0f9 <list_is_empty>
c01059d3:	85 c0                	test   %eax,%eax
c01059d5:	75 15                	jne    c01059ec <send_killed_process+0x1a1>
c01059d7:	8b 45 08             	mov    0x8(%ebp),%eax
c01059da:	8b 40 14             	mov    0x14(%eax),%eax
c01059dd:	8b 40 24             	mov    0x24(%eax),%eax
c01059e0:	89 04 24             	mov    %eax,(%esp)
c01059e3:	e8 ce 66 00 00       	call   c010c0b6 <list_is_last>
c01059e8:	85 c0                	test   %eax,%eax
c01059ea:	74 86                	je     c0105972 <send_killed_process+0x127>
c01059ec:	8b 45 f4             	mov    -0xc(%ebp),%eax
c01059ef:	8b 40 04             	mov    0x4(%eax),%eax
c01059f2:	83 f8 ff             	cmp    $0xffffffff,%eax
c01059f5:	a1 10 40 11 c0       	mov    0xc0114010,%eax
c01059fa:	89 04 24             	mov    %eax,(%esp)
c01059fd:	e8 87 66 00 00       	call   c010c089 <list_next>
c0105a02:	a1 10 40 11 c0       	mov    0xc0114010,%eax
c0105a07:	89 04 24             	mov    %eax,(%esp)
c0105a0a:	e8 ea 66 00 00       	call   c010c0f9 <list_is_empty>
c0105a0f:	85 c0                	test   %eax,%eax
c0105a11:	75 15                	jne    c0105a28 <send_killed_process+0x1dd>
c0105a13:	a1 10 40 11 c0       	mov    0xc0114010,%eax
c0105a18:	89 04 24             	mov    %eax,(%esp)
c0105a1b:	e8 96 66 00 00       	call   c010c0b6 <list_is_last>
c0105a20:	85 c0                	test   %eax,%eax
c0105a22:	0f 84 3b fe ff ff    	je     c0105863 <send_killed_process+0x18>
c0105a28:	c9                   	leave  
c0105a29:	c3                   	ret    

c0105a2a <load_elf>:
c0105a2a:	55                   	push   %ebp
c0105a2b:	89 e5                	mov    %esp,%ebp
c0105a2d:	83 ec 58             	sub    $0x58,%esp
c0105a30:	8b 45 08             	mov    0x8(%ebp),%eax
c0105a33:	89 45 e8             	mov    %eax,-0x18(%ebp)
c0105a36:	8b 45 e8             	mov    -0x18(%ebp),%eax
c0105a39:	0f b6 00             	movzbl (%eax),%eax
c0105a3c:	3c 7f                	cmp    $0x7f,%al
c0105a3e:	0f 85 cc 00 00 00    	jne    c0105b10 <load_elf+0xe6>
c0105a44:	8b 45 e8             	mov    -0x18(%ebp),%eax
c0105a47:	0f b6 40 01          	movzbl 0x1(%eax),%eax
c0105a4b:	3c 45                	cmp    $0x45,%al
c0105a4d:	0f 85 bd 00 00 00    	jne    c0105b10 <load_elf+0xe6>
c0105a53:	8b 45 e8             	mov    -0x18(%ebp),%eax
c0105a56:	0f b6 40 02          	movzbl 0x2(%eax),%eax
c0105a5a:	3c 4c                	cmp    $0x4c,%al
c0105a5c:	0f 85 ae 00 00 00    	jne    c0105b10 <load_elf+0xe6>
c0105a62:	8b 45 e8             	mov    -0x18(%ebp),%eax
c0105a65:	0f b6 40 03          	movzbl 0x3(%eax),%eax
c0105a69:	3c 46                	cmp    $0x46,%al
c0105a6b:	0f 85 9f 00 00 00    	jne    c0105b10 <load_elf+0xe6>
c0105a71:	90                   	nop
c0105a72:	8b 45 e8             	mov    -0x18(%ebp),%eax
c0105a75:	8b 50 1c             	mov    0x1c(%eax),%edx
c0105a78:	8b 45 08             	mov    0x8(%ebp),%eax
c0105a7b:	01 d0                	add    %edx,%eax
c0105a7d:	89 45 f4             	mov    %eax,-0xc(%ebp)
c0105a80:	8b 45 14             	mov    0x14(%ebp),%eax
c0105a83:	89 44 24 18          	mov    %eax,0x18(%esp)
c0105a87:	8b 45 10             	mov    0x10(%ebp),%eax
c0105a8a:	89 44 24 14          	mov    %eax,0x14(%esp)
c0105a8e:	8b 45 0c             	mov    0xc(%ebp),%eax
c0105a91:	89 44 24 10          	mov    %eax,0x10(%esp)
c0105a95:	c7 44 24 0c 00 00 00 	movl   $0x0,0xc(%esp)
c0105a9c:	00 
c0105a9d:	c7 44 24 08 01 00 00 	movl   $0x1,0x8(%esp)
c0105aa4:	00 
c0105aa5:	c7 44 24 04 1c e5 10 	movl   $0xc010e51c,0x4(%esp)
c0105aac:	c0 
c0105aad:	c7 04 24 1c e5 10 c0 	movl   $0xc010e51c,(%esp)
c0105ab4:	e8 95 02 00 00       	call   c0105d4e <process_create>
c0105ab9:	89 45 e4             	mov    %eax,-0x1c(%ebp)
c0105abc:	8b 45 e8             	mov    -0x18(%ebp),%eax
c0105abf:	8b 40 18             	mov    0x18(%eax),%eax
c0105ac2:	c7 44 24 1c 00 00 00 	movl   $0x0,0x1c(%esp)
c0105ac9:	00 
c0105aca:	c7 44 24 18 00 00 00 	movl   $0x0,0x18(%esp)
c0105ad1:	00 
c0105ad2:	c7 44 24 14 00 00 00 	movl   $0x0,0x14(%esp)
c0105ad9:	00 
c0105ada:	c7 44 24 10 00 00 00 	movl   $0x0,0x10(%esp)
c0105ae1:	00 
c0105ae2:	c7 44 24 0c 00 00 00 	movl   $0x0,0xc(%esp)
c0105ae9:	00 
c0105aea:	89 44 24 08          	mov    %eax,0x8(%esp)
c0105aee:	c7 44 24 04 03 00 00 	movl   $0x3,0x4(%esp)
c0105af5:	00 
c0105af6:	8b 45 e4             	mov    -0x1c(%ebp),%eax
c0105af9:	89 04 24             	mov    %eax,(%esp)
c0105afc:	e8 12 ca ff ff       	call   c0102513 <thread_create>
c0105b01:	89 45 e0             	mov    %eax,-0x20(%ebp)
c0105b04:	c7 45 f0 00 00 00 00 	movl   $0x0,-0x10(%ebp)
c0105b0b:	e9 75 01 00 00       	jmp    c0105c85 <load_elf+0x25b>
c0105b10:	c7 04 24 09 e5 10 c0 	movl   $0xc010e509,(%esp)
c0105b17:	e8 a2 e5 ff ff       	call   c01040be <puts>
c0105b1c:	b8 00 00 00 00       	mov    $0x0,%eax
c0105b21:	e9 75 01 00 00       	jmp    c0105c9b <load_elf+0x271>
c0105b26:	8b 45 f4             	mov    -0xc(%ebp),%eax
c0105b29:	8b 00                	mov    (%eax),%eax
c0105b2b:	83 f8 01             	cmp    $0x1,%eax
c0105b2e:	0f 85 49 01 00 00    	jne    c0105c7d <load_elf+0x253>
c0105b34:	8b 45 f4             	mov    -0xc(%ebp),%eax
c0105b37:	8b 40 14             	mov    0x14(%eax),%eax
c0105b3a:	05 ff 0f 00 00       	add    $0xfff,%eax
c0105b3f:	25 00 f0 ff ff       	and    $0xfffff000,%eax
c0105b44:	c1 e8 0c             	shr    $0xc,%eax
c0105b47:	89 45 dc             	mov    %eax,-0x24(%ebp)
c0105b4a:	a1 60 49 11 c0       	mov    0xc0114960,%eax
c0105b4f:	c7 44 24 10 02 00 00 	movl   $0x2,0x10(%esp)
c0105b56:	00 
c0105b57:	c7 44 24 0c ff ff ff 	movl   $0xffffffff,0xc(%esp)
c0105b5e:	ff 
c0105b5f:	c7 44 24 08 00 00 00 	movl   $0xc0000000,0x8(%esp)
c0105b66:	c0 
c0105b67:	8b 55 dc             	mov    -0x24(%ebp),%edx
c0105b6a:	89 54 24 04          	mov    %edx,0x4(%esp)
c0105b6e:	89 04 24             	mov    %eax,(%esp)
c0105b71:	e8 85 50 00 00       	call   c010abfb <arch_vaddr_find>
c0105b76:	89 45 d8             	mov    %eax,-0x28(%ebp)
c0105b79:	c7 45 ec 00 00 00 00 	movl   $0x0,-0x14(%ebp)
c0105b80:	e9 a4 00 00 00       	jmp    c0105c29 <load_elf+0x1ff>
c0105b85:	e8 62 56 00 00       	call   c010b1ec <pmm_alloc_page>
c0105b8a:	89 45 d4             	mov    %eax,-0x2c(%ebp)
c0105b8d:	8b 45 f4             	mov    -0xc(%ebp),%eax
c0105b90:	8b 50 08             	mov    0x8(%eax),%edx
c0105b93:	8b 45 ec             	mov    -0x14(%ebp),%eax
c0105b96:	c1 e0 0c             	shl    $0xc,%eax
c0105b99:	01 d0                	add    %edx,%eax
c0105b9b:	89 45 d0             	mov    %eax,-0x30(%ebp)
c0105b9e:	8b 45 f4             	mov    -0xc(%ebp),%eax
c0105ba1:	8b 50 04             	mov    0x4(%eax),%edx
c0105ba4:	8b 45 08             	mov    0x8(%ebp),%eax
c0105ba7:	01 c2                	add    %eax,%edx
c0105ba9:	8b 45 ec             	mov    -0x14(%ebp),%eax
c0105bac:	c1 e0 0c             	shl    $0xc,%eax
c0105baf:	01 d0                	add    %edx,%eax
c0105bb1:	89 45 cc             	mov    %eax,-0x34(%ebp)
c0105bb4:	8b 45 ec             	mov    -0x14(%ebp),%eax
c0105bb7:	c1 e0 0c             	shl    $0xc,%eax
c0105bba:	89 c2                	mov    %eax,%edx
c0105bbc:	8b 45 d8             	mov    -0x28(%ebp),%eax
c0105bbf:	01 d0                	add    %edx,%eax
c0105bc1:	89 45 c8             	mov    %eax,-0x38(%ebp)
c0105bc4:	8b 45 e0             	mov    -0x20(%ebp),%eax
c0105bc7:	8d 50 08             	lea    0x8(%eax),%edx
c0105bca:	c7 44 24 0c 06 00 00 	movl   $0x6,0xc(%esp)
c0105bd1:	00 
c0105bd2:	8b 45 d0             	mov    -0x30(%ebp),%eax
c0105bd5:	89 44 24 08          	mov    %eax,0x8(%esp)
c0105bd9:	8b 45 d4             	mov    -0x2c(%ebp),%eax
c0105bdc:	89 44 24 04          	mov    %eax,0x4(%esp)
c0105be0:	89 14 24             	mov    %edx,(%esp)
c0105be3:	e8 d9 72 00 00       	call   c010cec1 <vmm_map>
c0105be8:	a1 60 49 11 c0       	mov    0xc0114960,%eax
c0105bed:	c7 44 24 0c 02 00 00 	movl   $0x2,0xc(%esp)
c0105bf4:	00 
c0105bf5:	8b 55 c8             	mov    -0x38(%ebp),%edx
c0105bf8:	89 54 24 08          	mov    %edx,0x8(%esp)
c0105bfc:	8b 55 d4             	mov    -0x2c(%ebp),%edx
c0105bff:	89 54 24 04          	mov    %edx,0x4(%esp)
c0105c03:	89 04 24             	mov    %eax,(%esp)
c0105c06:	e8 b6 72 00 00       	call   c010cec1 <vmm_map>
c0105c0b:	8b 55 cc             	mov    -0x34(%ebp),%edx
c0105c0e:	8b 45 c8             	mov    -0x38(%ebp),%eax
c0105c11:	c7 44 24 08 00 10 00 	movl   $0x1000,0x8(%esp)
c0105c18:	00 
c0105c19:	89 54 24 04          	mov    %edx,0x4(%esp)
c0105c1d:	89 04 24             	mov    %eax,(%esp)
c0105c20:	e8 fa 6a 00 00       	call   c010c71f <memcpy>
c0105c25:	83 45 ec 01          	addl   $0x1,-0x14(%ebp)
c0105c29:	8b 45 ec             	mov    -0x14(%ebp),%eax
c0105c2c:	3b 45 dc             	cmp    -0x24(%ebp),%eax
c0105c2f:	0f 8c 50 ff ff ff    	jl     c0105b85 <load_elf+0x15b>
c0105c35:	8b 45 f4             	mov    -0xc(%ebp),%eax
c0105c38:	8b 50 14             	mov    0x14(%eax),%edx
c0105c3b:	8b 45 f4             	mov    -0xc(%ebp),%eax
c0105c3e:	8b 40 10             	mov    0x10(%eax),%eax
c0105c41:	29 c2                	sub    %eax,%edx
c0105c43:	8b 45 f4             	mov    -0xc(%ebp),%eax
c0105c46:	8b 48 10             	mov    0x10(%eax),%ecx
c0105c49:	8b 45 d8             	mov    -0x28(%ebp),%eax
c0105c4c:	01 c8                	add    %ecx,%eax
c0105c4e:	89 54 24 08          	mov    %edx,0x8(%esp)
c0105c52:	c7 44 24 04 00 00 00 	movl   $0x0,0x4(%esp)
c0105c59:	00 
c0105c5a:	89 04 24             	mov    %eax,(%esp)
c0105c5d:	e8 82 6c 00 00       	call   c010c8e4 <memset>
c0105c62:	a1 60 49 11 c0       	mov    0xc0114960,%eax
c0105c67:	8b 55 dc             	mov    -0x24(%ebp),%edx
c0105c6a:	89 54 24 08          	mov    %edx,0x8(%esp)
c0105c6e:	8b 55 d8             	mov    -0x28(%ebp),%edx
c0105c71:	89 54 24 04          	mov    %edx,0x4(%esp)
c0105c75:	89 04 24             	mov    %eax,(%esp)
c0105c78:	e8 ef 72 00 00       	call   c010cf6c <vmm_unmap_range>
c0105c7d:	83 45 f0 01          	addl   $0x1,-0x10(%ebp)
c0105c81:	83 45 f4 20          	addl   $0x20,-0xc(%ebp)
c0105c85:	8b 45 e8             	mov    -0x18(%ebp),%eax
c0105c88:	0f b7 40 2c          	movzwl 0x2c(%eax),%eax
c0105c8c:	0f b7 c0             	movzwl %ax,%eax
c0105c8f:	3b 45 f0             	cmp    -0x10(%ebp),%eax
c0105c92:	0f 8f 8e fe ff ff    	jg     c0105b26 <load_elf+0xfc>
c0105c98:	8b 45 e4             	mov    -0x1c(%ebp),%eax
c0105c9b:	c9                   	leave  
c0105c9c:	c3                   	ret    

c0105c9d <min>:
c0105c9d:	55                   	push   %ebp
c0105c9e:	89 e5                	mov    %esp,%ebp
c0105ca0:	8b 45 08             	mov    0x8(%ebp),%eax
c0105ca3:	39 45 0c             	cmp    %eax,0xc(%ebp)
c0105ca6:	0f 4e 45 0c          	cmovle 0xc(%ebp),%eax
c0105caa:	5d                   	pop    %ebp
c0105cab:	c3                   	ret    

c0105cac <dump_thread_list>:
c0105cac:	55                   	push   %ebp
c0105cad:	89 e5                	mov    %esp,%ebp
c0105caf:	83 ec 28             	sub    $0x28,%esp
c0105cb2:	8b 45 08             	mov    0x8(%ebp),%eax
c0105cb5:	89 04 24             	mov    %eax,(%esp)
c0105cb8:	e8 11 64 00 00       	call   c010c0ce <list_set_first>
c0105cbd:	8b 45 08             	mov    0x8(%ebp),%eax
c0105cc0:	89 04 24             	mov    %eax,(%esp)
c0105cc3:	e8 79 63 00 00       	call   c010c041 <list_length>
c0105cc8:	89 44 24 04          	mov    %eax,0x4(%esp)
c0105ccc:	c7 04 24 1d e5 10 c0 	movl   $0xc010e51d,(%esp)
c0105cd3:	e8 73 5b 00 00       	call   c010b84b <printf>
c0105cd8:	eb 49                	jmp    c0105d23 <dump_thread_list+0x77>
c0105cda:	8b 45 08             	mov    0x8(%ebp),%eax
c0105cdd:	89 04 24             	mov    %eax,(%esp)
c0105ce0:	e8 96 63 00 00       	call   c010c07b <list_get_current>
c0105ce5:	89 45 f4             	mov    %eax,-0xc(%ebp)
c0105ce8:	8b 45 f4             	mov    -0xc(%ebp),%eax
c0105ceb:	0f b7 40 14          	movzwl 0x14(%eax),%eax
c0105cef:	0f b7 c8             	movzwl %ax,%ecx
c0105cf2:	8b 45 f4             	mov    -0xc(%ebp),%eax
c0105cf5:	8b 50 20             	mov    0x20(%eax),%edx
c0105cf8:	8b 45 f4             	mov    -0xc(%ebp),%eax
c0105cfb:	8b 40 04             	mov    0x4(%eax),%eax
c0105cfe:	8b 00                	mov    (%eax),%eax
c0105d00:	89 4c 24 0c          	mov    %ecx,0xc(%esp)
c0105d04:	89 54 24 08          	mov    %edx,0x8(%esp)
c0105d08:	89 44 24 04          	mov    %eax,0x4(%esp)
c0105d0c:	c7 04 24 2b e5 10 c0 	movl   $0xc010e52b,(%esp)
c0105d13:	e8 33 5b 00 00       	call   c010b84b <printf>
c0105d18:	8b 45 08             	mov    0x8(%ebp),%eax
c0105d1b:	89 04 24             	mov    %eax,(%esp)
c0105d1e:	e8 66 63 00 00       	call   c010c089 <list_next>
c0105d23:	8b 45 08             	mov    0x8(%ebp),%eax
c0105d26:	89 04 24             	mov    %eax,(%esp)
c0105d29:	e8 cb 63 00 00       	call   c010c0f9 <list_is_empty>
c0105d2e:	85 c0                	test   %eax,%eax
c0105d30:	75 0f                	jne    c0105d41 <dump_thread_list+0x95>
c0105d32:	8b 45 08             	mov    0x8(%ebp),%eax
c0105d35:	89 04 24             	mov    %eax,(%esp)
c0105d38:	e8 79 63 00 00       	call   c010c0b6 <list_is_last>
c0105d3d:	85 c0                	test   %eax,%eax
c0105d3f:	74 99                	je     c0105cda <dump_thread_list+0x2e>
c0105d41:	8b 45 08             	mov    0x8(%ebp),%eax
c0105d44:	89 04 24             	mov    %eax,(%esp)
c0105d47:	e8 82 63 00 00       	call   c010c0ce <list_set_first>
c0105d4c:	c9                   	leave  
c0105d4d:	c3                   	ret    

c0105d4e <process_create>:
c0105d4e:	55                   	push   %ebp
c0105d4f:	89 e5                	mov    %esp,%ebp
c0105d51:	83 ec 48             	sub    $0x48,%esp
c0105d54:	8b 45 10             	mov    0x10(%ebp),%eax
c0105d57:	66 89 45 c4          	mov    %ax,-0x3c(%ebp)
c0105d5b:	c7 04 24 3c 00 00 00 	movl   $0x3c,(%esp)
c0105d62:	e8 3c c3 ff ff       	call   c01020a3 <malloc>
c0105d67:	89 45 e8             	mov    %eax,-0x18(%ebp)
c0105d6a:	8b 45 08             	mov    0x8(%ebp),%eax
c0105d6d:	89 04 24             	mov    %eax,(%esp)
c0105d70:	e8 a4 65 00 00       	call   c010c319 <strlen>
c0105d75:	c7 44 24 04 ff 00 00 	movl   $0xff,0x4(%esp)
c0105d7c:	00 
c0105d7d:	89 04 24             	mov    %eax,(%esp)
c0105d80:	e8 18 ff ff ff       	call   c0105c9d <min>
c0105d85:	89 45 e4             	mov    %eax,-0x1c(%ebp)
c0105d88:	8b 45 e4             	mov    -0x1c(%ebp),%eax
c0105d8b:	83 c0 01             	add    $0x1,%eax
c0105d8e:	89 04 24             	mov    %eax,(%esp)
c0105d91:	e8 0d c3 ff ff       	call   c01020a3 <malloc>
c0105d96:	89 c2                	mov    %eax,%edx
c0105d98:	8b 45 e8             	mov    -0x18(%ebp),%eax
c0105d9b:	89 50 0c             	mov    %edx,0xc(%eax)
c0105d9e:	8b 55 e4             	mov    -0x1c(%ebp),%edx
c0105da1:	8b 45 e8             	mov    -0x18(%ebp),%eax
c0105da4:	8b 40 0c             	mov    0xc(%eax),%eax
c0105da7:	89 54 24 08          	mov    %edx,0x8(%esp)
c0105dab:	8b 55 08             	mov    0x8(%ebp),%edx
c0105dae:	89 54 24 04          	mov    %edx,0x4(%esp)
c0105db2:	89 04 24             	mov    %eax,(%esp)
c0105db5:	e8 d7 65 00 00       	call   c010c391 <strncpy>
c0105dba:	8b 45 e8             	mov    -0x18(%ebp),%eax
c0105dbd:	8b 40 0c             	mov    0xc(%eax),%eax
c0105dc0:	8b 55 e4             	mov    -0x1c(%ebp),%edx
c0105dc3:	83 c2 01             	add    $0x1,%edx
c0105dc6:	01 d0                	add    %edx,%eax
c0105dc8:	c6 00 00             	movb   $0x0,(%eax)
c0105dcb:	8b 45 0c             	mov    0xc(%ebp),%eax
c0105dce:	89 04 24             	mov    %eax,(%esp)
c0105dd1:	e8 43 65 00 00       	call   c010c319 <strlen>
c0105dd6:	c7 44 24 04 ff 00 00 	movl   $0xff,0x4(%esp)
c0105ddd:	00 
c0105dde:	89 04 24             	mov    %eax,(%esp)
c0105de1:	e8 b7 fe ff ff       	call   c0105c9d <min>
c0105de6:	89 45 e4             	mov    %eax,-0x1c(%ebp)
c0105de9:	8b 45 e4             	mov    -0x1c(%ebp),%eax
c0105dec:	83 c0 01             	add    $0x1,%eax
c0105def:	89 04 24             	mov    %eax,(%esp)
c0105df2:	e8 ac c2 ff ff       	call   c01020a3 <malloc>
c0105df7:	89 c2                	mov    %eax,%edx
c0105df9:	8b 45 e8             	mov    -0x18(%ebp),%eax
c0105dfc:	89 50 10             	mov    %edx,0x10(%eax)
c0105dff:	8b 55 e4             	mov    -0x1c(%ebp),%edx
c0105e02:	8b 45 e8             	mov    -0x18(%ebp),%eax
c0105e05:	8b 40 10             	mov    0x10(%eax),%eax
c0105e08:	89 54 24 08          	mov    %edx,0x8(%esp)
c0105e0c:	8b 55 0c             	mov    0xc(%ebp),%edx
c0105e0f:	89 54 24 04          	mov    %edx,0x4(%esp)
c0105e13:	89 04 24             	mov    %eax,(%esp)
c0105e16:	e8 76 65 00 00       	call   c010c391 <strncpy>
c0105e1b:	8b 45 e8             	mov    -0x18(%ebp),%eax
c0105e1e:	8b 40 10             	mov    0x10(%eax),%eax
c0105e21:	8b 55 e4             	mov    -0x1c(%ebp),%edx
c0105e24:	83 c2 01             	add    $0x1,%edx
c0105e27:	01 d0                	add    %edx,%eax
c0105e29:	c6 00 00             	movb   $0x0,(%eax)
c0105e2c:	8b 45 e8             	mov    -0x18(%ebp),%eax
c0105e2f:	0f b7 55 c4          	movzwl -0x3c(%ebp),%edx
c0105e33:	66 89 50 38          	mov    %dx,0x38(%eax)
c0105e37:	e8 01 5f 00 00       	call   c010bd3d <list_create>
c0105e3c:	8b 55 e8             	mov    -0x18(%ebp),%edx
c0105e3f:	89 42 1c             	mov    %eax,0x1c(%edx)
c0105e42:	8b 15 20 40 11 c0    	mov    0xc0114020,%edx
c0105e48:	8b 45 e8             	mov    -0x18(%ebp),%eax
c0105e4b:	89 50 18             	mov    %edx,0x18(%eax)
c0105e4e:	e8 ea 5e 00 00       	call   c010bd3d <list_create>
c0105e53:	8b 55 e8             	mov    -0x18(%ebp),%edx
c0105e56:	89 42 34             	mov    %eax,0x34(%edx)
c0105e59:	e8 df 5e 00 00       	call   c010bd3d <list_create>
c0105e5e:	8b 55 e8             	mov    -0x18(%ebp),%edx
c0105e61:	89 42 30             	mov    %eax,0x30(%edx)
c0105e64:	e8 d4 5e 00 00       	call   c010bd3d <list_create>
c0105e69:	8b 55 e8             	mov    -0x18(%ebp),%edx
c0105e6c:	89 42 24             	mov    %eax,0x24(%edx)
c0105e6f:	e8 c9 5e 00 00       	call   c010bd3d <list_create>
c0105e74:	8b 55 e8             	mov    -0x18(%ebp),%edx
c0105e77:	89 42 20             	mov    %eax,0x20(%edx)
c0105e7a:	8b 45 e8             	mov    -0x18(%ebp),%eax
c0105e7d:	c7 40 28 01 00 00 00 	movl   $0x1,0x28(%eax)
c0105e84:	8b 45 e8             	mov    -0x18(%ebp),%eax
c0105e87:	8b 55 18             	mov    0x18(%ebp),%edx
c0105e8a:	89 50 04             	mov    %edx,0x4(%eax)
c0105e8d:	8b 45 e8             	mov    -0x18(%ebp),%eax
c0105e90:	8b 55 1c             	mov    0x1c(%ebp),%edx
c0105e93:	89 50 08             	mov    %edx,0x8(%eax)
c0105e96:	83 7d 14 00          	cmpl   $0x0,0x14(%ebp)
c0105e9a:	75 0e                	jne    c0105eaa <process_create+0x15c>
c0105e9c:	8b 15 0c 60 11 c0    	mov    0xc011600c,%edx
c0105ea2:	8b 45 e8             	mov    -0x18(%ebp),%eax
c0105ea5:	89 50 14             	mov    %edx,0x14(%eax)
c0105ea8:	eb 09                	jmp    c0105eb3 <process_create+0x165>
c0105eaa:	8b 45 e8             	mov    -0x18(%ebp),%eax
c0105ead:	8b 55 14             	mov    0x14(%ebp),%edx
c0105eb0:	89 50 14             	mov    %edx,0x14(%eax)
c0105eb3:	a1 1c 40 11 c0       	mov    0xc011401c,%eax
c0105eb8:	89 04 24             	mov    %eax,(%esp)
c0105ebb:	e8 39 62 00 00       	call   c010c0f9 <list_is_empty>
c0105ec0:	85 c0                	test   %eax,%eax
c0105ec2:	74 15                	je     c0105ed9 <process_create+0x18b>
c0105ec4:	a1 14 23 11 c0       	mov    0xc0112314,%eax
c0105ec9:	8d 50 01             	lea    0x1(%eax),%edx
c0105ecc:	89 15 14 23 11 c0    	mov    %edx,0xc0112314
c0105ed2:	8b 55 e8             	mov    -0x18(%ebp),%edx
c0105ed5:	89 02                	mov    %eax,(%edx)
c0105ed7:	eb 14                	jmp    c0105eed <process_create+0x19f>
c0105ed9:	a1 1c 40 11 c0       	mov    0xc011401c,%eax
c0105ede:	89 04 24             	mov    %eax,(%esp)
c0105ee1:	e8 0e 60 00 00       	call   c010bef4 <list_pop_front>
c0105ee6:	89 c2                	mov    %eax,%edx
c0105ee8:	8b 45 e8             	mov    -0x18(%ebp),%eax
c0105eeb:	89 10                	mov    %edx,(%eax)
c0105eed:	fa                   	cli    
c0105eee:	8b 45 e8             	mov    -0x18(%ebp),%eax
c0105ef1:	8b 00                	mov    (%eax),%eax
c0105ef3:	83 f8 01             	cmp    $0x1,%eax
c0105ef6:	74 39                	je     c0105f31 <process_create+0x1e3>
c0105ef8:	c7 04 24 08 00 00 00 	movl   $0x8,(%esp)
c0105eff:	e8 9f c1 ff ff       	call   c01020a3 <malloc>
c0105f04:	89 45 e0             	mov    %eax,-0x20(%ebp)
c0105f07:	8b 45 e0             	mov    -0x20(%ebp),%eax
c0105f0a:	8b 55 e8             	mov    -0x18(%ebp),%edx
c0105f0d:	89 50 04             	mov    %edx,0x4(%eax)
c0105f10:	8b 45 e0             	mov    -0x20(%ebp),%eax
c0105f13:	c7 00 00 00 00 00    	movl   $0x0,(%eax)
c0105f19:	8b 45 e8             	mov    -0x18(%ebp),%eax
c0105f1c:	8b 40 14             	mov    0x14(%eax),%eax
c0105f1f:	8b 40 34             	mov    0x34(%eax),%eax
c0105f22:	8b 55 e0             	mov    -0x20(%ebp),%edx
c0105f25:	89 54 24 04          	mov    %edx,0x4(%esp)
c0105f29:	89 04 24             	mov    %eax,(%esp)
c0105f2c:	e8 56 5f 00 00       	call   c010be87 <list_push_front>
c0105f31:	a1 18 40 11 c0       	mov    0xc0114018,%eax
c0105f36:	8b 55 e8             	mov    -0x18(%ebp),%edx
c0105f39:	89 54 24 04          	mov    %edx,0x4(%esp)
c0105f3d:	89 04 24             	mov    %eax,(%esp)
c0105f40:	e8 42 5f 00 00       	call   c010be87 <list_push_front>
c0105f45:	fb                   	sti    
c0105f46:	83 7d 20 00          	cmpl   $0x0,0x20(%ebp)
c0105f4a:	75 41                	jne    c0105f8d <process_create+0x23f>
c0105f4c:	8b 45 1c             	mov    0x1c(%ebp),%eax
c0105f4f:	89 44 24 04          	mov    %eax,0x4(%esp)
c0105f53:	8b 45 18             	mov    0x18(%ebp),%eax
c0105f56:	89 04 24             	mov    %eax,(%esp)
c0105f59:	e8 98 08 00 00       	call   c01067f6 <vfs_create_pipe>
c0105f5e:	89 45 f4             	mov    %eax,-0xc(%ebp)
c0105f61:	8b 45 1c             	mov    0x1c(%ebp),%eax
c0105f64:	89 44 24 04          	mov    %eax,0x4(%esp)
c0105f68:	8b 45 18             	mov    0x18(%ebp),%eax
c0105f6b:	89 04 24             	mov    %eax,(%esp)
c0105f6e:	e8 83 08 00 00       	call   c01067f6 <vfs_create_pipe>
c0105f73:	89 45 f0             	mov    %eax,-0x10(%ebp)
c0105f76:	8b 45 1c             	mov    0x1c(%ebp),%eax
c0105f79:	89 44 24 04          	mov    %eax,0x4(%esp)
c0105f7d:	8b 45 18             	mov    0x18(%ebp),%eax
c0105f80:	89 04 24             	mov    %eax,(%esp)
c0105f83:	e8 6e 08 00 00       	call   c01067f6 <vfs_create_pipe>
c0105f88:	89 45 ec             	mov    %eax,-0x14(%ebp)
c0105f8b:	eb 1a                	jmp    c0105fa7 <process_create+0x259>
c0105f8d:	8b 45 20             	mov    0x20(%ebp),%eax
c0105f90:	8b 00                	mov    (%eax),%eax
c0105f92:	89 45 f4             	mov    %eax,-0xc(%ebp)
c0105f95:	8b 45 20             	mov    0x20(%ebp),%eax
c0105f98:	8b 40 04             	mov    0x4(%eax),%eax
c0105f9b:	89 45 f0             	mov    %eax,-0x10(%ebp)
c0105f9e:	8b 45 20             	mov    0x20(%ebp),%eax
c0105fa1:	8b 40 08             	mov    0x8(%eax),%eax
c0105fa4:	89 45 ec             	mov    %eax,-0x14(%ebp)
c0105fa7:	c7 04 24 14 00 00 00 	movl   $0x14,(%esp)
c0105fae:	e8 f0 c0 ff ff       	call   c01020a3 <malloc>
c0105fb3:	89 45 dc             	mov    %eax,-0x24(%ebp)
c0105fb6:	8b 45 dc             	mov    -0x24(%ebp),%eax
c0105fb9:	c7 00 00 00 00 00    	movl   $0x0,(%eax)
c0105fbf:	8b 45 dc             	mov    -0x24(%ebp),%eax
c0105fc2:	c7 40 08 ff 07 00 00 	movl   $0x7ff,0x8(%eax)
c0105fc9:	8b 45 dc             	mov    -0x24(%ebp),%eax
c0105fcc:	c7 40 0c 01 00 00 00 	movl   $0x1,0xc(%eax)
c0105fd3:	8b 45 dc             	mov    -0x24(%ebp),%eax
c0105fd6:	c7 40 10 00 00 00 00 	movl   $0x0,0x10(%eax)
c0105fdd:	8b 45 dc             	mov    -0x24(%ebp),%eax
c0105fe0:	8b 55 f4             	mov    -0xc(%ebp),%edx
c0105fe3:	89 50 04             	mov    %edx,0x4(%eax)
c0105fe6:	8b 45 e8             	mov    -0x18(%ebp),%eax
c0105fe9:	8b 40 1c             	mov    0x1c(%eax),%eax
c0105fec:	8b 55 dc             	mov    -0x24(%ebp),%edx
c0105fef:	89 54 24 04          	mov    %edx,0x4(%esp)
c0105ff3:	89 04 24             	mov    %eax,(%esp)
c0105ff6:	e8 3a 5e 00 00       	call   c010be35 <list_push_back>
c0105ffb:	c7 04 24 14 00 00 00 	movl   $0x14,(%esp)
c0106002:	e8 9c c0 ff ff       	call   c01020a3 <malloc>
c0106007:	89 45 d8             	mov    %eax,-0x28(%ebp)
c010600a:	8b 45 d8             	mov    -0x28(%ebp),%eax
c010600d:	c7 00 01 00 00 00    	movl   $0x1,(%eax)
c0106013:	8b 45 d8             	mov    -0x28(%ebp),%eax
c0106016:	c7 40 08 ff 07 00 00 	movl   $0x7ff,0x8(%eax)
c010601d:	8b 45 d8             	mov    -0x28(%ebp),%eax
c0106020:	c7 40 0c 02 00 00 00 	movl   $0x2,0xc(%eax)
c0106027:	8b 45 d8             	mov    -0x28(%ebp),%eax
c010602a:	c7 40 10 00 00 00 00 	movl   $0x0,0x10(%eax)
c0106031:	8b 45 d8             	mov    -0x28(%ebp),%eax
c0106034:	8b 55 f0             	mov    -0x10(%ebp),%edx
c0106037:	89 50 04             	mov    %edx,0x4(%eax)
c010603a:	8b 45 e8             	mov    -0x18(%ebp),%eax
c010603d:	8b 40 1c             	mov    0x1c(%eax),%eax
c0106040:	8b 55 d8             	mov    -0x28(%ebp),%edx
c0106043:	89 54 24 04          	mov    %edx,0x4(%esp)
c0106047:	89 04 24             	mov    %eax,(%esp)
c010604a:	e8 e6 5d 00 00       	call   c010be35 <list_push_back>
c010604f:	c7 04 24 14 00 00 00 	movl   $0x14,(%esp)
c0106056:	e8 48 c0 ff ff       	call   c01020a3 <malloc>
c010605b:	89 45 d4             	mov    %eax,-0x2c(%ebp)
c010605e:	8b 45 d4             	mov    -0x2c(%ebp),%eax
c0106061:	c7 00 02 00 00 00    	movl   $0x2,(%eax)
c0106067:	8b 45 d4             	mov    -0x2c(%ebp),%eax
c010606a:	c7 40 08 ff 07 00 00 	movl   $0x7ff,0x8(%eax)
c0106071:	8b 45 d4             	mov    -0x2c(%ebp),%eax
c0106074:	c7 40 0c 02 00 00 00 	movl   $0x2,0xc(%eax)
c010607b:	8b 45 d4             	mov    -0x2c(%ebp),%eax
c010607e:	c7 40 10 00 00 00 00 	movl   $0x0,0x10(%eax)
c0106085:	8b 45 d4             	mov    -0x2c(%ebp),%eax
c0106088:	8b 55 ec             	mov    -0x14(%ebp),%edx
c010608b:	89 50 04             	mov    %edx,0x4(%eax)
c010608e:	8b 45 e8             	mov    -0x18(%ebp),%eax
c0106091:	8b 40 1c             	mov    0x1c(%eax),%eax
c0106094:	8b 55 d4             	mov    -0x2c(%ebp),%edx
c0106097:	89 54 24 04          	mov    %edx,0x4(%esp)
c010609b:	89 04 24             	mov    %eax,(%esp)
c010609e:	e8 92 5d 00 00       	call   c010be35 <list_push_back>
c01060a3:	8b 45 e8             	mov    -0x18(%ebp),%eax
c01060a6:	c9                   	leave  
c01060a7:	c3                   	ret    

c01060a8 <process_kill>:
c01060a8:	55                   	push   %ebp
c01060a9:	89 e5                	mov    %esp,%ebp
c01060ab:	83 ec 28             	sub    $0x28,%esp
c01060ae:	fa                   	cli    
c01060af:	8b 45 08             	mov    0x8(%ebp),%eax
c01060b2:	89 04 24             	mov    %eax,(%esp)
c01060b5:	e8 91 f7 ff ff       	call   c010584b <send_killed_process>
c01060ba:	8b 45 08             	mov    0x8(%ebp),%eax
c01060bd:	8b 40 24             	mov    0x24(%eax),%eax
c01060c0:	89 04 24             	mov    %eax,(%esp)
c01060c3:	e8 06 60 00 00       	call   c010c0ce <list_set_first>
c01060c8:	eb 51                	jmp    c010611b <process_kill+0x73>
c01060ca:	8b 45 08             	mov    0x8(%ebp),%eax
c01060cd:	8b 40 24             	mov    0x24(%eax),%eax
c01060d0:	89 04 24             	mov    %eax,(%esp)
c01060d3:	e8 1c 5e 00 00       	call   c010bef4 <list_pop_front>
c01060d8:	89 45 f4             	mov    %eax,-0xc(%ebp)
c01060db:	a1 10 60 11 c0       	mov    0xc0116010,%eax
c01060e0:	39 45 f4             	cmp    %eax,-0xc(%ebp)
c01060e3:	75 2b                	jne    c0106110 <process_kill+0x68>
c01060e5:	a1 10 60 11 c0       	mov    0xc0116010,%eax
c01060ea:	8b 15 10 60 11 c0    	mov    0xc0116010,%edx
c01060f0:	0f b7 52 14          	movzwl 0x14(%edx),%edx
c01060f4:	83 ca 08             	or     $0x8,%edx
c01060f7:	66 89 50 14          	mov    %dx,0x14(%eax)
c01060fb:	8b 45 08             	mov    0x8(%ebp),%eax
c01060fe:	0f b7 40 38          	movzwl 0x38(%eax),%eax
c0106102:	83 c8 04             	or     $0x4,%eax
c0106105:	89 c2                	mov    %eax,%edx
c0106107:	8b 45 08             	mov    0x8(%ebp),%eax
c010610a:	66 89 50 38          	mov    %dx,0x38(%eax)
c010610e:	eb 0b                	jmp    c010611b <process_kill+0x73>
c0106110:	8b 45 f4             	mov    -0xc(%ebp),%eax
c0106113:	89 04 24             	mov    %eax,(%esp)
c0106116:	e8 d3 c6 ff ff       	call   c01027ee <thread_kill_sub>
c010611b:	8b 45 08             	mov    0x8(%ebp),%eax
c010611e:	8b 40 24             	mov    0x24(%eax),%eax
c0106121:	89 04 24             	mov    %eax,(%esp)
c0106124:	e8 d0 5f 00 00       	call   c010c0f9 <list_is_empty>
c0106129:	85 c0                	test   %eax,%eax
c010612b:	74 9d                	je     c01060ca <process_kill+0x22>
c010612d:	8b 45 08             	mov    0x8(%ebp),%eax
c0106130:	8b 40 34             	mov    0x34(%eax),%eax
c0106133:	89 04 24             	mov    %eax,(%esp)
c0106136:	e8 93 5f 00 00       	call   c010c0ce <list_set_first>
c010613b:	eb 34                	jmp    c0106171 <process_kill+0xc9>
c010613d:	8b 45 08             	mov    0x8(%ebp),%eax
c0106140:	8b 40 34             	mov    0x34(%eax),%eax
c0106143:	89 04 24             	mov    %eax,(%esp)
c0106146:	e8 a9 5d 00 00       	call   c010bef4 <list_pop_front>
c010614b:	89 45 f0             	mov    %eax,-0x10(%ebp)
c010614e:	8b 45 f0             	mov    -0x10(%ebp),%eax
c0106151:	8b 40 04             	mov    0x4(%eax),%eax
c0106154:	85 c0                	test   %eax,%eax
c0106156:	74 0e                	je     c0106166 <process_kill+0xbe>
c0106158:	8b 45 f0             	mov    -0x10(%ebp),%eax
c010615b:	8b 40 04             	mov    0x4(%eax),%eax
c010615e:	89 04 24             	mov    %eax,(%esp)
c0106161:	e8 42 ff ff ff       	call   c01060a8 <process_kill>
c0106166:	8b 45 f0             	mov    -0x10(%ebp),%eax
c0106169:	89 04 24             	mov    %eax,(%esp)
c010616c:	e8 4d bf ff ff       	call   c01020be <free>
c0106171:	8b 45 08             	mov    0x8(%ebp),%eax
c0106174:	8b 40 34             	mov    0x34(%eax),%eax
c0106177:	89 04 24             	mov    %eax,(%esp)
c010617a:	e8 7a 5f 00 00       	call   c010c0f9 <list_is_empty>
c010617f:	85 c0                	test   %eax,%eax
c0106181:	74 ba                	je     c010613d <process_kill+0x95>
c0106183:	8b 45 08             	mov    0x8(%ebp),%eax
c0106186:	8b 40 14             	mov    0x14(%eax),%eax
c0106189:	8b 40 34             	mov    0x34(%eax),%eax
c010618c:	89 04 24             	mov    %eax,(%esp)
c010618f:	e8 3a 5f 00 00       	call   c010c0ce <list_set_first>
c0106194:	eb 3c                	jmp    c01061d2 <process_kill+0x12a>
c0106196:	8b 45 08             	mov    0x8(%ebp),%eax
c0106199:	8b 40 14             	mov    0x14(%eax),%eax
c010619c:	8b 40 34             	mov    0x34(%eax),%eax
c010619f:	89 04 24             	mov    %eax,(%esp)
c01061a2:	e8 d4 5e 00 00       	call   c010c07b <list_get_current>
c01061a7:	89 45 ec             	mov    %eax,-0x14(%ebp)
c01061aa:	8b 45 ec             	mov    -0x14(%ebp),%eax
c01061ad:	8b 40 04             	mov    0x4(%eax),%eax
c01061b0:	3b 45 08             	cmp    0x8(%ebp),%eax
c01061b3:	75 0c                	jne    c01061c1 <process_kill+0x119>
c01061b5:	8b 45 ec             	mov    -0x14(%ebp),%eax
c01061b8:	c7 40 04 00 00 00 00 	movl   $0x0,0x4(%eax)
c01061bf:	eb 26                	jmp    c01061e7 <process_kill+0x13f>
c01061c1:	8b 45 08             	mov    0x8(%ebp),%eax
c01061c4:	8b 40 14             	mov    0x14(%eax),%eax
c01061c7:	8b 40 34             	mov    0x34(%eax),%eax
c01061ca:	89 04 24             	mov    %eax,(%esp)
c01061cd:	e8 b7 5e 00 00       	call   c010c089 <list_next>
c01061d2:	8b 45 08             	mov    0x8(%ebp),%eax
c01061d5:	8b 40 14             	mov    0x14(%eax),%eax
c01061d8:	8b 40 34             	mov    0x34(%eax),%eax
c01061db:	89 04 24             	mov    %eax,(%esp)
c01061de:	e8 16 5f 00 00       	call   c010c0f9 <list_is_empty>
c01061e3:	85 c0                	test   %eax,%eax
c01061e5:	74 af                	je     c0106196 <process_kill+0xee>
c01061e7:	8b 45 08             	mov    0x8(%ebp),%eax
c01061ea:	83 c0 20             	add    $0x20,%eax
c01061ed:	89 04 24             	mov    %eax,(%esp)
c01061f0:	e8 a7 5b 00 00       	call   c010bd9c <list_destroy>
c01061f5:	8b 45 08             	mov    0x8(%ebp),%eax
c01061f8:	83 c0 30             	add    $0x30,%eax
c01061fb:	89 04 24             	mov    %eax,(%esp)
c01061fe:	e8 99 5b 00 00       	call   c010bd9c <list_destroy>
c0106203:	a1 18 40 11 c0       	mov    0xc0114018,%eax
c0106208:	89 04 24             	mov    %eax,(%esp)
c010620b:	e8 be 5e 00 00       	call   c010c0ce <list_set_first>
c0106210:	eb 2e                	jmp    c0106240 <process_kill+0x198>
c0106212:	a1 18 40 11 c0       	mov    0xc0114018,%eax
c0106217:	89 04 24             	mov    %eax,(%esp)
c010621a:	e8 5c 5e 00 00       	call   c010c07b <list_get_current>
c010621f:	3b 45 08             	cmp    0x8(%ebp),%eax
c0106222:	75 0f                	jne    c0106233 <process_kill+0x18b>
c0106224:	a1 18 40 11 c0       	mov    0xc0114018,%eax
c0106229:	89 04 24             	mov    %eax,(%esp)
c010622c:	e8 bd 5d 00 00       	call   c010bfee <list_remove>
c0106231:	eb 1e                	jmp    c0106251 <process_kill+0x1a9>
c0106233:	a1 18 40 11 c0       	mov    0xc0114018,%eax
c0106238:	89 04 24             	mov    %eax,(%esp)
c010623b:	e8 49 5e 00 00       	call   c010c089 <list_next>
c0106240:	a1 18 40 11 c0       	mov    0xc0114018,%eax
c0106245:	89 04 24             	mov    %eax,(%esp)
c0106248:	e8 69 5e 00 00       	call   c010c0b6 <list_is_last>
c010624d:	85 c0                	test   %eax,%eax
c010624f:	74 c1                	je     c0106212 <process_kill+0x16a>
c0106251:	8b 45 08             	mov    0x8(%ebp),%eax
c0106254:	8b 40 0c             	mov    0xc(%eax),%eax
c0106257:	89 04 24             	mov    %eax,(%esp)
c010625a:	e8 5f be ff ff       	call   c01020be <free>
c010625f:	8b 45 08             	mov    0x8(%ebp),%eax
c0106262:	8b 40 10             	mov    0x10(%eax),%eax
c0106265:	89 04 24             	mov    %eax,(%esp)
c0106268:	e8 51 be ff ff       	call   c01020be <free>
c010626d:	8b 45 08             	mov    0x8(%ebp),%eax
c0106270:	0f b7 40 38          	movzwl 0x38(%eax),%eax
c0106274:	0f b7 c0             	movzwl %ax,%eax
c0106277:	83 e0 04             	and    $0x4,%eax
c010627a:	85 c0                	test   %eax,%eax
c010627c:	75 2a                	jne    c01062a8 <process_kill+0x200>
c010627e:	8b 45 08             	mov    0x8(%ebp),%eax
c0106281:	89 04 24             	mov    %eax,(%esp)
c0106284:	e8 35 be ff ff       	call   c01020be <free>
c0106289:	a1 14 60 11 c0       	mov    0xc0116014,%eax
c010628e:	89 04 24             	mov    %eax,(%esp)
c0106291:	e8 38 5e 00 00       	call   c010c0ce <list_set_first>
c0106296:	a1 14 60 11 c0       	mov    0xc0116014,%eax
c010629b:	89 04 24             	mov    %eax,(%esp)
c010629e:	e8 d8 5d 00 00       	call   c010c07b <list_get_current>
c01062a3:	a3 10 60 11 c0       	mov    %eax,0xc0116010
c01062a8:	fb                   	sti    
c01062a9:	c9                   	leave  
c01062aa:	c3                   	ret    

c01062ab <process_find>:
c01062ab:	55                   	push   %ebp
c01062ac:	89 e5                	mov    %esp,%ebp
c01062ae:	83 ec 18             	sub    $0x18,%esp
c01062b1:	a1 18 40 11 c0       	mov    0xc0114018,%eax
c01062b6:	89 04 24             	mov    %eax,(%esp)
c01062b9:	e8 10 5e 00 00       	call   c010c0ce <list_set_first>
c01062be:	eb 30                	jmp    c01062f0 <process_find+0x45>
c01062c0:	a1 18 40 11 c0       	mov    0xc0114018,%eax
c01062c5:	89 04 24             	mov    %eax,(%esp)
c01062c8:	e8 ae 5d 00 00       	call   c010c07b <list_get_current>
c01062cd:	8b 00                	mov    (%eax),%eax
c01062cf:	3b 45 08             	cmp    0x8(%ebp),%eax
c01062d2:	75 0f                	jne    c01062e3 <process_find+0x38>
c01062d4:	a1 18 40 11 c0       	mov    0xc0114018,%eax
c01062d9:	89 04 24             	mov    %eax,(%esp)
c01062dc:	e8 9a 5d 00 00       	call   c010c07b <list_get_current>
c01062e1:	eb 23                	jmp    c0106306 <process_find+0x5b>
c01062e3:	a1 18 40 11 c0       	mov    0xc0114018,%eax
c01062e8:	89 04 24             	mov    %eax,(%esp)
c01062eb:	e8 99 5d 00 00       	call   c010c089 <list_next>
c01062f0:	a1 18 40 11 c0       	mov    0xc0114018,%eax
c01062f5:	89 04 24             	mov    %eax,(%esp)
c01062f8:	e8 b9 5d 00 00       	call   c010c0b6 <list_is_last>
c01062fd:	85 c0                	test   %eax,%eax
c01062ff:	74 bf                	je     c01062c0 <process_find+0x15>
c0106301:	b8 00 00 00 00       	mov    $0x0,%eax
c0106306:	c9                   	leave  
c0106307:	c3                   	ret    

c0106308 <sys_exit>:
c0106308:	55                   	push   %ebp
c0106309:	89 e5                	mov    %esp,%ebp
c010630b:	83 ec 28             	sub    $0x28,%esp
c010630e:	a1 10 60 11 c0       	mov    0xc0116010,%eax
c0106313:	8b 40 04             	mov    0x4(%eax),%eax
c0106316:	8b 40 14             	mov    0x14(%eax),%eax
c0106319:	8b 40 34             	mov    0x34(%eax),%eax
c010631c:	89 04 24             	mov    %eax,(%esp)
c010631f:	e8 aa 5d 00 00       	call   c010c0ce <list_set_first>
c0106324:	eb 52                	jmp    c0106378 <sys_exit+0x70>
c0106326:	a1 10 60 11 c0       	mov    0xc0116010,%eax
c010632b:	8b 40 04             	mov    0x4(%eax),%eax
c010632e:	8b 40 14             	mov    0x14(%eax),%eax
c0106331:	8b 40 34             	mov    0x34(%eax),%eax
c0106334:	89 04 24             	mov    %eax,(%esp)
c0106337:	e8 3f 5d 00 00       	call   c010c07b <list_get_current>
c010633c:	89 45 f4             	mov    %eax,-0xc(%ebp)
c010633f:	8b 45 f4             	mov    -0xc(%ebp),%eax
c0106342:	8b 50 04             	mov    0x4(%eax),%edx
c0106345:	a1 10 60 11 c0       	mov    0xc0116010,%eax
c010634a:	8b 40 04             	mov    0x4(%eax),%eax
c010634d:	39 c2                	cmp    %eax,%edx
c010634f:	75 11                	jne    c0106362 <sys_exit+0x5a>
c0106351:	8b 45 08             	mov    0x8(%ebp),%eax
c0106354:	8b 00                	mov    (%eax),%eax
c0106356:	8b 40 1c             	mov    0x1c(%eax),%eax
c0106359:	89 c2                	mov    %eax,%edx
c010635b:	8b 45 f4             	mov    -0xc(%ebp),%eax
c010635e:	89 10                	mov    %edx,(%eax)
c0106360:	eb 30                	jmp    c0106392 <sys_exit+0x8a>
c0106362:	a1 10 60 11 c0       	mov    0xc0116010,%eax
c0106367:	8b 40 04             	mov    0x4(%eax),%eax
c010636a:	8b 40 14             	mov    0x14(%eax),%eax
c010636d:	8b 40 34             	mov    0x34(%eax),%eax
c0106370:	89 04 24             	mov    %eax,(%esp)
c0106373:	e8 11 5d 00 00       	call   c010c089 <list_next>
c0106378:	a1 10 60 11 c0       	mov    0xc0116010,%eax
c010637d:	8b 40 04             	mov    0x4(%eax),%eax
c0106380:	8b 40 14             	mov    0x14(%eax),%eax
c0106383:	8b 40 34             	mov    0x34(%eax),%eax
c0106386:	89 04 24             	mov    %eax,(%esp)
c0106389:	e8 28 5d 00 00       	call   c010c0b6 <list_is_last>
c010638e:	85 c0                	test   %eax,%eax
c0106390:	75 94                	jne    c0106326 <sys_exit+0x1e>
c0106392:	a1 10 60 11 c0       	mov    0xc0116010,%eax
c0106397:	8b 40 04             	mov    0x4(%eax),%eax
c010639a:	89 04 24             	mov    %eax,(%esp)
c010639d:	e8 06 fd ff ff       	call   c01060a8 <process_kill>
c01063a2:	8b 45 08             	mov    0x8(%ebp),%eax
c01063a5:	8b 00                	mov    (%eax),%eax
c01063a7:	89 04 24             	mov    %eax,(%esp)
c01063aa:	e8 46 c7 ff ff       	call   c0102af5 <task_schedule>
c01063af:	8b 55 08             	mov    0x8(%ebp),%edx
c01063b2:	89 02                	mov    %eax,(%edx)
c01063b4:	c9                   	leave  
c01063b5:	c3                   	ret    

c01063b6 <sys_fork>:
c01063b6:	55                   	push   %ebp
c01063b7:	89 e5                	mov    %esp,%ebp
c01063b9:	57                   	push   %edi
c01063ba:	56                   	push   %esi
c01063bb:	53                   	push   %ebx
c01063bc:	83 ec 5c             	sub    $0x5c,%esp
c01063bf:	8d 45 bc             	lea    -0x44(%ebp),%eax
c01063c2:	89 04 24             	mov    %eax,(%esp)
c01063c5:	e8 a1 6a 00 00       	call   c010ce6b <vmm_create_context>
c01063ca:	a1 10 60 11 c0       	mov    0xc0116010,%eax
c01063cf:	8d 50 08             	lea    0x8(%eax),%edx
c01063d2:	8d 45 bc             	lea    -0x44(%ebp),%eax
c01063d5:	89 44 24 04          	mov    %eax,0x4(%esp)
c01063d9:	89 14 24             	mov    %edx,(%esp)
c01063dc:	e8 58 44 00 00       	call   c010a839 <arch_fork_context>
c01063e1:	a1 10 60 11 c0       	mov    0xc0116010,%eax
c01063e6:	8b 40 04             	mov    0x4(%eax),%eax
c01063e9:	8b 78 08             	mov    0x8(%eax),%edi
c01063ec:	a1 10 60 11 c0       	mov    0xc0116010,%eax
c01063f1:	8b 40 04             	mov    0x4(%eax),%eax
c01063f4:	8b 70 04             	mov    0x4(%eax),%esi
c01063f7:	a1 10 60 11 c0       	mov    0xc0116010,%eax
c01063fc:	8b 58 04             	mov    0x4(%eax),%ebx
c01063ff:	a1 10 60 11 c0       	mov    0xc0116010,%eax
c0106404:	8b 40 04             	mov    0x4(%eax),%eax
c0106407:	0f b7 40 38          	movzwl 0x38(%eax),%eax
c010640b:	0f b7 c8             	movzwl %ax,%ecx
c010640e:	a1 10 60 11 c0       	mov    0xc0116010,%eax
c0106413:	8b 40 04             	mov    0x4(%eax),%eax
c0106416:	8b 50 10             	mov    0x10(%eax),%edx
c0106419:	a1 10 60 11 c0       	mov    0xc0116010,%eax
c010641e:	8b 40 04             	mov    0x4(%eax),%eax
c0106421:	8b 40 0c             	mov    0xc(%eax),%eax
c0106424:	c7 44 24 18 00 00 00 	movl   $0x0,0x18(%esp)
c010642b:	00 
c010642c:	89 7c 24 14          	mov    %edi,0x14(%esp)
c0106430:	89 74 24 10          	mov    %esi,0x10(%esp)
c0106434:	89 5c 24 0c          	mov    %ebx,0xc(%esp)
c0106438:	89 4c 24 08          	mov    %ecx,0x8(%esp)
c010643c:	89 54 24 04          	mov    %edx,0x4(%esp)
c0106440:	89 04 24             	mov    %eax,(%esp)
c0106443:	e8 06 f9 ff ff       	call   c0105d4e <process_create>
c0106448:	89 45 e0             	mov    %eax,-0x20(%ebp)
c010644b:	8b 45 08             	mov    0x8(%ebp),%eax
c010644e:	8b 10                	mov    (%eax),%edx
c0106450:	a1 10 60 11 c0       	mov    0xc0116010,%eax
c0106455:	0f b7 40 14          	movzwl 0x14(%eax),%eax
c0106459:	0f b7 c0             	movzwl %ax,%eax
c010645c:	83 e0 04             	and    $0x4,%eax
c010645f:	85 c0                	test   %eax,%eax
c0106461:	0f 94 c0             	sete   %al
c0106464:	0f b6 c0             	movzbl %al,%eax
c0106467:	8d 4d bc             	lea    -0x44(%ebp),%ecx
c010646a:	89 4c 24 1c          	mov    %ecx,0x1c(%esp)
c010646e:	c7 44 24 18 00 00 00 	movl   $0x0,0x18(%esp)
c0106475:	00 
c0106476:	c7 44 24 14 00 00 00 	movl   $0x0,0x14(%esp)
c010647d:	00 
c010647e:	c7 44 24 10 00 00 00 	movl   $0x0,0x10(%esp)
c0106485:	00 
c0106486:	89 54 24 0c          	mov    %edx,0xc(%esp)
c010648a:	c7 44 24 08 00 00 00 	movl   $0x0,0x8(%esp)
c0106491:	00 
c0106492:	89 44 24 04          	mov    %eax,0x4(%esp)
c0106496:	8b 45 e0             	mov    -0x20(%ebp),%eax
c0106499:	89 04 24             	mov    %eax,(%esp)
c010649c:	e8 72 c0 ff ff       	call   c0102513 <thread_create>
c01064a1:	89 45 dc             	mov    %eax,-0x24(%ebp)
c01064a4:	c7 45 d8 00 f0 ff bf 	movl   $0xbffff000,-0x28(%ebp)
c01064ab:	e8 3c 4d 00 00       	call   c010b1ec <pmm_alloc_page>
c01064b0:	89 45 d4             	mov    %eax,-0x2c(%ebp)
c01064b3:	8b 45 dc             	mov    -0x24(%ebp),%eax
c01064b6:	8d 50 08             	lea    0x8(%eax),%edx
c01064b9:	c7 44 24 0c 07 00 00 	movl   $0x7,0xc(%esp)
c01064c0:	00 
c01064c1:	c7 44 24 08 00 f0 ff 	movl   $0xbffff000,0x8(%esp)
c01064c8:	bf 
c01064c9:	8b 45 d4             	mov    -0x2c(%ebp),%eax
c01064cc:	89 44 24 04          	mov    %eax,0x4(%esp)
c01064d0:	89 14 24             	mov    %edx,(%esp)
c01064d3:	e8 e9 69 00 00       	call   c010cec1 <vmm_map>
c01064d8:	a1 60 49 11 c0       	mov    0xc0114960,%eax
c01064dd:	c7 44 24 08 07 00 00 	movl   $0x7,0x8(%esp)
c01064e4:	00 
c01064e5:	8b 55 d4             	mov    -0x2c(%ebp),%edx
c01064e8:	89 54 24 04          	mov    %edx,0x4(%esp)
c01064ec:	89 04 24             	mov    %eax,(%esp)
c01064ef:	e8 b6 6a 00 00       	call   c010cfaa <vmm_automap_kernel>
c01064f4:	89 45 d0             	mov    %eax,-0x30(%ebp)
c01064f7:	c7 44 24 08 00 10 00 	movl   $0x1000,0x8(%esp)
c01064fe:	00 
c01064ff:	8b 45 d8             	mov    -0x28(%ebp),%eax
c0106502:	89 44 24 04          	mov    %eax,0x4(%esp)
c0106506:	8b 45 d0             	mov    -0x30(%ebp),%eax
c0106509:	89 04 24             	mov    %eax,(%esp)
c010650c:	e8 0e 62 00 00       	call   c010c71f <memcpy>
c0106511:	a1 10 60 11 c0       	mov    0xc0116010,%eax
c0106516:	8b 40 04             	mov    0x4(%eax),%eax
c0106519:	8b 40 1c             	mov    0x1c(%eax),%eax
c010651c:	8b 00                	mov    (%eax),%eax
c010651e:	8b 00                	mov    (%eax),%eax
c0106520:	89 45 e4             	mov    %eax,-0x1c(%ebp)
c0106523:	a1 10 60 11 c0       	mov    0xc0116010,%eax
c0106528:	8b 40 04             	mov    0x4(%eax),%eax
c010652b:	8b 40 1c             	mov    0x1c(%eax),%eax
c010652e:	8b 00                	mov    (%eax),%eax
c0106530:	89 45 cc             	mov    %eax,-0x34(%ebp)
c0106533:	eb 4f                	jmp    c0106584 <sys_fork+0x1ce>
c0106535:	c7 04 24 14 00 00 00 	movl   $0x14,(%esp)
c010653c:	e8 62 bb ff ff       	call   c01020a3 <malloc>
c0106541:	89 45 c8             	mov    %eax,-0x38(%ebp)
c0106544:	8b 45 e4             	mov    -0x1c(%ebp),%eax
c0106547:	8b 40 08             	mov    0x8(%eax),%eax
c010654a:	89 45 c4             	mov    %eax,-0x3c(%ebp)
c010654d:	c7 44 24 08 14 00 00 	movl   $0x14,0x8(%esp)
c0106554:	00 
c0106555:	8b 45 c4             	mov    -0x3c(%ebp),%eax
c0106558:	89 44 24 04          	mov    %eax,0x4(%esp)
c010655c:	8b 45 c8             	mov    -0x38(%ebp),%eax
c010655f:	89 04 24             	mov    %eax,(%esp)
c0106562:	e8 b8 61 00 00       	call   c010c71f <memcpy>
c0106567:	8b 45 e0             	mov    -0x20(%ebp),%eax
c010656a:	8b 40 1c             	mov    0x1c(%eax),%eax
c010656d:	8b 55 c8             	mov    -0x38(%ebp),%edx
c0106570:	89 54 24 04          	mov    %edx,0x4(%esp)
c0106574:	89 04 24             	mov    %eax,(%esp)
c0106577:	e8 b9 58 00 00       	call   c010be35 <list_push_back>
c010657c:	8b 45 e4             	mov    -0x1c(%ebp),%eax
c010657f:	8b 00                	mov    (%eax),%eax
c0106581:	89 45 e4             	mov    %eax,-0x1c(%ebp)
c0106584:	8b 45 e4             	mov    -0x1c(%ebp),%eax
c0106587:	3b 45 cc             	cmp    -0x34(%ebp),%eax
c010658a:	75 a9                	jne    c0106535 <sys_fork+0x17f>
c010658c:	8b 45 dc             	mov    -0x24(%ebp),%eax
c010658f:	8b 00                	mov    (%eax),%eax
c0106591:	c7 40 28 00 00 00 00 	movl   $0x0,0x28(%eax)
c0106598:	a1 10 60 11 c0       	mov    0xc0116010,%eax
c010659d:	8b 00                	mov    (%eax),%eax
c010659f:	8b 55 e0             	mov    -0x20(%ebp),%edx
c01065a2:	8b 12                	mov    (%edx),%edx
c01065a4:	89 50 28             	mov    %edx,0x28(%eax)
c01065a7:	83 c4 5c             	add    $0x5c,%esp
c01065aa:	5b                   	pop    %ebx
c01065ab:	5e                   	pop    %esi
c01065ac:	5f                   	pop    %edi
c01065ad:	5d                   	pop    %ebp
c01065ae:	c3                   	ret    

c01065af <sys_waitpid>:
c01065af:	55                   	push   %ebp
c01065b0:	89 e5                	mov    %esp,%ebp
c01065b2:	83 ec 28             	sub    $0x28,%esp
c01065b5:	a1 14 60 11 c0       	mov    0xc0116014,%eax
c01065ba:	89 04 24             	mov    %eax,(%esp)
c01065bd:	e8 0c 5b 00 00       	call   c010c0ce <list_set_first>
c01065c2:	eb 0d                	jmp    c01065d1 <sys_waitpid+0x22>
c01065c4:	a1 14 60 11 c0       	mov    0xc0116014,%eax
c01065c9:	89 04 24             	mov    %eax,(%esp)
c01065cc:	e8 b8 5a 00 00       	call   c010c089 <list_next>
c01065d1:	a1 14 60 11 c0       	mov    0xc0116014,%eax
c01065d6:	89 04 24             	mov    %eax,(%esp)
c01065d9:	e8 9d 5a 00 00       	call   c010c07b <list_get_current>
c01065de:	8b 15 10 60 11 c0    	mov    0xc0116010,%edx
c01065e4:	39 d0                	cmp    %edx,%eax
c01065e6:	75 dc                	jne    c01065c4 <sys_waitpid+0x15>
c01065e8:	a1 14 60 11 c0       	mov    0xc0116014,%eax
c01065ed:	89 04 24             	mov    %eax,(%esp)
c01065f0:	e8 f9 59 00 00       	call   c010bfee <list_remove>
c01065f5:	a1 10 60 11 c0       	mov    0xc0116010,%eax
c01065fa:	c7 40 10 00 00 00 00 	movl   $0x0,0x10(%eax)
c0106601:	a1 10 60 11 c0       	mov    0xc0116010,%eax
c0106606:	8b 15 10 60 11 c0    	mov    0xc0116010,%edx
c010660c:	0f b7 52 14          	movzwl 0x14(%edx),%edx
c0106610:	83 ca 10             	or     $0x10,%edx
c0106613:	66 89 50 14          	mov    %dx,0x14(%eax)
c0106617:	a1 10 60 11 c0       	mov    0xc0116010,%eax
c010661c:	8b 55 08             	mov    0x8(%ebp),%edx
c010661f:	8b 12                	mov    (%edx),%edx
c0106621:	8b 52 1c             	mov    0x1c(%edx),%edx
c0106624:	89 50 18             	mov    %edx,0x18(%eax)
c0106627:	8b 15 10 60 11 c0    	mov    0xc0116010,%edx
c010662d:	a1 10 60 11 c0       	mov    0xc0116010,%eax
c0106632:	8b 40 18             	mov    0x18(%eax),%eax
c0106635:	c7 44 24 10 00 00 00 	movl   $0x0,0x10(%esp)
c010663c:	00 
c010663d:	89 54 24 0c          	mov    %edx,0xc(%esp)
c0106641:	c7 44 24 08 00 00 00 	movl   $0x0,0x8(%esp)
c0106648:	00 
c0106649:	89 44 24 04          	mov    %eax,0x4(%esp)
c010664d:	c7 04 24 00 00 00 00 	movl   $0x0,(%esp)
c0106654:	e8 2f f0 ff ff       	call   c0105688 <add_trigger>
c0106659:	8b 45 08             	mov    0x8(%ebp),%eax
c010665c:	8b 00                	mov    (%eax),%eax
c010665e:	89 04 24             	mov    %eax,(%esp)
c0106661:	e8 8f c4 ff ff       	call   c0102af5 <task_schedule>
c0106666:	8b 55 08             	mov    0x8(%ebp),%edx
c0106669:	89 02                	mov    %eax,(%edx)
c010666b:	c9                   	leave  
c010666c:	c3                   	ret    

c010666d <INIT_VFS>:
c010666d:	55                   	push   %ebp
c010666e:	89 e5                	mov    %esp,%ebp
c0106670:	83 ec 38             	sub    $0x38,%esp
c0106673:	c7 04 24 40 00 00 00 	movl   $0x40,(%esp)
c010667a:	e8 24 ba ff ff       	call   c01020a3 <malloc>
c010667f:	a3 20 40 11 c0       	mov    %eax,0xc0114020
c0106684:	a1 20 40 11 c0       	mov    0xc0114020,%eax
c0106689:	c7 40 14 00 00 00 00 	movl   $0x0,0x14(%eax)
c0106690:	a1 20 40 11 c0       	mov    0xc0114020,%eax
c0106695:	c7 40 10 ff 01 00 00 	movl   $0x1ff,0x10(%eax)
c010669c:	c7 05 24 40 11 c0 01 	movl   $0x1,0xc0114024
c01066a3:	00 00 00 
c01066a6:	a1 20 40 11 c0       	mov    0xc0114020,%eax
c01066ab:	c7 00 49 e5 10 c0    	movl   $0xc010e549,(%eax)
c01066b1:	a1 20 40 11 c0       	mov    0xc0114020,%eax
c01066b6:	c7 40 0c 00 00 00 00 	movl   $0x0,0xc(%eax)
c01066bd:	a1 20 40 11 c0       	mov    0xc0114020,%eax
c01066c2:	c7 40 3c 00 00 00 00 	movl   $0x0,0x3c(%eax)
c01066c9:	a1 20 40 11 c0       	mov    0xc0114020,%eax
c01066ce:	c7 40 08 00 00 00 00 	movl   $0x0,0x8(%eax)
c01066d5:	a1 20 40 11 c0       	mov    0xc0114020,%eax
c01066da:	c7 44 24 10 00 00 00 	movl   $0x0,0x10(%esp)
c01066e1:	00 
c01066e2:	c7 44 24 0c 00 00 00 	movl   $0x0,0xc(%esp)
c01066e9:	00 
c01066ea:	89 44 24 08          	mov    %eax,0x8(%esp)
c01066ee:	c7 44 24 04 ff 01 00 	movl   $0x1ff,0x4(%esp)
c01066f5:	00 
c01066f6:	c7 04 24 4e e5 10 c0 	movl   $0xc010e54e,(%esp)
c01066fd:	e8 28 00 00 00       	call   c010672a <vfs_create_inode>
c0106702:	89 45 f4             	mov    %eax,-0xc(%ebp)
c0106705:	c7 44 24 0c 0d 00 00 	movl   $0xd,0xc(%esp)
c010670c:	00 
c010670d:	c7 44 24 08 56 e5 10 	movl   $0xc010e556,0x8(%esp)
c0106714:	c0 
c0106715:	c7 44 24 04 00 00 00 	movl   $0x0,0x4(%esp)
c010671c:	00 
c010671d:	8b 45 f4             	mov    -0xc(%ebp),%eax
c0106720:	89 04 24             	mov    %eax,(%esp)
c0106723:	e8 94 01 00 00       	call   c01068bc <vfs_write>
c0106728:	c9                   	leave  
c0106729:	c3                   	ret    

c010672a <vfs_create_inode>:
c010672a:	55                   	push   %ebp
c010672b:	89 e5                	mov    %esp,%ebp
c010672d:	83 ec 28             	sub    $0x28,%esp
c0106730:	c7 04 24 40 00 00 00 	movl   $0x40,(%esp)
c0106737:	e8 67 b9 ff ff       	call   c01020a3 <malloc>
c010673c:	89 45 f4             	mov    %eax,-0xc(%ebp)
c010673f:	8b 45 f4             	mov    -0xc(%ebp),%eax
c0106742:	8b 55 08             	mov    0x8(%ebp),%edx
c0106745:	89 10                	mov    %edx,(%eax)
c0106747:	8b 45 f4             	mov    -0xc(%ebp),%eax
c010674a:	c7 40 0c 00 00 00 00 	movl   $0x0,0xc(%eax)
c0106751:	8b 45 f4             	mov    -0xc(%ebp),%eax
c0106754:	c7 40 08 00 00 00 00 	movl   $0x0,0x8(%eax)
c010675b:	8b 45 f4             	mov    -0xc(%ebp),%eax
c010675e:	c7 40 04 00 00 00 00 	movl   $0x0,0x4(%eax)
c0106765:	83 7d 10 00          	cmpl   $0x0,0x10(%ebp)
c0106769:	74 3b                	je     c01067a6 <vfs_create_inode+0x7c>
c010676b:	8b 45 f4             	mov    -0xc(%ebp),%eax
c010676e:	8b 55 10             	mov    0x10(%ebp),%edx
c0106771:	89 50 3c             	mov    %edx,0x3c(%eax)
c0106774:	8b 45 f4             	mov    -0xc(%ebp),%eax
c0106777:	89 04 24             	mov    %eax,(%esp)
c010677a:	e8 0f 01 00 00       	call   c010688e <vfs_create_dir_entry>
c010677f:	89 45 f0             	mov    %eax,-0x10(%ebp)
c0106782:	8b 45 10             	mov    0x10(%ebp),%eax
c0106785:	8b 40 0c             	mov    0xc(%eax),%eax
c0106788:	c7 44 24 0c 08 00 00 	movl   $0x8,0xc(%esp)
c010678f:	00 
c0106790:	8b 55 f0             	mov    -0x10(%ebp),%edx
c0106793:	89 54 24 08          	mov    %edx,0x8(%esp)
c0106797:	89 44 24 04          	mov    %eax,0x4(%esp)
c010679b:	8b 45 10             	mov    0x10(%ebp),%eax
c010679e:	89 04 24             	mov    %eax,(%esp)
c01067a1:	e8 16 01 00 00       	call   c01068bc <vfs_write>
c01067a6:	8b 45 f4             	mov    -0xc(%ebp),%eax
c01067a9:	8b 55 0c             	mov    0xc(%ebp),%edx
c01067ac:	89 50 10             	mov    %edx,0x10(%eax)
c01067af:	a1 24 40 11 c0       	mov    0xc0114024,%eax
c01067b4:	8d 50 01             	lea    0x1(%eax),%edx
c01067b7:	89 15 24 40 11 c0    	mov    %edx,0xc0114024
c01067bd:	8b 55 f4             	mov    -0xc(%ebp),%edx
c01067c0:	89 42 14             	mov    %eax,0x14(%edx)
c01067c3:	8b 45 f4             	mov    -0xc(%ebp),%eax
c01067c6:	8b 55 14             	mov    0x14(%ebp),%edx
c01067c9:	89 50 1c             	mov    %edx,0x1c(%eax)
c01067cc:	8b 45 f4             	mov    -0xc(%ebp),%eax
c01067cf:	8b 55 18             	mov    0x18(%ebp),%edx
c01067d2:	89 50 20             	mov    %edx,0x20(%eax)
c01067d5:	8b 45 f4             	mov    -0xc(%ebp),%eax
c01067d8:	83 c0 28             	add    $0x28,%eax
c01067db:	89 04 24             	mov    %eax,(%esp)
c01067de:	e8 03 dc ff ff       	call   c01043e6 <update_time>
c01067e3:	8b 45 f4             	mov    -0xc(%ebp),%eax
c01067e6:	83 c0 2c             	add    $0x2c,%eax
c01067e9:	89 04 24             	mov    %eax,(%esp)
c01067ec:	e8 f5 db ff ff       	call   c01043e6 <update_time>
c01067f1:	8b 45 f4             	mov    -0xc(%ebp),%eax
c01067f4:	c9                   	leave  
c01067f5:	c3                   	ret    

c01067f6 <vfs_create_pipe>:
c01067f6:	55                   	push   %ebp
c01067f7:	89 e5                	mov    %esp,%ebp
c01067f9:	83 ec 38             	sub    $0x38,%esp
c01067fc:	8b 45 0c             	mov    0xc(%ebp),%eax
c01067ff:	89 44 24 10          	mov    %eax,0x10(%esp)
c0106803:	8b 45 08             	mov    0x8(%ebp),%eax
c0106806:	89 44 24 0c          	mov    %eax,0xc(%esp)
c010680a:	c7 44 24 08 00 00 00 	movl   $0x0,0x8(%esp)
c0106811:	00 
c0106812:	c7 44 24 04 00 00 00 	movl   $0x0,0x4(%esp)
c0106819:	00 
c010681a:	c7 04 24 63 e5 10 c0 	movl   $0xc010e563,(%esp)
c0106821:	e8 04 ff ff ff       	call   c010672a <vfs_create_inode>
c0106826:	89 45 f4             	mov    %eax,-0xc(%ebp)
c0106829:	c7 04 24 18 00 00 00 	movl   $0x18,(%esp)
c0106830:	e8 6e b8 ff ff       	call   c01020a3 <malloc>
c0106835:	89 45 f0             	mov    %eax,-0x10(%ebp)
c0106838:	8b 45 f0             	mov    -0x10(%ebp),%eax
c010683b:	c7 00 01 00 00 00    	movl   $0x1,(%eax)
c0106841:	8b 45 f0             	mov    -0x10(%ebp),%eax
c0106844:	c7 40 04 01 00 00 00 	movl   $0x1,0x4(%eax)
c010684b:	e8 ed 54 00 00       	call   c010bd3d <list_create>
c0106850:	8b 55 f0             	mov    -0x10(%ebp),%edx
c0106853:	89 42 10             	mov    %eax,0x10(%edx)
c0106856:	e8 97 ed ff ff       	call   c01055f2 <get_new_event_ID>
c010685b:	8b 55 f0             	mov    -0x10(%ebp),%edx
c010685e:	89 42 08             	mov    %eax,0x8(%edx)
c0106861:	e8 d7 54 00 00       	call   c010bd3d <list_create>
c0106866:	8b 55 f0             	mov    -0x10(%ebp),%edx
c0106869:	89 42 0c             	mov    %eax,0xc(%edx)
c010686c:	8b 45 f4             	mov    -0xc(%ebp),%eax
c010686f:	c7 40 08 01 00 00 00 	movl   $0x1,0x8(%eax)
c0106876:	8b 45 f4             	mov    -0xc(%ebp),%eax
c0106879:	8b 55 f0             	mov    -0x10(%ebp),%edx
c010687c:	89 50 04             	mov    %edx,0x4(%eax)
c010687f:	8b 45 f4             	mov    -0xc(%ebp),%eax
c0106882:	c7 40 0c 00 00 00 00 	movl   $0x0,0xc(%eax)
c0106889:	8b 45 f4             	mov    -0xc(%ebp),%eax
c010688c:	c9                   	leave  
c010688d:	c3                   	ret    

c010688e <vfs_create_dir_entry>:
c010688e:	55                   	push   %ebp
c010688f:	89 e5                	mov    %esp,%ebp
c0106891:	83 ec 28             	sub    $0x28,%esp
c0106894:	c7 04 24 08 00 00 00 	movl   $0x8,(%esp)
c010689b:	e8 03 b8 ff ff       	call   c01020a3 <malloc>
c01068a0:	89 45 f4             	mov    %eax,-0xc(%ebp)
c01068a3:	8b 45 08             	mov    0x8(%ebp),%eax
c01068a6:	8b 50 14             	mov    0x14(%eax),%edx
c01068a9:	8b 45 f4             	mov    -0xc(%ebp),%eax
c01068ac:	89 10                	mov    %edx,(%eax)
c01068ae:	8b 45 f4             	mov    -0xc(%ebp),%eax
c01068b1:	8b 55 08             	mov    0x8(%ebp),%edx
c01068b4:	89 50 04             	mov    %edx,0x4(%eax)
c01068b7:	8b 45 f4             	mov    -0xc(%ebp),%eax
c01068ba:	c9                   	leave  
c01068bb:	c3                   	ret    

c01068bc <vfs_write>:
c01068bc:	55                   	push   %ebp
c01068bd:	89 e5                	mov    %esp,%ebp
c01068bf:	83 ec 58             	sub    $0x58,%esp
c01068c2:	8b 45 08             	mov    0x8(%ebp),%eax
c01068c5:	8b 40 08             	mov    0x8(%eax),%eax
c01068c8:	83 f8 03             	cmp    $0x3,%eax
c01068cb:	75 09                	jne    c01068d6 <vfs_write+0x1a>
c01068cd:	8b 45 08             	mov    0x8(%ebp),%eax
c01068d0:	8b 40 04             	mov    0x4(%eax),%eax
c01068d3:	89 45 08             	mov    %eax,0x8(%ebp)
c01068d6:	8b 45 08             	mov    0x8(%ebp),%eax
c01068d9:	8b 40 0c             	mov    0xc(%eax),%eax
c01068dc:	89 45 e0             	mov    %eax,-0x20(%ebp)
c01068df:	8b 45 14             	mov    0x14(%ebp),%eax
c01068e2:	8b 55 0c             	mov    0xc(%ebp),%edx
c01068e5:	01 d0                	add    %edx,%eax
c01068e7:	89 c2                	mov    %eax,%edx
c01068e9:	8b 45 08             	mov    0x8(%ebp),%eax
c01068ec:	8b 40 0c             	mov    0xc(%eax),%eax
c01068ef:	39 c2                	cmp    %eax,%edx
c01068f1:	76 1e                	jbe    c0106911 <vfs_write+0x55>
c01068f3:	8b 45 14             	mov    0x14(%ebp),%eax
c01068f6:	8b 55 0c             	mov    0xc(%ebp),%edx
c01068f9:	01 d0                	add    %edx,%eax
c01068fb:	89 c2                	mov    %eax,%edx
c01068fd:	8b 45 08             	mov    0x8(%ebp),%eax
c0106900:	89 50 0c             	mov    %edx,0xc(%eax)
c0106903:	8b 45 08             	mov    0x8(%ebp),%eax
c0106906:	8b 40 0c             	mov    0xc(%eax),%eax
c0106909:	89 c2                	mov    %eax,%edx
c010690b:	8b 45 08             	mov    0x8(%ebp),%eax
c010690e:	89 50 24             	mov    %edx,0x24(%eax)
c0106911:	8b 45 08             	mov    0x8(%ebp),%eax
c0106914:	8b 40 08             	mov    0x8(%eax),%eax
c0106917:	83 f8 01             	cmp    $0x1,%eax
c010691a:	0f 85 8e 01 00 00    	jne    c0106aae <vfs_write+0x1f2>
c0106920:	8b 45 0c             	mov    0xc(%ebp),%eax
c0106923:	8d 90 ff 0f 00 00    	lea    0xfff(%eax),%edx
c0106929:	85 c0                	test   %eax,%eax
c010692b:	0f 48 c2             	cmovs  %edx,%eax
c010692e:	c1 f8 0c             	sar    $0xc,%eax
c0106931:	89 45 f4             	mov    %eax,-0xc(%ebp)
c0106934:	8b 45 0c             	mov    0xc(%ebp),%eax
c0106937:	99                   	cltd   
c0106938:	c1 ea 14             	shr    $0x14,%edx
c010693b:	01 d0                	add    %edx,%eax
c010693d:	25 ff 0f 00 00       	and    $0xfff,%eax
c0106942:	29 d0                	sub    %edx,%eax
c0106944:	89 45 dc             	mov    %eax,-0x24(%ebp)
c0106947:	8b 45 08             	mov    0x8(%ebp),%eax
c010694a:	8b 40 04             	mov    0x4(%eax),%eax
c010694d:	89 45 d8             	mov    %eax,-0x28(%ebp)
c0106950:	c7 45 f0 00 00 00 00 	movl   $0x0,-0x10(%ebp)
c0106957:	8b 45 d8             	mov    -0x28(%ebp),%eax
c010695a:	8b 40 10             	mov    0x10(%eax),%eax
c010695d:	8b 00                	mov    (%eax),%eax
c010695f:	8b 00                	mov    (%eax),%eax
c0106961:	89 45 ec             	mov    %eax,-0x14(%ebp)
c0106964:	c7 45 e4 00 00 00 00 	movl   $0x0,-0x1c(%ebp)
c010696b:	c7 45 e8 00 00 00 00 	movl   $0x0,-0x18(%ebp)
c0106972:	eb 2b                	jmp    c010699f <vfs_write+0xe3>
c0106974:	8b 45 ec             	mov    -0x14(%ebp),%eax
c0106977:	8b 40 08             	mov    0x8(%eax),%eax
c010697a:	89 45 f0             	mov    %eax,-0x10(%ebp)
c010697d:	8b 45 f0             	mov    -0x10(%ebp),%eax
c0106980:	8b 50 04             	mov    0x4(%eax),%edx
c0106983:	8b 45 f4             	mov    -0xc(%ebp),%eax
c0106986:	39 c2                	cmp    %eax,%edx
c0106988:	75 09                	jne    c0106993 <vfs_write+0xd7>
c010698a:	c7 45 e4 01 00 00 00 	movl   $0x1,-0x1c(%ebp)
c0106991:	eb 17                	jmp    c01069aa <vfs_write+0xee>
c0106993:	8b 45 ec             	mov    -0x14(%ebp),%eax
c0106996:	8b 00                	mov    (%eax),%eax
c0106998:	89 45 ec             	mov    %eax,-0x14(%ebp)
c010699b:	83 45 e8 01          	addl   $0x1,-0x18(%ebp)
c010699f:	8b 45 d8             	mov    -0x28(%ebp),%eax
c01069a2:	8b 40 14             	mov    0x14(%eax),%eax
c01069a5:	3b 45 e8             	cmp    -0x18(%ebp),%eax
c01069a8:	7f ca                	jg     c0106974 <vfs_write+0xb8>
c01069aa:	8b 45 10             	mov    0x10(%ebp),%eax
c01069ad:	89 45 d4             	mov    %eax,-0x2c(%ebp)
c01069b0:	c7 45 e8 00 00 00 00 	movl   $0x0,-0x18(%ebp)
c01069b7:	e9 bd 00 00 00       	jmp    c0106a79 <vfs_write+0x1bd>
c01069bc:	8b 45 e8             	mov    -0x18(%ebp),%eax
c01069bf:	8b 55 dc             	mov    -0x24(%ebp),%edx
c01069c2:	01 d0                	add    %edx,%eax
c01069c4:	89 45 d0             	mov    %eax,-0x30(%ebp)
c01069c7:	81 7d d0 ff 0f 00 00 	cmpl   $0xfff,-0x30(%ebp)
c01069ce:	7e 29                	jle    c01069f9 <vfs_write+0x13d>
c01069d0:	83 45 f4 01          	addl   $0x1,-0xc(%ebp)
c01069d4:	8b 45 d8             	mov    -0x28(%ebp),%eax
c01069d7:	8b 40 14             	mov    0x14(%eax),%eax
c01069da:	3b 45 f4             	cmp    -0xc(%ebp),%eax
c01069dd:	7d 09                	jge    c01069e8 <vfs_write+0x12c>
c01069df:	c7 45 e4 00 00 00 00 	movl   $0x0,-0x1c(%ebp)
c01069e6:	eb 11                	jmp    c01069f9 <vfs_write+0x13d>
c01069e8:	8b 45 ec             	mov    -0x14(%ebp),%eax
c01069eb:	8b 00                	mov    (%eax),%eax
c01069ed:	89 45 ec             	mov    %eax,-0x14(%ebp)
c01069f0:	8b 45 ec             	mov    -0x14(%ebp),%eax
c01069f3:	8b 40 08             	mov    0x8(%eax),%eax
c01069f6:	89 45 f0             	mov    %eax,-0x10(%ebp)
c01069f9:	83 7d e4 00          	cmpl   $0x0,-0x1c(%ebp)
c01069fd:	75 5f                	jne    c0106a5e <vfs_write+0x1a2>
c01069ff:	c7 04 24 04 00 00 00 	movl   $0x4,(%esp)
c0106a06:	e8 98 b6 ff ff       	call   c01020a3 <malloc>
c0106a0b:	89 45 f0             	mov    %eax,-0x10(%ebp)
c0106a0e:	c7 04 24 00 10 00 00 	movl   $0x1000,(%esp)
c0106a15:	e8 89 b6 ff ff       	call   c01020a3 <malloc>
c0106a1a:	89 c2                	mov    %eax,%edx
c0106a1c:	8b 45 f0             	mov    -0x10(%ebp),%eax
c0106a1f:	89 10                	mov    %edx,(%eax)
c0106a21:	8b 45 f0             	mov    -0x10(%ebp),%eax
c0106a24:	c7 40 08 00 00 00 00 	movl   $0x0,0x8(%eax)
c0106a2b:	8b 45 d8             	mov    -0x28(%ebp),%eax
c0106a2e:	8b 40 14             	mov    0x14(%eax),%eax
c0106a31:	8d 48 01             	lea    0x1(%eax),%ecx
c0106a34:	8b 55 d8             	mov    -0x28(%ebp),%edx
c0106a37:	89 4a 14             	mov    %ecx,0x14(%edx)
c0106a3a:	89 c2                	mov    %eax,%edx
c0106a3c:	8b 45 f0             	mov    -0x10(%ebp),%eax
c0106a3f:	89 50 04             	mov    %edx,0x4(%eax)
c0106a42:	8b 45 d8             	mov    -0x28(%ebp),%eax
c0106a45:	8b 40 10             	mov    0x10(%eax),%eax
c0106a48:	8b 55 f0             	mov    -0x10(%ebp),%edx
c0106a4b:	89 54 24 04          	mov    %edx,0x4(%esp)
c0106a4f:	89 04 24             	mov    %eax,(%esp)
c0106a52:	e8 de 53 00 00       	call   c010be35 <list_push_back>
c0106a57:	c7 45 e4 01 00 00 00 	movl   $0x1,-0x1c(%ebp)
c0106a5e:	8b 45 f0             	mov    -0x10(%ebp),%eax
c0106a61:	8b 10                	mov    (%eax),%edx
c0106a63:	8b 45 d0             	mov    -0x30(%ebp),%eax
c0106a66:	01 c2                	add    %eax,%edx
c0106a68:	8b 4d e8             	mov    -0x18(%ebp),%ecx
c0106a6b:	8b 45 d4             	mov    -0x2c(%ebp),%eax
c0106a6e:	01 c8                	add    %ecx,%eax
c0106a70:	0f b6 00             	movzbl (%eax),%eax
c0106a73:	88 02                	mov    %al,(%edx)
c0106a75:	83 45 e8 01          	addl   $0x1,-0x18(%ebp)
c0106a79:	8b 45 e8             	mov    -0x18(%ebp),%eax
c0106a7c:	3b 45 14             	cmp    0x14(%ebp),%eax
c0106a7f:	0f 8c 37 ff ff ff    	jl     c01069bc <vfs_write+0x100>
c0106a85:	8b 45 d8             	mov    -0x28(%ebp),%eax
c0106a88:	8b 40 08             	mov    0x8(%eax),%eax
c0106a8b:	89 04 24             	mov    %eax,(%esp)
c0106a8e:	e8 12 ea ff ff       	call   c01054a5 <send_event>
c0106a93:	e8 5a eb ff ff       	call   c01055f2 <get_new_event_ID>
c0106a98:	8b 55 d8             	mov    -0x28(%ebp),%edx
c0106a9b:	89 42 08             	mov    %eax,0x8(%edx)
c0106a9e:	8b 45 d8             	mov    -0x28(%ebp),%eax
c0106aa1:	89 04 24             	mov    %eax,(%esp)
c0106aa4:	e8 bf 11 00 00       	call   c0107c68 <launch_pipe_handlers>
c0106aa9:	e9 9e 00 00 00       	jmp    c0106b4c <vfs_write+0x290>
c0106aae:	8b 45 08             	mov    0x8(%ebp),%eax
c0106ab1:	8b 40 04             	mov    0x4(%eax),%eax
c0106ab4:	85 c0                	test   %eax,%eax
c0106ab6:	75 18                	jne    c0106ad0 <vfs_write+0x214>
c0106ab8:	8b 45 08             	mov    0x8(%ebp),%eax
c0106abb:	8b 40 0c             	mov    0xc(%eax),%eax
c0106abe:	89 04 24             	mov    %eax,(%esp)
c0106ac1:	e8 dd b5 ff ff       	call   c01020a3 <malloc>
c0106ac6:	89 c2                	mov    %eax,%edx
c0106ac8:	8b 45 08             	mov    0x8(%ebp),%eax
c0106acb:	89 50 04             	mov    %edx,0x4(%eax)
c0106ace:	eb 4f                	jmp    c0106b1f <vfs_write+0x263>
c0106ad0:	8b 45 08             	mov    0x8(%ebp),%eax
c0106ad3:	8b 40 0c             	mov    0xc(%eax),%eax
c0106ad6:	05 ff 0f 00 00       	add    $0xfff,%eax
c0106adb:	25 00 f0 ff ff       	and    $0xfffff000,%eax
c0106ae0:	c1 e8 0c             	shr    $0xc,%eax
c0106ae3:	89 45 cc             	mov    %eax,-0x34(%ebp)
c0106ae6:	8b 45 e0             	mov    -0x20(%ebp),%eax
c0106ae9:	05 ff 0f 00 00       	add    $0xfff,%eax
c0106aee:	25 00 f0 ff ff       	and    $0xfffff000,%eax
c0106af3:	c1 e8 0c             	shr    $0xc,%eax
c0106af6:	89 45 c8             	mov    %eax,-0x38(%ebp)
c0106af9:	8b 45 cc             	mov    -0x34(%ebp),%eax
c0106afc:	3b 45 c8             	cmp    -0x38(%ebp),%eax
c0106aff:	7e 1e                	jle    c0106b1f <vfs_write+0x263>
c0106b01:	8b 45 08             	mov    0x8(%ebp),%eax
c0106b04:	8b 50 0c             	mov    0xc(%eax),%edx
c0106b07:	8b 45 08             	mov    0x8(%ebp),%eax
c0106b0a:	8b 40 04             	mov    0x4(%eax),%eax
c0106b0d:	89 54 24 04          	mov    %edx,0x4(%esp)
c0106b11:	89 04 24             	mov    %eax,(%esp)
c0106b14:	e8 fb b5 ff ff       	call   c0102114 <realloc>
c0106b19:	8b 55 08             	mov    0x8(%ebp),%edx
c0106b1c:	89 42 04             	mov    %eax,0x4(%edx)
c0106b1f:	8b 45 08             	mov    0x8(%ebp),%eax
c0106b22:	8b 50 04             	mov    0x4(%eax),%edx
c0106b25:	8b 45 0c             	mov    0xc(%ebp),%eax
c0106b28:	01 d0                	add    %edx,%eax
c0106b2a:	89 45 c4             	mov    %eax,-0x3c(%ebp)
c0106b2d:	8b 45 10             	mov    0x10(%ebp),%eax
c0106b30:	89 45 c0             	mov    %eax,-0x40(%ebp)
c0106b33:	8b 45 14             	mov    0x14(%ebp),%eax
c0106b36:	89 44 24 08          	mov    %eax,0x8(%esp)
c0106b3a:	8b 45 c0             	mov    -0x40(%ebp),%eax
c0106b3d:	89 44 24 04          	mov    %eax,0x4(%esp)
c0106b41:	8b 45 c4             	mov    -0x3c(%ebp),%eax
c0106b44:	89 04 24             	mov    %eax,(%esp)
c0106b47:	e8 d3 5b 00 00       	call   c010c71f <memcpy>
c0106b4c:	8b 45 14             	mov    0x14(%ebp),%eax
c0106b4f:	c9                   	leave  
c0106b50:	c3                   	ret    

c0106b51 <vfs_read>:
c0106b51:	55                   	push   %ebp
c0106b52:	89 e5                	mov    %esp,%ebp
c0106b54:	83 ec 38             	sub    $0x38,%esp
c0106b57:	8b 45 08             	mov    0x8(%ebp),%eax
c0106b5a:	8b 40 08             	mov    0x8(%eax),%eax
c0106b5d:	83 f8 03             	cmp    $0x3,%eax
c0106b60:	75 09                	jne    c0106b6b <vfs_read+0x1a>
c0106b62:	8b 45 08             	mov    0x8(%ebp),%eax
c0106b65:	8b 40 04             	mov    0x4(%eax),%eax
c0106b68:	89 45 08             	mov    %eax,0x8(%ebp)
c0106b6b:	8b 45 08             	mov    0x8(%ebp),%eax
c0106b6e:	8b 40 0c             	mov    0xc(%eax),%eax
c0106b71:	8b 4d 10             	mov    0x10(%ebp),%ecx
c0106b74:	8b 55 0c             	mov    0xc(%ebp),%edx
c0106b77:	01 ca                	add    %ecx,%edx
c0106b79:	39 d0                	cmp    %edx,%eax
c0106b7b:	0f 82 1f 01 00 00    	jb     c0106ca0 <vfs_read+0x14f>
c0106b81:	8b 45 08             	mov    0x8(%ebp),%eax
c0106b84:	8b 40 08             	mov    0x8(%eax),%eax
c0106b87:	83 f8 01             	cmp    $0x1,%eax
c0106b8a:	0f 85 ef 00 00 00    	jne    c0106c7f <vfs_read+0x12e>
c0106b90:	8b 45 0c             	mov    0xc(%ebp),%eax
c0106b93:	c1 e8 0c             	shr    $0xc,%eax
c0106b96:	89 45 f4             	mov    %eax,-0xc(%ebp)
c0106b99:	8b 45 0c             	mov    0xc(%ebp),%eax
c0106b9c:	25 ff 0f 00 00       	and    $0xfff,%eax
c0106ba1:	89 45 f0             	mov    %eax,-0x10(%ebp)
c0106ba4:	8b 55 10             	mov    0x10(%ebp),%edx
c0106ba7:	8b 45 0c             	mov    0xc(%ebp),%eax
c0106baa:	01 d0                	add    %edx,%eax
c0106bac:	c1 e8 0c             	shr    $0xc,%eax
c0106baf:	89 45 e4             	mov    %eax,-0x1c(%ebp)
c0106bb2:	8b 55 10             	mov    0x10(%ebp),%edx
c0106bb5:	8b 45 0c             	mov    0xc(%ebp),%eax
c0106bb8:	01 d0                	add    %edx,%eax
c0106bba:	25 ff 0f 00 00       	and    $0xfff,%eax
c0106bbf:	89 45 e0             	mov    %eax,-0x20(%ebp)
c0106bc2:	8b 45 08             	mov    0x8(%ebp),%eax
c0106bc5:	8b 40 04             	mov    0x4(%eax),%eax
c0106bc8:	89 45 dc             	mov    %eax,-0x24(%ebp)
c0106bcb:	c7 45 d8 00 00 00 00 	movl   $0x0,-0x28(%ebp)
c0106bd2:	8b 45 dc             	mov    -0x24(%ebp),%eax
c0106bd5:	8b 40 10             	mov    0x10(%eax),%eax
c0106bd8:	8b 00                	mov    (%eax),%eax
c0106bda:	8b 00                	mov    (%eax),%eax
c0106bdc:	89 45 ec             	mov    %eax,-0x14(%ebp)
c0106bdf:	c7 45 e8 00 00 00 00 	movl   $0x0,-0x18(%ebp)
c0106be6:	e9 83 00 00 00       	jmp    c0106c6e <vfs_read+0x11d>
c0106beb:	8b 45 ec             	mov    -0x14(%ebp),%eax
c0106bee:	8b 40 08             	mov    0x8(%eax),%eax
c0106bf1:	89 45 d8             	mov    %eax,-0x28(%ebp)
c0106bf4:	8b 45 d8             	mov    -0x28(%ebp),%eax
c0106bf7:	8b 50 04             	mov    0x4(%eax),%edx
c0106bfa:	8b 45 f4             	mov    -0xc(%ebp),%eax
c0106bfd:	39 c2                	cmp    %eax,%edx
c0106bff:	75 61                	jne    c0106c62 <vfs_read+0x111>
c0106c01:	8b 45 f4             	mov    -0xc(%ebp),%eax
c0106c04:	3b 45 e4             	cmp    -0x1c(%ebp),%eax
c0106c07:	75 29                	jne    c0106c32 <vfs_read+0xe1>
c0106c09:	8b 45 f0             	mov    -0x10(%ebp),%eax
c0106c0c:	8b 55 e0             	mov    -0x20(%ebp),%edx
c0106c0f:	29 c2                	sub    %eax,%edx
c0106c11:	89 d0                	mov    %edx,%eax
c0106c13:	8b 55 d8             	mov    -0x28(%ebp),%edx
c0106c16:	8b 0a                	mov    (%edx),%ecx
c0106c18:	8b 55 f0             	mov    -0x10(%ebp),%edx
c0106c1b:	01 ca                	add    %ecx,%edx
c0106c1d:	89 44 24 08          	mov    %eax,0x8(%esp)
c0106c21:	89 54 24 04          	mov    %edx,0x4(%esp)
c0106c25:	8b 45 14             	mov    0x14(%ebp),%eax
c0106c28:	89 04 24             	mov    %eax,(%esp)
c0106c2b:	e8 ef 5a 00 00       	call   c010c71f <memcpy>
c0106c30:	eb 30                	jmp    c0106c62 <vfs_read+0x111>
c0106c32:	b8 00 10 00 00       	mov    $0x1000,%eax
c0106c37:	2b 45 f0             	sub    -0x10(%ebp),%eax
c0106c3a:	8b 55 d8             	mov    -0x28(%ebp),%edx
c0106c3d:	8b 0a                	mov    (%edx),%ecx
c0106c3f:	8b 55 f0             	mov    -0x10(%ebp),%edx
c0106c42:	01 ca                	add    %ecx,%edx
c0106c44:	89 44 24 08          	mov    %eax,0x8(%esp)
c0106c48:	89 54 24 04          	mov    %edx,0x4(%esp)
c0106c4c:	8b 45 14             	mov    0x14(%ebp),%eax
c0106c4f:	89 04 24             	mov    %eax,(%esp)
c0106c52:	e8 c8 5a 00 00       	call   c010c71f <memcpy>
c0106c57:	c7 45 f0 00 00 00 00 	movl   $0x0,-0x10(%ebp)
c0106c5e:	83 45 f4 01          	addl   $0x1,-0xc(%ebp)
c0106c62:	8b 45 ec             	mov    -0x14(%ebp),%eax
c0106c65:	8b 00                	mov    (%eax),%eax
c0106c67:	89 45 ec             	mov    %eax,-0x14(%ebp)
c0106c6a:	83 45 e8 01          	addl   $0x1,-0x18(%ebp)
c0106c6e:	8b 45 dc             	mov    -0x24(%ebp),%eax
c0106c71:	8b 40 14             	mov    0x14(%eax),%eax
c0106c74:	3b 45 e8             	cmp    -0x18(%ebp),%eax
c0106c77:	0f 8f 6e ff ff ff    	jg     c0106beb <vfs_read+0x9a>
c0106c7d:	eb 21                	jmp    c0106ca0 <vfs_read+0x14f>
c0106c7f:	8b 45 10             	mov    0x10(%ebp),%eax
c0106c82:	8b 55 08             	mov    0x8(%ebp),%edx
c0106c85:	8b 4a 04             	mov    0x4(%edx),%ecx
c0106c88:	8b 55 0c             	mov    0xc(%ebp),%edx
c0106c8b:	01 ca                	add    %ecx,%edx
c0106c8d:	89 44 24 08          	mov    %eax,0x8(%esp)
c0106c91:	89 54 24 04          	mov    %edx,0x4(%esp)
c0106c95:	8b 45 14             	mov    0x14(%ebp),%eax
c0106c98:	89 04 24             	mov    %eax,(%esp)
c0106c9b:	e8 7f 5a 00 00       	call   c010c71f <memcpy>
c0106ca0:	c9                   	leave  
c0106ca1:	c3                   	ret    

c0106ca2 <vfs_stat>:
c0106ca2:	55                   	push   %ebp
c0106ca3:	89 e5                	mov    %esp,%ebp
c0106ca5:	83 ec 10             	sub    $0x10,%esp
c0106ca8:	8b 45 08             	mov    0x8(%ebp),%eax
c0106cab:	83 c0 10             	add    $0x10,%eax
c0106cae:	89 45 fc             	mov    %eax,-0x4(%ebp)
c0106cb1:	8b 45 0c             	mov    0xc(%ebp),%eax
c0106cb4:	89 45 f8             	mov    %eax,-0x8(%ebp)
c0106cb7:	c7 45 f4 00 00 00 00 	movl   $0x0,-0xc(%ebp)
c0106cbe:	eb 17                	jmp    c0106cd7 <vfs_stat+0x35>
c0106cc0:	8b 45 f8             	mov    -0x8(%ebp),%eax
c0106cc3:	8d 50 01             	lea    0x1(%eax),%edx
c0106cc6:	89 55 f8             	mov    %edx,-0x8(%ebp)
c0106cc9:	8b 55 fc             	mov    -0x4(%ebp),%edx
c0106ccc:	8d 4a 01             	lea    0x1(%edx),%ecx
c0106ccf:	89 4d fc             	mov    %ecx,-0x4(%ebp)
c0106cd2:	0f b6 12             	movzbl (%edx),%edx
c0106cd5:	88 10                	mov    %dl,(%eax)
c0106cd7:	8b 45 f4             	mov    -0xc(%ebp),%eax
c0106cda:	8d 50 01             	lea    0x1(%eax),%edx
c0106cdd:	89 55 f4             	mov    %edx,-0xc(%ebp)
c0106ce0:	83 f8 2b             	cmp    $0x2b,%eax
c0106ce3:	76 db                	jbe    c0106cc0 <vfs_stat+0x1e>
c0106ce5:	b8 00 00 00 00       	mov    $0x0,%eax
c0106cea:	c9                   	leave  
c0106ceb:	c3                   	ret    

c0106cec <vfs_access>:
c0106cec:	55                   	push   %ebp
c0106ced:	89 e5                	mov    %esp,%ebp
c0106cef:	8b 45 08             	mov    0x8(%ebp),%eax
c0106cf2:	8b 40 1c             	mov    0x1c(%eax),%eax
c0106cf5:	3b 45 10             	cmp    0x10(%ebp),%eax
c0106cf8:	75 6b                	jne    c0106d65 <vfs_access+0x79>
c0106cfa:	8b 45 0c             	mov    0xc(%ebp),%eax
c0106cfd:	83 e0 01             	and    $0x1,%eax
c0106d00:	85 c0                	test   %eax,%eax
c0106d02:	74 17                	je     c0106d1b <vfs_access+0x2f>
c0106d04:	8b 45 08             	mov    0x8(%ebp),%eax
c0106d07:	8b 40 10             	mov    0x10(%eax),%eax
c0106d0a:	83 e0 05             	and    $0x5,%eax
c0106d0d:	85 c0                	test   %eax,%eax
c0106d0f:	75 0a                	jne    c0106d1b <vfs_access+0x2f>
c0106d11:	b8 ff ff ff ff       	mov    $0xffffffff,%eax
c0106d16:	e9 18 01 00 00       	jmp    c0106e33 <vfs_access+0x147>
c0106d1b:	8b 45 0c             	mov    0xc(%ebp),%eax
c0106d1e:	83 e0 02             	and    $0x2,%eax
c0106d21:	85 c0                	test   %eax,%eax
c0106d23:	74 17                	je     c0106d3c <vfs_access+0x50>
c0106d25:	8b 45 08             	mov    0x8(%ebp),%eax
c0106d28:	8b 40 10             	mov    0x10(%eax),%eax
c0106d2b:	83 e0 06             	and    $0x6,%eax
c0106d2e:	85 c0                	test   %eax,%eax
c0106d30:	75 0a                	jne    c0106d3c <vfs_access+0x50>
c0106d32:	b8 ff ff ff ff       	mov    $0xffffffff,%eax
c0106d37:	e9 f7 00 00 00       	jmp    c0106e33 <vfs_access+0x147>
c0106d3c:	8b 45 0c             	mov    0xc(%ebp),%eax
c0106d3f:	83 e0 04             	and    $0x4,%eax
c0106d42:	85 c0                	test   %eax,%eax
c0106d44:	0f 84 e4 00 00 00    	je     c0106e2e <vfs_access+0x142>
c0106d4a:	8b 45 08             	mov    0x8(%ebp),%eax
c0106d4d:	8b 40 10             	mov    0x10(%eax),%eax
c0106d50:	83 e0 08             	and    $0x8,%eax
c0106d53:	85 c0                	test   %eax,%eax
c0106d55:	0f 85 d3 00 00 00    	jne    c0106e2e <vfs_access+0x142>
c0106d5b:	b8 ff ff ff ff       	mov    $0xffffffff,%eax
c0106d60:	e9 ce 00 00 00       	jmp    c0106e33 <vfs_access+0x147>
c0106d65:	8b 45 08             	mov    0x8(%ebp),%eax
c0106d68:	8b 40 20             	mov    0x20(%eax),%eax
c0106d6b:	3b 45 14             	cmp    0x14(%ebp),%eax
c0106d6e:	75 60                	jne    c0106dd0 <vfs_access+0xe4>
c0106d70:	8b 45 0c             	mov    0xc(%ebp),%eax
c0106d73:	83 e0 01             	and    $0x1,%eax
c0106d76:	85 c0                	test   %eax,%eax
c0106d78:	74 17                	je     c0106d91 <vfs_access+0xa5>
c0106d7a:	8b 45 08             	mov    0x8(%ebp),%eax
c0106d7d:	8b 40 10             	mov    0x10(%eax),%eax
c0106d80:	83 e0 0c             	and    $0xc,%eax
c0106d83:	85 c0                	test   %eax,%eax
c0106d85:	75 0a                	jne    c0106d91 <vfs_access+0xa5>
c0106d87:	b8 ff ff ff ff       	mov    $0xffffffff,%eax
c0106d8c:	e9 a2 00 00 00       	jmp    c0106e33 <vfs_access+0x147>
c0106d91:	8b 45 0c             	mov    0xc(%ebp),%eax
c0106d94:	83 e0 02             	and    $0x2,%eax
c0106d97:	85 c0                	test   %eax,%eax
c0106d99:	74 17                	je     c0106db2 <vfs_access+0xc6>
c0106d9b:	8b 45 08             	mov    0x8(%ebp),%eax
c0106d9e:	8b 40 10             	mov    0x10(%eax),%eax
c0106da1:	83 e0 14             	and    $0x14,%eax
c0106da4:	85 c0                	test   %eax,%eax
c0106da6:	75 0a                	jne    c0106db2 <vfs_access+0xc6>
c0106da8:	b8 ff ff ff ff       	mov    $0xffffffff,%eax
c0106dad:	e9 81 00 00 00       	jmp    c0106e33 <vfs_access+0x147>
c0106db2:	8b 45 0c             	mov    0xc(%ebp),%eax
c0106db5:	83 e0 04             	and    $0x4,%eax
c0106db8:	85 c0                	test   %eax,%eax
c0106dba:	74 72                	je     c0106e2e <vfs_access+0x142>
c0106dbc:	8b 45 08             	mov    0x8(%ebp),%eax
c0106dbf:	8b 40 10             	mov    0x10(%eax),%eax
c0106dc2:	83 e0 24             	and    $0x24,%eax
c0106dc5:	85 c0                	test   %eax,%eax
c0106dc7:	75 65                	jne    c0106e2e <vfs_access+0x142>
c0106dc9:	b8 ff ff ff ff       	mov    $0xffffffff,%eax
c0106dce:	eb 63                	jmp    c0106e33 <vfs_access+0x147>
c0106dd0:	8b 45 0c             	mov    0xc(%ebp),%eax
c0106dd3:	83 e0 01             	and    $0x1,%eax
c0106dd6:	85 c0                	test   %eax,%eax
c0106dd8:	74 14                	je     c0106dee <vfs_access+0x102>
c0106dda:	8b 45 08             	mov    0x8(%ebp),%eax
c0106ddd:	8b 40 10             	mov    0x10(%eax),%eax
c0106de0:	83 e0 44             	and    $0x44,%eax
c0106de3:	85 c0                	test   %eax,%eax
c0106de5:	75 07                	jne    c0106dee <vfs_access+0x102>
c0106de7:	b8 ff ff ff ff       	mov    $0xffffffff,%eax
c0106dec:	eb 45                	jmp    c0106e33 <vfs_access+0x147>
c0106dee:	8b 45 0c             	mov    0xc(%ebp),%eax
c0106df1:	83 e0 02             	and    $0x2,%eax
c0106df4:	85 c0                	test   %eax,%eax
c0106df6:	74 16                	je     c0106e0e <vfs_access+0x122>
c0106df8:	8b 45 08             	mov    0x8(%ebp),%eax
c0106dfb:	8b 40 10             	mov    0x10(%eax),%eax
c0106dfe:	25 84 00 00 00       	and    $0x84,%eax
c0106e03:	85 c0                	test   %eax,%eax
c0106e05:	75 07                	jne    c0106e0e <vfs_access+0x122>
c0106e07:	b8 ff ff ff ff       	mov    $0xffffffff,%eax
c0106e0c:	eb 25                	jmp    c0106e33 <vfs_access+0x147>
c0106e0e:	8b 45 0c             	mov    0xc(%ebp),%eax
c0106e11:	83 e0 04             	and    $0x4,%eax
c0106e14:	85 c0                	test   %eax,%eax
c0106e16:	74 16                	je     c0106e2e <vfs_access+0x142>
c0106e18:	8b 45 08             	mov    0x8(%ebp),%eax
c0106e1b:	8b 40 10             	mov    0x10(%eax),%eax
c0106e1e:	25 04 01 00 00       	and    $0x104,%eax
c0106e23:	85 c0                	test   %eax,%eax
c0106e25:	75 07                	jne    c0106e2e <vfs_access+0x142>
c0106e27:	b8 ff ff ff ff       	mov    $0xffffffff,%eax
c0106e2c:	eb 05                	jmp    c0106e33 <vfs_access+0x147>
c0106e2e:	b8 00 00 00 00       	mov    $0x0,%eax
c0106e33:	5d                   	pop    %ebp
c0106e34:	c3                   	ret    

c0106e35 <vfs_lookup_path>:
c0106e35:	55                   	push   %ebp
c0106e36:	89 e5                	mov    %esp,%ebp
c0106e38:	83 ec 38             	sub    $0x38,%esp
c0106e3b:	a1 20 40 11 c0       	mov    0xc0114020,%eax
c0106e40:	89 45 f4             	mov    %eax,-0xc(%ebp)
c0106e43:	8b 45 08             	mov    0x8(%ebp),%eax
c0106e46:	0f b6 00             	movzbl (%eax),%eax
c0106e49:	3c 2f                	cmp    $0x2f,%al
c0106e4b:	74 10                	je     c0106e5d <vfs_lookup_path+0x28>
c0106e4d:	a1 10 60 11 c0       	mov    0xc0116010,%eax
c0106e52:	8b 40 04             	mov    0x4(%eax),%eax
c0106e55:	8b 40 18             	mov    0x18(%eax),%eax
c0106e58:	89 45 f4             	mov    %eax,-0xc(%ebp)
c0106e5b:	eb 04                	jmp    c0106e61 <vfs_lookup_path+0x2c>
c0106e5d:	83 45 08 01          	addl   $0x1,0x8(%ebp)
c0106e61:	8b 45 08             	mov    0x8(%ebp),%eax
c0106e64:	89 04 24             	mov    %eax,(%esp)
c0106e67:	e8 ad 54 00 00       	call   c010c319 <strlen>
c0106e6c:	89 45 e4             	mov    %eax,-0x1c(%ebp)
c0106e6f:	8b 45 e4             	mov    -0x1c(%ebp),%eax
c0106e72:	8d 50 ff             	lea    -0x1(%eax),%edx
c0106e75:	8b 45 08             	mov    0x8(%ebp),%eax
c0106e78:	01 d0                	add    %edx,%eax
c0106e7a:	0f b6 00             	movzbl (%eax),%eax
c0106e7d:	3c 2f                	cmp    $0x2f,%al
c0106e7f:	75 0e                	jne    c0106e8f <vfs_lookup_path+0x5a>
c0106e81:	8b 45 e4             	mov    -0x1c(%ebp),%eax
c0106e84:	8d 50 ff             	lea    -0x1(%eax),%edx
c0106e87:	8b 45 08             	mov    0x8(%ebp),%eax
c0106e8a:	01 d0                	add    %edx,%eax
c0106e8c:	c6 00 00             	movb   $0x0,(%eax)
c0106e8f:	66 c7 45 da 2f 00    	movw   $0x2f,-0x26(%ebp)
c0106e95:	8d 45 da             	lea    -0x26(%ebp),%eax
c0106e98:	89 44 24 04          	mov    %eax,0x4(%esp)
c0106e9c:	8b 45 08             	mov    0x8(%ebp),%eax
c0106e9f:	89 04 24             	mov    %eax,(%esp)
c0106ea2:	e8 80 57 00 00       	call   c010c627 <strtok>
c0106ea7:	89 45 f0             	mov    %eax,-0x10(%ebp)
c0106eaa:	e9 97 00 00 00       	jmp    c0106f46 <vfs_lookup_path+0x111>
c0106eaf:	8b 45 f4             	mov    -0xc(%ebp),%eax
c0106eb2:	8b 40 0c             	mov    0xc(%eax),%eax
c0106eb5:	c1 e8 03             	shr    $0x3,%eax
c0106eb8:	89 45 e0             	mov    %eax,-0x20(%ebp)
c0106ebb:	8b 45 f4             	mov    -0xc(%ebp),%eax
c0106ebe:	8b 40 04             	mov    0x4(%eax),%eax
c0106ec1:	89 45 dc             	mov    %eax,-0x24(%ebp)
c0106ec4:	c7 45 ec 00 00 00 00 	movl   $0x0,-0x14(%ebp)
c0106ecb:	c7 45 e8 00 00 00 00 	movl   $0x0,-0x18(%ebp)
c0106ed2:	eb 47                	jmp    c0106f1b <vfs_lookup_path+0xe6>
c0106ed4:	8b 45 e8             	mov    -0x18(%ebp),%eax
c0106ed7:	8d 14 c5 00 00 00 00 	lea    0x0(,%eax,8),%edx
c0106ede:	8b 45 dc             	mov    -0x24(%ebp),%eax
c0106ee1:	01 d0                	add    %edx,%eax
c0106ee3:	8b 40 04             	mov    0x4(%eax),%eax
c0106ee6:	8b 00                	mov    (%eax),%eax
c0106ee8:	89 44 24 04          	mov    %eax,0x4(%esp)
c0106eec:	8b 45 f0             	mov    -0x10(%ebp),%eax
c0106eef:	89 04 24             	mov    %eax,(%esp)
c0106ef2:	e8 66 55 00 00       	call   c010c45d <strcmp>
c0106ef7:	85 c0                	test   %eax,%eax
c0106ef9:	74 1c                	je     c0106f17 <vfs_lookup_path+0xe2>
c0106efb:	8b 45 e8             	mov    -0x18(%ebp),%eax
c0106efe:	8d 14 c5 00 00 00 00 	lea    0x0(,%eax,8),%edx
c0106f05:	8b 45 dc             	mov    -0x24(%ebp),%eax
c0106f08:	01 d0                	add    %edx,%eax
c0106f0a:	8b 40 04             	mov    0x4(%eax),%eax
c0106f0d:	89 45 f4             	mov    %eax,-0xc(%ebp)
c0106f10:	c7 45 ec 01 00 00 00 	movl   $0x1,-0x14(%ebp)
c0106f17:	83 45 e8 01          	addl   $0x1,-0x18(%ebp)
c0106f1b:	8b 45 e8             	mov    -0x18(%ebp),%eax
c0106f1e:	3b 45 e0             	cmp    -0x20(%ebp),%eax
c0106f21:	7c b1                	jl     c0106ed4 <vfs_lookup_path+0x9f>
c0106f23:	83 7d ec 00          	cmpl   $0x0,-0x14(%ebp)
c0106f27:	75 07                	jne    c0106f30 <vfs_lookup_path+0xfb>
c0106f29:	b8 00 00 00 00       	mov    $0x0,%eax
c0106f2e:	eb 23                	jmp    c0106f53 <vfs_lookup_path+0x11e>
c0106f30:	8d 45 da             	lea    -0x26(%ebp),%eax
c0106f33:	89 44 24 04          	mov    %eax,0x4(%esp)
c0106f37:	c7 04 24 00 00 00 00 	movl   $0x0,(%esp)
c0106f3e:	e8 e4 56 00 00       	call   c010c627 <strtok>
c0106f43:	89 45 f0             	mov    %eax,-0x10(%ebp)
c0106f46:	83 7d f0 00          	cmpl   $0x0,-0x10(%ebp)
c0106f4a:	0f 85 5f ff ff ff    	jne    c0106eaf <vfs_lookup_path+0x7a>
c0106f50:	8b 45 f4             	mov    -0xc(%ebp),%eax
c0106f53:	c9                   	leave  
c0106f54:	c3                   	ret    

c0106f55 <get_fd>:
c0106f55:	55                   	push   %ebp
c0106f56:	89 e5                	mov    %esp,%ebp
c0106f58:	83 ec 10             	sub    $0x10,%esp
c0106f5b:	c7 45 f8 00 00 00 00 	movl   $0x0,-0x8(%ebp)
c0106f62:	a1 10 60 11 c0       	mov    0xc0116010,%eax
c0106f67:	8b 40 04             	mov    0x4(%eax),%eax
c0106f6a:	8b 40 1c             	mov    0x1c(%eax),%eax
c0106f6d:	8b 00                	mov    (%eax),%eax
c0106f6f:	8b 00                	mov    (%eax),%eax
c0106f71:	89 45 fc             	mov    %eax,-0x4(%ebp)
c0106f74:	eb 22                	jmp    c0106f98 <get_fd+0x43>
c0106f76:	8b 45 fc             	mov    -0x4(%ebp),%eax
c0106f79:	8b 40 08             	mov    0x8(%eax),%eax
c0106f7c:	89 45 f8             	mov    %eax,-0x8(%ebp)
c0106f7f:	8b 45 f8             	mov    -0x8(%ebp),%eax
c0106f82:	8b 10                	mov    (%eax),%edx
c0106f84:	8b 45 08             	mov    0x8(%ebp),%eax
c0106f87:	39 c2                	cmp    %eax,%edx
c0106f89:	75 05                	jne    c0106f90 <get_fd+0x3b>
c0106f8b:	8b 45 f8             	mov    -0x8(%ebp),%eax
c0106f8e:	eb 1f                	jmp    c0106faf <get_fd+0x5a>
c0106f90:	8b 45 fc             	mov    -0x4(%ebp),%eax
c0106f93:	8b 00                	mov    (%eax),%eax
c0106f95:	89 45 fc             	mov    %eax,-0x4(%ebp)
c0106f98:	a1 10 60 11 c0       	mov    0xc0116010,%eax
c0106f9d:	8b 40 04             	mov    0x4(%eax),%eax
c0106fa0:	8b 40 1c             	mov    0x1c(%eax),%eax
c0106fa3:	8b 00                	mov    (%eax),%eax
c0106fa5:	3b 45 fc             	cmp    -0x4(%ebp),%eax
c0106fa8:	75 cc                	jne    c0106f76 <get_fd+0x21>
c0106faa:	b8 00 00 00 00       	mov    $0x0,%eax
c0106faf:	c9                   	leave  
c0106fb0:	c3                   	ret    

c0106fb1 <sys_open>:
c0106fb1:	55                   	push   %ebp
c0106fb2:	89 e5                	mov    %esp,%ebp
c0106fb4:	83 ec 48             	sub    $0x48,%esp
c0106fb7:	8b 45 08             	mov    0x8(%ebp),%eax
c0106fba:	8b 00                	mov    (%eax),%eax
c0106fbc:	8b 40 1c             	mov    0x1c(%eax),%eax
c0106fbf:	89 45 f0             	mov    %eax,-0x10(%ebp)
c0106fc2:	8b 45 08             	mov    0x8(%ebp),%eax
c0106fc5:	8b 00                	mov    (%eax),%eax
c0106fc7:	8b 40 24             	mov    0x24(%eax),%eax
c0106fca:	89 45 ec             	mov    %eax,-0x14(%ebp)
c0106fcd:	8b 45 08             	mov    0x8(%ebp),%eax
c0106fd0:	8b 00                	mov    (%eax),%eax
c0106fd2:	8b 40 20             	mov    0x20(%eax),%eax
c0106fd5:	89 45 e8             	mov    %eax,-0x18(%ebp)
c0106fd8:	8b 45 f0             	mov    -0x10(%ebp),%eax
c0106fdb:	89 04 24             	mov    %eax,(%esp)
c0106fde:	e8 52 fe ff ff       	call   c0106e35 <vfs_lookup_path>
c0106fe3:	89 45 f4             	mov    %eax,-0xc(%ebp)
c0106fe6:	83 7d f4 00          	cmpl   $0x0,-0xc(%ebp)
c0106fea:	0f 85 d9 00 00 00    	jne    c01070c9 <sys_open+0x118>
c0106ff0:	8b 45 ec             	mov    -0x14(%ebp),%eax
c0106ff3:	83 e0 20             	and    $0x20,%eax
c0106ff6:	85 c0                	test   %eax,%eax
c0106ff8:	0f 84 ba 00 00 00    	je     c01070b8 <sys_open+0x107>
c0106ffe:	8b 45 f0             	mov    -0x10(%ebp),%eax
c0107001:	89 04 24             	mov    %eax,(%esp)
c0107004:	e8 10 53 00 00       	call   c010c319 <strlen>
c0107009:	89 04 24             	mov    %eax,(%esp)
c010700c:	e8 92 b0 ff ff       	call   c01020a3 <malloc>
c0107011:	89 45 e4             	mov    %eax,-0x1c(%ebp)
c0107014:	8b 45 f0             	mov    -0x10(%ebp),%eax
c0107017:	89 44 24 04          	mov    %eax,0x4(%esp)
c010701b:	8b 45 e4             	mov    -0x1c(%ebp),%eax
c010701e:	89 04 24             	mov    %eax,(%esp)
c0107021:	e8 1a 53 00 00       	call   c010c340 <strcpy>
c0107026:	a1 20 40 11 c0       	mov    0xc0114020,%eax
c010702b:	89 45 e0             	mov    %eax,-0x20(%ebp)
c010702e:	a1 10 60 11 c0       	mov    0xc0116010,%eax
c0107033:	8b 40 04             	mov    0x4(%eax),%eax
c0107036:	8b 40 08             	mov    0x8(%eax),%eax
c0107039:	85 c0                	test   %eax,%eax
c010703b:	0f 94 c0             	sete   %al
c010703e:	0f b6 d0             	movzbl %al,%edx
c0107041:	a1 10 60 11 c0       	mov    0xc0116010,%eax
c0107046:	8b 40 04             	mov    0x4(%eax),%eax
c0107049:	8b 40 04             	mov    0x4(%eax),%eax
c010704c:	89 54 24 0c          	mov    %edx,0xc(%esp)
c0107050:	89 44 24 08          	mov    %eax,0x8(%esp)
c0107054:	c7 44 24 04 02 00 00 	movl   $0x2,0x4(%esp)
c010705b:	00 
c010705c:	8b 45 e0             	mov    -0x20(%ebp),%eax
c010705f:	89 04 24             	mov    %eax,(%esp)
c0107062:	e8 85 fc ff ff       	call   c0106cec <vfs_access>
c0107067:	85 c0                	test   %eax,%eax
c0107069:	74 3c                	je     c01070a7 <sys_open+0xf6>
c010706b:	a1 10 60 11 c0       	mov    0xc0116010,%eax
c0107070:	8b 40 04             	mov    0x4(%eax),%eax
c0107073:	8b 50 08             	mov    0x8(%eax),%edx
c0107076:	a1 10 60 11 c0       	mov    0xc0116010,%eax
c010707b:	8b 40 04             	mov    0x4(%eax),%eax
c010707e:	8b 40 04             	mov    0x4(%eax),%eax
c0107081:	89 54 24 10          	mov    %edx,0x10(%esp)
c0107085:	89 44 24 0c          	mov    %eax,0xc(%esp)
c0107089:	8b 45 e0             	mov    -0x20(%ebp),%eax
c010708c:	89 44 24 08          	mov    %eax,0x8(%esp)
c0107090:	8b 45 e8             	mov    -0x18(%ebp),%eax
c0107093:	89 44 24 04          	mov    %eax,0x4(%esp)
c0107097:	8b 45 e4             	mov    -0x1c(%ebp),%eax
c010709a:	89 04 24             	mov    %eax,(%esp)
c010709d:	e8 88 f6 ff ff       	call   c010672a <vfs_create_inode>
c01070a2:	89 45 f4             	mov    %eax,-0xc(%ebp)
c01070a5:	eb 3d                	jmp    c01070e4 <sys_open+0x133>
c01070a7:	8b 45 08             	mov    0x8(%ebp),%eax
c01070aa:	8b 00                	mov    (%eax),%eax
c01070ac:	c7 40 28 fe ff ff ff 	movl   $0xfffffffe,0x28(%eax)
c01070b3:	e9 6a 01 00 00       	jmp    c0107222 <sys_open+0x271>
c01070b8:	8b 45 08             	mov    0x8(%ebp),%eax
c01070bb:	8b 00                	mov    (%eax),%eax
c01070bd:	c7 40 28 ff ff ff ff 	movl   $0xffffffff,0x28(%eax)
c01070c4:	e9 59 01 00 00       	jmp    c0107222 <sys_open+0x271>
c01070c9:	8b 45 ec             	mov    -0x14(%ebp),%eax
c01070cc:	83 e0 40             	and    $0x40,%eax
c01070cf:	85 c0                	test   %eax,%eax
c01070d1:	74 11                	je     c01070e4 <sys_open+0x133>
c01070d3:	8b 45 08             	mov    0x8(%ebp),%eax
c01070d6:	8b 00                	mov    (%eax),%eax
c01070d8:	c7 40 28 ff ff ff ff 	movl   $0xffffffff,0x28(%eax)
c01070df:	e9 3e 01 00 00       	jmp    c0107222 <sys_open+0x271>
c01070e4:	a1 10 60 11 c0       	mov    0xc0116010,%eax
c01070e9:	8b 40 04             	mov    0x4(%eax),%eax
c01070ec:	8b 40 08             	mov    0x8(%eax),%eax
c01070ef:	85 c0                	test   %eax,%eax
c01070f1:	0f 94 c0             	sete   %al
c01070f4:	0f b6 d0             	movzbl %al,%edx
c01070f7:	a1 10 60 11 c0       	mov    0xc0116010,%eax
c01070fc:	8b 40 04             	mov    0x4(%eax),%eax
c01070ff:	8b 40 04             	mov    0x4(%eax),%eax
c0107102:	89 54 24 0c          	mov    %edx,0xc(%esp)
c0107106:	89 44 24 08          	mov    %eax,0x8(%esp)
c010710a:	c7 44 24 04 01 00 00 	movl   $0x1,0x4(%esp)
c0107111:	00 
c0107112:	8b 45 f4             	mov    -0xc(%ebp),%eax
c0107115:	89 04 24             	mov    %eax,(%esp)
c0107118:	e8 cf fb ff ff       	call   c0106cec <vfs_access>
c010711d:	85 c0                	test   %eax,%eax
c010711f:	0f 84 f1 00 00 00    	je     c0107216 <sys_open+0x265>
c0107125:	8b 45 ec             	mov    -0x14(%ebp),%eax
c0107128:	83 e0 10             	and    $0x10,%eax
c010712b:	85 c0                	test   %eax,%eax
c010712d:	74 70                	je     c010719f <sys_open+0x1ee>
c010712f:	a1 10 60 11 c0       	mov    0xc0116010,%eax
c0107134:	8b 40 04             	mov    0x4(%eax),%eax
c0107137:	8b 40 08             	mov    0x8(%eax),%eax
c010713a:	85 c0                	test   %eax,%eax
c010713c:	0f 94 c0             	sete   %al
c010713f:	0f b6 d0             	movzbl %al,%edx
c0107142:	a1 10 60 11 c0       	mov    0xc0116010,%eax
c0107147:	8b 40 04             	mov    0x4(%eax),%eax
c010714a:	8b 40 04             	mov    0x4(%eax),%eax
c010714d:	89 54 24 0c          	mov    %edx,0xc(%esp)
c0107151:	89 44 24 08          	mov    %eax,0x8(%esp)
c0107155:	c7 44 24 04 02 00 00 	movl   $0x2,0x4(%esp)
c010715c:	00 
c010715d:	8b 45 f4             	mov    -0xc(%ebp),%eax
c0107160:	89 04 24             	mov    %eax,(%esp)
c0107163:	e8 84 fb ff ff       	call   c0106cec <vfs_access>
c0107168:	85 c0                	test   %eax,%eax
c010716a:	74 22                	je     c010718e <sys_open+0x1dd>
c010716c:	8b 45 f4             	mov    -0xc(%ebp),%eax
c010716f:	8b 50 0c             	mov    0xc(%eax),%edx
c0107172:	8b 45 f4             	mov    -0xc(%ebp),%eax
c0107175:	8b 40 04             	mov    0x4(%eax),%eax
c0107178:	89 54 24 08          	mov    %edx,0x8(%esp)
c010717c:	c7 44 24 04 00 00 00 	movl   $0x0,0x4(%esp)
c0107183:	00 
c0107184:	89 04 24             	mov    %eax,(%esp)
c0107187:	e8 58 57 00 00       	call   c010c8e4 <memset>
c010718c:	eb 11                	jmp    c010719f <sys_open+0x1ee>
c010718e:	8b 45 08             	mov    0x8(%ebp),%eax
c0107191:	8b 00                	mov    (%eax),%eax
c0107193:	c7 40 28 fe ff ff ff 	movl   $0xfffffffe,0x28(%eax)
c010719a:	e9 83 00 00 00       	jmp    c0107222 <sys_open+0x271>
c010719f:	c7 04 24 14 00 00 00 	movl   $0x14,(%esp)
c01071a6:	e8 f8 ae ff ff       	call   c01020a3 <malloc>
c01071ab:	89 45 dc             	mov    %eax,-0x24(%ebp)
c01071ae:	a1 10 60 11 c0       	mov    0xc0116010,%eax
c01071b3:	8b 40 04             	mov    0x4(%eax),%eax
c01071b6:	8b 40 1c             	mov    0x1c(%eax),%eax
c01071b9:	89 04 24             	mov    %eax,(%esp)
c01071bc:	e8 80 4e 00 00       	call   c010c041 <list_length>
c01071c1:	89 c2                	mov    %eax,%edx
c01071c3:	8b 45 dc             	mov    -0x24(%ebp),%eax
c01071c6:	89 10                	mov    %edx,(%eax)
c01071c8:	8b 45 dc             	mov    -0x24(%ebp),%eax
c01071cb:	8b 55 e8             	mov    -0x18(%ebp),%edx
c01071ce:	89 50 08             	mov    %edx,0x8(%eax)
c01071d1:	8b 45 dc             	mov    -0x24(%ebp),%eax
c01071d4:	8b 55 ec             	mov    -0x14(%ebp),%edx
c01071d7:	89 50 0c             	mov    %edx,0xc(%eax)
c01071da:	8b 45 dc             	mov    -0x24(%ebp),%eax
c01071dd:	c7 40 10 00 00 00 00 	movl   $0x0,0x10(%eax)
c01071e4:	8b 45 dc             	mov    -0x24(%ebp),%eax
c01071e7:	8b 55 f4             	mov    -0xc(%ebp),%edx
c01071ea:	89 50 04             	mov    %edx,0x4(%eax)
c01071ed:	a1 10 60 11 c0       	mov    0xc0116010,%eax
c01071f2:	8b 40 04             	mov    0x4(%eax),%eax
c01071f5:	8b 40 1c             	mov    0x1c(%eax),%eax
c01071f8:	8b 55 dc             	mov    -0x24(%ebp),%edx
c01071fb:	89 54 24 04          	mov    %edx,0x4(%esp)
c01071ff:	89 04 24             	mov    %eax,(%esp)
c0107202:	e8 2e 4c 00 00       	call   c010be35 <list_push_back>
c0107207:	8b 45 08             	mov    0x8(%ebp),%eax
c010720a:	8b 00                	mov    (%eax),%eax
c010720c:	8b 55 dc             	mov    -0x24(%ebp),%edx
c010720f:	8b 12                	mov    (%edx),%edx
c0107211:	89 50 28             	mov    %edx,0x28(%eax)
c0107214:	eb 0c                	jmp    c0107222 <sys_open+0x271>
c0107216:	8b 45 08             	mov    0x8(%ebp),%eax
c0107219:	8b 00                	mov    (%eax),%eax
c010721b:	c7 40 28 fe ff ff ff 	movl   $0xfffffffe,0x28(%eax)
c0107222:	c9                   	leave  
c0107223:	c3                   	ret    

c0107224 <sys_pipe>:
c0107224:	55                   	push   %ebp
c0107225:	89 e5                	mov    %esp,%ebp
c0107227:	83 ec 28             	sub    $0x28,%esp
c010722a:	8b 45 08             	mov    0x8(%ebp),%eax
c010722d:	8b 00                	mov    (%eax),%eax
c010722f:	8b 40 1c             	mov    0x1c(%eax),%eax
c0107232:	89 45 f4             	mov    %eax,-0xc(%ebp)
c0107235:	8b 45 f4             	mov    -0xc(%ebp),%eax
c0107238:	8b 00                	mov    (%eax),%eax
c010723a:	89 04 24             	mov    %eax,(%esp)
c010723d:	e8 13 fd ff ff       	call   c0106f55 <get_fd>
c0107242:	85 c0                	test   %eax,%eax
c0107244:	0f 84 06 01 00 00    	je     c0107350 <sys_pipe+0x12c>
c010724a:	8b 45 f4             	mov    -0xc(%ebp),%eax
c010724d:	83 c0 04             	add    $0x4,%eax
c0107250:	8b 00                	mov    (%eax),%eax
c0107252:	89 04 24             	mov    %eax,(%esp)
c0107255:	e8 fb fc ff ff       	call   c0106f55 <get_fd>
c010725a:	85 c0                	test   %eax,%eax
c010725c:	0f 84 ee 00 00 00    	je     c0107350 <sys_pipe+0x12c>
c0107262:	a1 10 60 11 c0       	mov    0xc0116010,%eax
c0107267:	8b 40 04             	mov    0x4(%eax),%eax
c010726a:	8b 50 08             	mov    0x8(%eax),%edx
c010726d:	a1 10 60 11 c0       	mov    0xc0116010,%eax
c0107272:	8b 40 04             	mov    0x4(%eax),%eax
c0107275:	8b 40 04             	mov    0x4(%eax),%eax
c0107278:	89 54 24 04          	mov    %edx,0x4(%esp)
c010727c:	89 04 24             	mov    %eax,(%esp)
c010727f:	e8 72 f5 ff ff       	call   c01067f6 <vfs_create_pipe>
c0107284:	89 45 f0             	mov    %eax,-0x10(%ebp)
c0107287:	c7 04 24 14 00 00 00 	movl   $0x14,(%esp)
c010728e:	e8 10 ae ff ff       	call   c01020a3 <malloc>
c0107293:	89 45 ec             	mov    %eax,-0x14(%ebp)
c0107296:	8b 45 f4             	mov    -0xc(%ebp),%eax
c0107299:	8b 00                	mov    (%eax),%eax
c010729b:	89 c2                	mov    %eax,%edx
c010729d:	8b 45 ec             	mov    -0x14(%ebp),%eax
c01072a0:	89 10                	mov    %edx,(%eax)
c01072a2:	8b 45 ec             	mov    -0x14(%ebp),%eax
c01072a5:	c7 40 08 ff 07 00 00 	movl   $0x7ff,0x8(%eax)
c01072ac:	8b 45 ec             	mov    -0x14(%ebp),%eax
c01072af:	c7 40 0c 01 00 00 00 	movl   $0x1,0xc(%eax)
c01072b6:	8b 45 ec             	mov    -0x14(%ebp),%eax
c01072b9:	c7 40 10 00 00 00 00 	movl   $0x0,0x10(%eax)
c01072c0:	8b 45 ec             	mov    -0x14(%ebp),%eax
c01072c3:	8b 55 f0             	mov    -0x10(%ebp),%edx
c01072c6:	89 50 04             	mov    %edx,0x4(%eax)
c01072c9:	a1 10 60 11 c0       	mov    0xc0116010,%eax
c01072ce:	8b 40 04             	mov    0x4(%eax),%eax
c01072d1:	8b 40 1c             	mov    0x1c(%eax),%eax
c01072d4:	8b 55 ec             	mov    -0x14(%ebp),%edx
c01072d7:	89 54 24 04          	mov    %edx,0x4(%esp)
c01072db:	89 04 24             	mov    %eax,(%esp)
c01072de:	e8 52 4b 00 00       	call   c010be35 <list_push_back>
c01072e3:	c7 04 24 14 00 00 00 	movl   $0x14,(%esp)
c01072ea:	e8 b4 ad ff ff       	call   c01020a3 <malloc>
c01072ef:	89 45 e8             	mov    %eax,-0x18(%ebp)
c01072f2:	8b 45 f4             	mov    -0xc(%ebp),%eax
c01072f5:	83 c0 04             	add    $0x4,%eax
c01072f8:	8b 00                	mov    (%eax),%eax
c01072fa:	89 c2                	mov    %eax,%edx
c01072fc:	8b 45 e8             	mov    -0x18(%ebp),%eax
c01072ff:	89 10                	mov    %edx,(%eax)
c0107301:	8b 45 e8             	mov    -0x18(%ebp),%eax
c0107304:	c7 40 08 ff 07 00 00 	movl   $0x7ff,0x8(%eax)
c010730b:	8b 45 e8             	mov    -0x18(%ebp),%eax
c010730e:	c7 40 0c 02 00 00 00 	movl   $0x2,0xc(%eax)
c0107315:	8b 45 e8             	mov    -0x18(%ebp),%eax
c0107318:	c7 40 10 00 00 00 00 	movl   $0x0,0x10(%eax)
c010731f:	8b 45 e8             	mov    -0x18(%ebp),%eax
c0107322:	8b 55 f0             	mov    -0x10(%ebp),%edx
c0107325:	89 50 04             	mov    %edx,0x4(%eax)
c0107328:	a1 10 60 11 c0       	mov    0xc0116010,%eax
c010732d:	8b 40 04             	mov    0x4(%eax),%eax
c0107330:	8b 40 1c             	mov    0x1c(%eax),%eax
c0107333:	8b 55 e8             	mov    -0x18(%ebp),%edx
c0107336:	89 54 24 04          	mov    %edx,0x4(%esp)
c010733a:	89 04 24             	mov    %eax,(%esp)
c010733d:	e8 f3 4a 00 00       	call   c010be35 <list_push_back>
c0107342:	8b 45 08             	mov    0x8(%ebp),%eax
c0107345:	8b 00                	mov    (%eax),%eax
c0107347:	c7 40 28 00 00 00 00 	movl   $0x0,0x28(%eax)
c010734e:	eb 0c                	jmp    c010735c <sys_pipe+0x138>
c0107350:	8b 45 08             	mov    0x8(%ebp),%eax
c0107353:	8b 00                	mov    (%eax),%eax
c0107355:	c7 40 28 ff ff ff ff 	movl   $0xffffffff,0x28(%eax)
c010735c:	c9                   	leave  
c010735d:	c3                   	ret    

c010735e <sys_close>:
c010735e:	55                   	push   %ebp
c010735f:	89 e5                	mov    %esp,%ebp
c0107361:	83 ec 28             	sub    $0x28,%esp
c0107364:	8b 45 08             	mov    0x8(%ebp),%eax
c0107367:	8b 00                	mov    (%eax),%eax
c0107369:	8b 40 1c             	mov    0x1c(%eax),%eax
c010736c:	89 45 ec             	mov    %eax,-0x14(%ebp)
c010736f:	a1 10 60 11 c0       	mov    0xc0116010,%eax
c0107374:	8b 40 04             	mov    0x4(%eax),%eax
c0107377:	8b 40 1c             	mov    0x1c(%eax),%eax
c010737a:	8b 00                	mov    (%eax),%eax
c010737c:	8b 00                	mov    (%eax),%eax
c010737e:	89 45 f4             	mov    %eax,-0xc(%ebp)
c0107381:	c7 45 f0 00 00 00 00 	movl   $0x0,-0x10(%ebp)
c0107388:	eb 3a                	jmp    c01073c4 <sys_close+0x66>
c010738a:	8b 45 f4             	mov    -0xc(%ebp),%eax
c010738d:	8b 40 08             	mov    0x8(%eax),%eax
c0107390:	89 45 e8             	mov    %eax,-0x18(%ebp)
c0107393:	8b 45 e8             	mov    -0x18(%ebp),%eax
c0107396:	8b 10                	mov    (%eax),%edx
c0107398:	8b 45 ec             	mov    -0x14(%ebp),%eax
c010739b:	39 c2                	cmp    %eax,%edx
c010739d:	75 19                	jne    c01073b8 <sys_close+0x5a>
c010739f:	8b 45 f4             	mov    -0xc(%ebp),%eax
c01073a2:	89 04 24             	mov    %eax,(%esp)
c01073a5:	e8 0a 4c 00 00       	call   c010bfb4 <list_remove_node>
c01073aa:	8b 45 08             	mov    0x8(%ebp),%eax
c01073ad:	8b 00                	mov    (%eax),%eax
c01073af:	c7 40 28 00 00 00 00 	movl   $0x0,0x28(%eax)
c01073b6:	eb 30                	jmp    c01073e8 <sys_close+0x8a>
c01073b8:	8b 45 f4             	mov    -0xc(%ebp),%eax
c01073bb:	8b 00                	mov    (%eax),%eax
c01073bd:	89 45 f4             	mov    %eax,-0xc(%ebp)
c01073c0:	83 45 f0 01          	addl   $0x1,-0x10(%ebp)
c01073c4:	a1 10 60 11 c0       	mov    0xc0116010,%eax
c01073c9:	8b 40 04             	mov    0x4(%eax),%eax
c01073cc:	8b 40 1c             	mov    0x1c(%eax),%eax
c01073cf:	89 04 24             	mov    %eax,(%esp)
c01073d2:	e8 6a 4c 00 00       	call   c010c041 <list_length>
c01073d7:	3b 45 f0             	cmp    -0x10(%ebp),%eax
c01073da:	7f ae                	jg     c010738a <sys_close+0x2c>
c01073dc:	8b 45 08             	mov    0x8(%ebp),%eax
c01073df:	8b 00                	mov    (%eax),%eax
c01073e1:	c7 40 28 ff ff ff ff 	movl   $0xffffffff,0x28(%eax)
c01073e8:	c9                   	leave  
c01073e9:	c3                   	ret    

c01073ea <sys_read>:
c01073ea:	55                   	push   %ebp
c01073eb:	89 e5                	mov    %esp,%ebp
c01073ed:	83 ec 48             	sub    $0x48,%esp
c01073f0:	8b 45 08             	mov    0x8(%ebp),%eax
c01073f3:	8b 00                	mov    (%eax),%eax
c01073f5:	8b 40 1c             	mov    0x1c(%eax),%eax
c01073f8:	89 45 f4             	mov    %eax,-0xc(%ebp)
c01073fb:	8b 45 08             	mov    0x8(%ebp),%eax
c01073fe:	8b 00                	mov    (%eax),%eax
c0107400:	8b 40 24             	mov    0x24(%eax),%eax
c0107403:	89 45 f0             	mov    %eax,-0x10(%ebp)
c0107406:	8b 45 08             	mov    0x8(%ebp),%eax
c0107409:	8b 00                	mov    (%eax),%eax
c010740b:	8b 40 20             	mov    0x20(%eax),%eax
c010740e:	89 45 ec             	mov    %eax,-0x14(%ebp)
c0107411:	8b 45 f4             	mov    -0xc(%ebp),%eax
c0107414:	89 04 24             	mov    %eax,(%esp)
c0107417:	e8 39 fb ff ff       	call   c0106f55 <get_fd>
c010741c:	89 45 e8             	mov    %eax,-0x18(%ebp)
c010741f:	83 7d e8 00          	cmpl   $0x0,-0x18(%ebp)
c0107423:	0f 84 57 01 00 00    	je     c0107580 <sys_read+0x196>
c0107429:	8b 45 e8             	mov    -0x18(%ebp),%eax
c010742c:	8b 40 0c             	mov    0xc(%eax),%eax
c010742f:	83 e0 01             	and    $0x1,%eax
c0107432:	85 c0                	test   %eax,%eax
c0107434:	75 11                	jne    c0107447 <sys_read+0x5d>
c0107436:	8b 45 e8             	mov    -0x18(%ebp),%eax
c0107439:	8b 40 0c             	mov    0xc(%eax),%eax
c010743c:	83 e0 04             	and    $0x4,%eax
c010743f:	85 c0                	test   %eax,%eax
c0107441:	0f 84 29 01 00 00    	je     c0107570 <sys_read+0x186>
c0107447:	8b 45 e8             	mov    -0x18(%ebp),%eax
c010744a:	8b 40 04             	mov    0x4(%eax),%eax
c010744d:	89 45 e4             	mov    %eax,-0x1c(%ebp)
c0107450:	8b 45 e4             	mov    -0x1c(%ebp),%eax
c0107453:	8b 40 04             	mov    0x4(%eax),%eax
c0107456:	89 45 e0             	mov    %eax,-0x20(%ebp)
c0107459:	a1 10 60 11 c0       	mov    0xc0116010,%eax
c010745e:	8b 40 04             	mov    0x4(%eax),%eax
c0107461:	8b 40 08             	mov    0x8(%eax),%eax
c0107464:	85 c0                	test   %eax,%eax
c0107466:	0f 94 c0             	sete   %al
c0107469:	0f b6 d0             	movzbl %al,%edx
c010746c:	a1 10 60 11 c0       	mov    0xc0116010,%eax
c0107471:	8b 40 04             	mov    0x4(%eax),%eax
c0107474:	8b 40 04             	mov    0x4(%eax),%eax
c0107477:	89 54 24 0c          	mov    %edx,0xc(%esp)
c010747b:	89 44 24 08          	mov    %eax,0x8(%esp)
c010747f:	c7 44 24 04 01 00 00 	movl   $0x1,0x4(%esp)
c0107486:	00 
c0107487:	8b 45 e4             	mov    -0x1c(%ebp),%eax
c010748a:	89 04 24             	mov    %eax,(%esp)
c010748d:	e8 5a f8 ff ff       	call   c0106cec <vfs_access>
c0107492:	85 c0                	test   %eax,%eax
c0107494:	0f 84 c6 00 00 00    	je     c0107560 <sys_read+0x176>
c010749a:	8b 45 e4             	mov    -0x1c(%ebp),%eax
c010749d:	8b 50 0c             	mov    0xc(%eax),%edx
c01074a0:	8b 45 e8             	mov    -0x18(%ebp),%eax
c01074a3:	8b 40 10             	mov    0x10(%eax),%eax
c01074a6:	89 c1                	mov    %eax,%ecx
c01074a8:	8b 45 ec             	mov    -0x14(%ebp),%eax
c01074ab:	01 c8                	add    %ecx,%eax
c01074ad:	39 c2                	cmp    %eax,%edx
c01074af:	72 45                	jb     c01074f6 <sys_read+0x10c>
c01074b1:	8b 55 ec             	mov    -0x14(%ebp),%edx
c01074b4:	8b 45 e8             	mov    -0x18(%ebp),%eax
c01074b7:	8b 40 10             	mov    0x10(%eax),%eax
c01074ba:	8b 4d f0             	mov    -0x10(%ebp),%ecx
c01074bd:	89 4c 24 0c          	mov    %ecx,0xc(%esp)
c01074c1:	89 54 24 08          	mov    %edx,0x8(%esp)
c01074c5:	89 44 24 04          	mov    %eax,0x4(%esp)
c01074c9:	8b 45 e4             	mov    -0x1c(%ebp),%eax
c01074cc:	89 04 24             	mov    %eax,(%esp)
c01074cf:	e8 7d f6 ff ff       	call   c0106b51 <vfs_read>
c01074d4:	8b 45 e8             	mov    -0x18(%ebp),%eax
c01074d7:	8b 40 10             	mov    0x10(%eax),%eax
c01074da:	89 c2                	mov    %eax,%edx
c01074dc:	8b 45 ec             	mov    -0x14(%ebp),%eax
c01074df:	01 d0                	add    %edx,%eax
c01074e1:	89 c2                	mov    %eax,%edx
c01074e3:	8b 45 e8             	mov    -0x18(%ebp),%eax
c01074e6:	89 50 10             	mov    %edx,0x10(%eax)
c01074e9:	8b 45 08             	mov    0x8(%ebp),%eax
c01074ec:	8b 00                	mov    (%eax),%eax
c01074ee:	8b 55 ec             	mov    -0x14(%ebp),%edx
c01074f1:	89 50 28             	mov    %edx,0x28(%eax)
c01074f4:	eb 78                	jmp    c010756e <sys_read+0x184>
c01074f6:	8b 45 e4             	mov    -0x1c(%ebp),%eax
c01074f9:	8b 40 08             	mov    0x8(%eax),%eax
c01074fc:	83 f8 01             	cmp    $0x1,%eax
c01074ff:	75 51                	jne    c0107552 <sys_read+0x168>
c0107501:	8b 15 10 60 11 c0    	mov    0xc0116010,%edx
c0107507:	8b 45 e0             	mov    -0x20(%ebp),%eax
c010750a:	8b 40 08             	mov    0x8(%eax),%eax
c010750d:	c7 44 24 10 ea 73 10 	movl   $0xc01073ea,0x10(%esp)
c0107514:	c0 
c0107515:	89 54 24 0c          	mov    %edx,0xc(%esp)
c0107519:	c7 44 24 08 00 00 00 	movl   $0x0,0x8(%esp)
c0107520:	00 
c0107521:	89 44 24 04          	mov    %eax,0x4(%esp)
c0107525:	c7 04 24 02 00 00 00 	movl   $0x2,(%esp)
c010752c:	e8 57 e1 ff ff       	call   c0105688 <add_trigger>
c0107531:	a1 10 60 11 c0       	mov    0xc0116010,%eax
c0107536:	89 04 24             	mov    %eax,(%esp)
c0107539:	e8 6c db ff ff       	call   c01050aa <suspend_thread>
c010753e:	8b 45 08             	mov    0x8(%ebp),%eax
c0107541:	8b 00                	mov    (%eax),%eax
c0107543:	89 04 24             	mov    %eax,(%esp)
c0107546:	e8 aa b5 ff ff       	call   c0102af5 <task_schedule>
c010754b:	8b 55 08             	mov    0x8(%ebp),%edx
c010754e:	89 02                	mov    %eax,(%edx)
c0107550:	eb 1c                	jmp    c010756e <sys_read+0x184>
c0107552:	8b 45 08             	mov    0x8(%ebp),%eax
c0107555:	8b 00                	mov    (%eax),%eax
c0107557:	c7 40 28 ff ff ff ff 	movl   $0xffffffff,0x28(%eax)
c010755e:	eb 1e                	jmp    c010757e <sys_read+0x194>
c0107560:	8b 45 08             	mov    0x8(%ebp),%eax
c0107563:	8b 00                	mov    (%eax),%eax
c0107565:	c7 40 28 fe ff ff ff 	movl   $0xfffffffe,0x28(%eax)
c010756c:	eb 10                	jmp    c010757e <sys_read+0x194>
c010756e:	eb 0e                	jmp    c010757e <sys_read+0x194>
c0107570:	8b 45 08             	mov    0x8(%ebp),%eax
c0107573:	8b 00                	mov    (%eax),%eax
c0107575:	c7 40 28 fe ff ff ff 	movl   $0xfffffffe,0x28(%eax)
c010757c:	eb 0e                	jmp    c010758c <sys_read+0x1a2>
c010757e:	eb 0c                	jmp    c010758c <sys_read+0x1a2>
c0107580:	8b 45 08             	mov    0x8(%ebp),%eax
c0107583:	8b 00                	mov    (%eax),%eax
c0107585:	c7 40 28 ff ff ff ff 	movl   $0xffffffff,0x28(%eax)
c010758c:	c9                   	leave  
c010758d:	c3                   	ret    

c010758e <sys_write>:
c010758e:	55                   	push   %ebp
c010758f:	89 e5                	mov    %esp,%ebp
c0107591:	83 ec 38             	sub    $0x38,%esp
c0107594:	8b 45 08             	mov    0x8(%ebp),%eax
c0107597:	8b 00                	mov    (%eax),%eax
c0107599:	8b 40 1c             	mov    0x1c(%eax),%eax
c010759c:	89 45 f0             	mov    %eax,-0x10(%ebp)
c010759f:	8b 45 08             	mov    0x8(%ebp),%eax
c01075a2:	8b 00                	mov    (%eax),%eax
c01075a4:	8b 40 24             	mov    0x24(%eax),%eax
c01075a7:	89 45 ec             	mov    %eax,-0x14(%ebp)
c01075aa:	8b 45 08             	mov    0x8(%ebp),%eax
c01075ad:	8b 00                	mov    (%eax),%eax
c01075af:	8b 40 20             	mov    0x20(%eax),%eax
c01075b2:	89 45 e8             	mov    %eax,-0x18(%ebp)
c01075b5:	83 7d f0 02          	cmpl   $0x2,-0x10(%ebp)
c01075b9:	75 3c                	jne    c01075f7 <sys_write+0x69>
c01075bb:	c7 45 f4 00 00 00 00 	movl   $0x0,-0xc(%ebp)
c01075c2:	eb 1a                	jmp    c01075de <sys_write+0x50>
c01075c4:	8b 55 f4             	mov    -0xc(%ebp),%edx
c01075c7:	8b 45 ec             	mov    -0x14(%ebp),%eax
c01075ca:	01 d0                	add    %edx,%eax
c01075cc:	0f b6 00             	movzbl (%eax),%eax
c01075cf:	0f be c0             	movsbl %al,%eax
c01075d2:	89 04 24             	mov    %eax,(%esp)
c01075d5:	e8 85 c9 ff ff       	call   c0103f5f <putchar>
c01075da:	83 45 f4 01          	addl   $0x1,-0xc(%ebp)
c01075de:	8b 45 f4             	mov    -0xc(%ebp),%eax
c01075e1:	3b 45 e8             	cmp    -0x18(%ebp),%eax
c01075e4:	72 de                	jb     c01075c4 <sys_write+0x36>
c01075e6:	8b 45 08             	mov    0x8(%ebp),%eax
c01075e9:	8b 00                	mov    (%eax),%eax
c01075eb:	c7 40 28 00 00 00 00 	movl   $0x0,0x28(%eax)
c01075f2:	e9 20 01 00 00       	jmp    c0107717 <sys_write+0x189>
c01075f7:	8b 45 f0             	mov    -0x10(%ebp),%eax
c01075fa:	89 04 24             	mov    %eax,(%esp)
c01075fd:	e8 53 f9 ff ff       	call   c0106f55 <get_fd>
c0107602:	89 45 e4             	mov    %eax,-0x1c(%ebp)
c0107605:	83 7d e4 00          	cmpl   $0x0,-0x1c(%ebp)
c0107609:	0f 84 fc 00 00 00    	je     c010770b <sys_write+0x17d>
c010760f:	8b 45 e4             	mov    -0x1c(%ebp),%eax
c0107612:	8b 40 0c             	mov    0xc(%eax),%eax
c0107615:	83 e0 02             	and    $0x2,%eax
c0107618:	85 c0                	test   %eax,%eax
c010761a:	75 11                	jne    c010762d <sys_write+0x9f>
c010761c:	8b 45 e4             	mov    -0x1c(%ebp),%eax
c010761f:	8b 40 0c             	mov    0xc(%eax),%eax
c0107622:	83 e0 04             	and    $0x4,%eax
c0107625:	85 c0                	test   %eax,%eax
c0107627:	0f 84 ce 00 00 00    	je     c01076fb <sys_write+0x16d>
c010762d:	8b 45 e4             	mov    -0x1c(%ebp),%eax
c0107630:	8b 40 04             	mov    0x4(%eax),%eax
c0107633:	89 45 e0             	mov    %eax,-0x20(%ebp)
c0107636:	a1 10 60 11 c0       	mov    0xc0116010,%eax
c010763b:	8b 40 04             	mov    0x4(%eax),%eax
c010763e:	8b 40 08             	mov    0x8(%eax),%eax
c0107641:	85 c0                	test   %eax,%eax
c0107643:	0f 94 c0             	sete   %al
c0107646:	0f b6 d0             	movzbl %al,%edx
c0107649:	a1 10 60 11 c0       	mov    0xc0116010,%eax
c010764e:	8b 40 04             	mov    0x4(%eax),%eax
c0107651:	8b 40 04             	mov    0x4(%eax),%eax
c0107654:	89 54 24 0c          	mov    %edx,0xc(%esp)
c0107658:	89 44 24 08          	mov    %eax,0x8(%esp)
c010765c:	c7 44 24 04 02 00 00 	movl   $0x2,0x4(%esp)
c0107663:	00 
c0107664:	8b 45 e0             	mov    -0x20(%ebp),%eax
c0107667:	89 04 24             	mov    %eax,(%esp)
c010766a:	e8 7d f6 ff ff       	call   c0106cec <vfs_access>
c010766f:	85 c0                	test   %eax,%eax
c0107671:	74 78                	je     c01076eb <sys_write+0x15d>
c0107673:	8b 45 e4             	mov    -0x1c(%ebp),%eax
c0107676:	8b 40 0c             	mov    0xc(%eax),%eax
c0107679:	83 e0 08             	and    $0x8,%eax
c010767c:	85 c0                	test   %eax,%eax
c010767e:	75 1b                	jne    c010769b <sys_write+0x10d>
c0107680:	8b 45 e4             	mov    -0x1c(%ebp),%eax
c0107683:	c7 40 10 00 00 00 00 	movl   $0x0,0x10(%eax)
c010768a:	8b 45 e4             	mov    -0x1c(%ebp),%eax
c010768d:	8b 40 0c             	mov    0xc(%eax),%eax
c0107690:	83 c8 08             	or     $0x8,%eax
c0107693:	89 c2                	mov    %eax,%edx
c0107695:	8b 45 e4             	mov    -0x1c(%ebp),%eax
c0107698:	89 50 0c             	mov    %edx,0xc(%eax)
c010769b:	8b 55 e8             	mov    -0x18(%ebp),%edx
c010769e:	8b 45 e4             	mov    -0x1c(%ebp),%eax
c01076a1:	8b 40 10             	mov    0x10(%eax),%eax
c01076a4:	89 54 24 0c          	mov    %edx,0xc(%esp)
c01076a8:	8b 55 ec             	mov    -0x14(%ebp),%edx
c01076ab:	89 54 24 08          	mov    %edx,0x8(%esp)
c01076af:	89 44 24 04          	mov    %eax,0x4(%esp)
c01076b3:	8b 45 e0             	mov    -0x20(%ebp),%eax
c01076b6:	89 04 24             	mov    %eax,(%esp)
c01076b9:	e8 fe f1 ff ff       	call   c01068bc <vfs_write>
c01076be:	89 45 dc             	mov    %eax,-0x24(%ebp)
c01076c1:	8b 45 08             	mov    0x8(%ebp),%eax
c01076c4:	8b 00                	mov    (%eax),%eax
c01076c6:	8b 55 dc             	mov    -0x24(%ebp),%edx
c01076c9:	89 50 28             	mov    %edx,0x28(%eax)
c01076cc:	83 7d dc 00          	cmpl   $0x0,-0x24(%ebp)
c01076d0:	7e 17                	jle    c01076e9 <sys_write+0x15b>
c01076d2:	8b 45 e4             	mov    -0x1c(%ebp),%eax
c01076d5:	8b 40 10             	mov    0x10(%eax),%eax
c01076d8:	89 c2                	mov    %eax,%edx
c01076da:	8b 45 e8             	mov    -0x18(%ebp),%eax
c01076dd:	01 d0                	add    %edx,%eax
c01076df:	89 c2                	mov    %eax,%edx
c01076e1:	8b 45 e4             	mov    -0x1c(%ebp),%eax
c01076e4:	89 50 10             	mov    %edx,0x10(%eax)
c01076e7:	eb 10                	jmp    c01076f9 <sys_write+0x16b>
c01076e9:	eb 0e                	jmp    c01076f9 <sys_write+0x16b>
c01076eb:	8b 45 08             	mov    0x8(%ebp),%eax
c01076ee:	8b 00                	mov    (%eax),%eax
c01076f0:	c7 40 28 fe ff ff ff 	movl   $0xfffffffe,0x28(%eax)
c01076f7:	eb 10                	jmp    c0107709 <sys_write+0x17b>
c01076f9:	eb 0e                	jmp    c0107709 <sys_write+0x17b>
c01076fb:	8b 45 08             	mov    0x8(%ebp),%eax
c01076fe:	8b 00                	mov    (%eax),%eax
c0107700:	c7 40 28 fe ff ff ff 	movl   $0xfffffffe,0x28(%eax)
c0107707:	eb 0e                	jmp    c0107717 <sys_write+0x189>
c0107709:	eb 0c                	jmp    c0107717 <sys_write+0x189>
c010770b:	8b 45 08             	mov    0x8(%ebp),%eax
c010770e:	8b 00                	mov    (%eax),%eax
c0107710:	c7 40 28 ff ff ff ff 	movl   $0xffffffff,0x28(%eax)
c0107717:	c9                   	leave  
c0107718:	c3                   	ret    

c0107719 <sys_create>:
c0107719:	55                   	push   %ebp
c010771a:	89 e5                	mov    %esp,%ebp
c010771c:	83 ec 48             	sub    $0x48,%esp
c010771f:	8b 45 08             	mov    0x8(%ebp),%eax
c0107722:	8b 00                	mov    (%eax),%eax
c0107724:	8b 40 1c             	mov    0x1c(%eax),%eax
c0107727:	89 45 f4             	mov    %eax,-0xc(%ebp)
c010772a:	8b 45 08             	mov    0x8(%ebp),%eax
c010772d:	8b 00                	mov    (%eax),%eax
c010772f:	8b 40 24             	mov    0x24(%eax),%eax
c0107732:	89 45 f0             	mov    %eax,-0x10(%ebp)
c0107735:	a1 20 40 11 c0       	mov    0xc0114020,%eax
c010773a:	89 45 ec             	mov    %eax,-0x14(%ebp)
c010773d:	83 7d ec 00          	cmpl   $0x0,-0x14(%ebp)
c0107741:	0f 84 15 01 00 00    	je     c010785c <sys_create+0x143>
c0107747:	a1 10 60 11 c0       	mov    0xc0116010,%eax
c010774c:	8b 40 04             	mov    0x4(%eax),%eax
c010774f:	8b 40 08             	mov    0x8(%eax),%eax
c0107752:	85 c0                	test   %eax,%eax
c0107754:	0f 94 c0             	sete   %al
c0107757:	0f b6 d0             	movzbl %al,%edx
c010775a:	a1 10 60 11 c0       	mov    0xc0116010,%eax
c010775f:	8b 40 04             	mov    0x4(%eax),%eax
c0107762:	8b 40 04             	mov    0x4(%eax),%eax
c0107765:	89 54 24 0c          	mov    %edx,0xc(%esp)
c0107769:	89 44 24 08          	mov    %eax,0x8(%esp)
c010776d:	c7 44 24 04 02 00 00 	movl   $0x2,0x4(%esp)
c0107774:	00 
c0107775:	8b 45 ec             	mov    -0x14(%ebp),%eax
c0107778:	89 04 24             	mov    %eax,(%esp)
c010777b:	e8 6c f5 ff ff       	call   c0106cec <vfs_access>
c0107780:	85 c0                	test   %eax,%eax
c0107782:	0f 84 c6 00 00 00    	je     c010784e <sys_create+0x135>
c0107788:	a1 10 60 11 c0       	mov    0xc0116010,%eax
c010778d:	8b 40 04             	mov    0x4(%eax),%eax
c0107790:	8b 48 08             	mov    0x8(%eax),%ecx
c0107793:	a1 10 60 11 c0       	mov    0xc0116010,%eax
c0107798:	8b 40 04             	mov    0x4(%eax),%eax
c010779b:	8b 50 04             	mov    0x4(%eax),%edx
c010779e:	8b 45 f0             	mov    -0x10(%ebp),%eax
c01077a1:	89 4c 24 10          	mov    %ecx,0x10(%esp)
c01077a5:	89 54 24 0c          	mov    %edx,0xc(%esp)
c01077a9:	8b 55 ec             	mov    -0x14(%ebp),%edx
c01077ac:	89 54 24 08          	mov    %edx,0x8(%esp)
c01077b0:	89 44 24 04          	mov    %eax,0x4(%esp)
c01077b4:	8b 45 f4             	mov    -0xc(%ebp),%eax
c01077b7:	89 04 24             	mov    %eax,(%esp)
c01077ba:	e8 6b ef ff ff       	call   c010672a <vfs_create_inode>
c01077bf:	89 45 e8             	mov    %eax,-0x18(%ebp)
c01077c2:	83 7d e8 00          	cmpl   $0x0,-0x18(%ebp)
c01077c6:	74 78                	je     c0107840 <sys_create+0x127>
c01077c8:	c7 04 24 14 00 00 00 	movl   $0x14,(%esp)
c01077cf:	e8 cf a8 ff ff       	call   c01020a3 <malloc>
c01077d4:	89 45 e4             	mov    %eax,-0x1c(%ebp)
c01077d7:	a1 10 60 11 c0       	mov    0xc0116010,%eax
c01077dc:	8b 40 04             	mov    0x4(%eax),%eax
c01077df:	8b 40 1c             	mov    0x1c(%eax),%eax
c01077e2:	89 04 24             	mov    %eax,(%esp)
c01077e5:	e8 57 48 00 00       	call   c010c041 <list_length>
c01077ea:	89 c2                	mov    %eax,%edx
c01077ec:	8b 45 e4             	mov    -0x1c(%ebp),%eax
c01077ef:	89 10                	mov    %edx,(%eax)
c01077f1:	8b 55 f0             	mov    -0x10(%ebp),%edx
c01077f4:	8b 45 e4             	mov    -0x1c(%ebp),%eax
c01077f7:	89 50 08             	mov    %edx,0x8(%eax)
c01077fa:	8b 45 e4             	mov    -0x1c(%ebp),%eax
c01077fd:	c7 40 0c 04 00 00 00 	movl   $0x4,0xc(%eax)
c0107804:	8b 45 e4             	mov    -0x1c(%ebp),%eax
c0107807:	c7 40 10 00 00 00 00 	movl   $0x0,0x10(%eax)
c010780e:	8b 45 e4             	mov    -0x1c(%ebp),%eax
c0107811:	8b 55 e8             	mov    -0x18(%ebp),%edx
c0107814:	89 50 04             	mov    %edx,0x4(%eax)
c0107817:	a1 10 60 11 c0       	mov    0xc0116010,%eax
c010781c:	8b 40 04             	mov    0x4(%eax),%eax
c010781f:	8b 40 1c             	mov    0x1c(%eax),%eax
c0107822:	8b 55 e4             	mov    -0x1c(%ebp),%edx
c0107825:	89 54 24 04          	mov    %edx,0x4(%esp)
c0107829:	89 04 24             	mov    %eax,(%esp)
c010782c:	e8 04 46 00 00       	call   c010be35 <list_push_back>
c0107831:	8b 45 08             	mov    0x8(%ebp),%eax
c0107834:	8b 00                	mov    (%eax),%eax
c0107836:	8b 55 e4             	mov    -0x1c(%ebp),%edx
c0107839:	8b 12                	mov    (%edx),%edx
c010783b:	89 50 28             	mov    %edx,0x28(%eax)
c010783e:	eb 28                	jmp    c0107868 <sys_create+0x14f>
c0107840:	8b 45 08             	mov    0x8(%ebp),%eax
c0107843:	8b 00                	mov    (%eax),%eax
c0107845:	c7 40 28 ff ff ff ff 	movl   $0xffffffff,0x28(%eax)
c010784c:	eb 1a                	jmp    c0107868 <sys_create+0x14f>
c010784e:	8b 45 08             	mov    0x8(%ebp),%eax
c0107851:	8b 00                	mov    (%eax),%eax
c0107853:	c7 40 28 fe ff ff ff 	movl   $0xfffffffe,0x28(%eax)
c010785a:	eb 0c                	jmp    c0107868 <sys_create+0x14f>
c010785c:	8b 45 08             	mov    0x8(%ebp),%eax
c010785f:	8b 00                	mov    (%eax),%eax
c0107861:	c7 40 28 ff ff ff ff 	movl   $0xffffffff,0x28(%eax)
c0107868:	c9                   	leave  
c0107869:	c3                   	ret    

c010786a <sys_link>:
c010786a:	55                   	push   %ebp
c010786b:	89 e5                	mov    %esp,%ebp
c010786d:	83 ec 48             	sub    $0x48,%esp
c0107870:	8b 45 08             	mov    0x8(%ebp),%eax
c0107873:	8b 00                	mov    (%eax),%eax
c0107875:	8b 40 1c             	mov    0x1c(%eax),%eax
c0107878:	89 45 f4             	mov    %eax,-0xc(%ebp)
c010787b:	8b 45 08             	mov    0x8(%ebp),%eax
c010787e:	8b 00                	mov    (%eax),%eax
c0107880:	8b 40 24             	mov    0x24(%eax),%eax
c0107883:	89 45 f0             	mov    %eax,-0x10(%ebp)
c0107886:	8b 45 f4             	mov    -0xc(%ebp),%eax
c0107889:	89 04 24             	mov    %eax,(%esp)
c010788c:	e8 a4 f5 ff ff       	call   c0106e35 <vfs_lookup_path>
c0107891:	89 45 ec             	mov    %eax,-0x14(%ebp)
c0107894:	a1 20 40 11 c0       	mov    0xc0114020,%eax
c0107899:	89 45 e8             	mov    %eax,-0x18(%ebp)
c010789c:	83 7d ec 00          	cmpl   $0x0,-0x14(%ebp)
c01078a0:	0f 84 0a 01 00 00    	je     c01079b0 <sys_link+0x146>
c01078a6:	83 7d e8 00          	cmpl   $0x0,-0x18(%ebp)
c01078aa:	0f 84 00 01 00 00    	je     c01079b0 <sys_link+0x146>
c01078b0:	a1 10 60 11 c0       	mov    0xc0116010,%eax
c01078b5:	8b 40 04             	mov    0x4(%eax),%eax
c01078b8:	8b 40 08             	mov    0x8(%eax),%eax
c01078bb:	85 c0                	test   %eax,%eax
c01078bd:	0f 94 c0             	sete   %al
c01078c0:	0f b6 d0             	movzbl %al,%edx
c01078c3:	a1 10 60 11 c0       	mov    0xc0116010,%eax
c01078c8:	8b 40 04             	mov    0x4(%eax),%eax
c01078cb:	8b 40 04             	mov    0x4(%eax),%eax
c01078ce:	89 54 24 0c          	mov    %edx,0xc(%esp)
c01078d2:	89 44 24 08          	mov    %eax,0x8(%esp)
c01078d6:	c7 44 24 04 01 00 00 	movl   $0x1,0x4(%esp)
c01078dd:	00 
c01078de:	8b 45 ec             	mov    -0x14(%ebp),%eax
c01078e1:	89 04 24             	mov    %eax,(%esp)
c01078e4:	e8 03 f4 ff ff       	call   c0106cec <vfs_access>
c01078e9:	85 c0                	test   %eax,%eax
c01078eb:	0f 84 af 00 00 00    	je     c01079a0 <sys_link+0x136>
c01078f1:	a1 10 60 11 c0       	mov    0xc0116010,%eax
c01078f6:	8b 40 04             	mov    0x4(%eax),%eax
c01078f9:	8b 40 08             	mov    0x8(%eax),%eax
c01078fc:	85 c0                	test   %eax,%eax
c01078fe:	0f 94 c0             	sete   %al
c0107901:	0f b6 d0             	movzbl %al,%edx
c0107904:	a1 10 60 11 c0       	mov    0xc0116010,%eax
c0107909:	8b 40 04             	mov    0x4(%eax),%eax
c010790c:	8b 40 04             	mov    0x4(%eax),%eax
c010790f:	89 54 24 0c          	mov    %edx,0xc(%esp)
c0107913:	89 44 24 08          	mov    %eax,0x8(%esp)
c0107917:	c7 44 24 04 02 00 00 	movl   $0x2,0x4(%esp)
c010791e:	00 
c010791f:	8b 45 e8             	mov    -0x18(%ebp),%eax
c0107922:	89 04 24             	mov    %eax,(%esp)
c0107925:	e8 c2 f3 ff ff       	call   c0106cec <vfs_access>
c010792a:	85 c0                	test   %eax,%eax
c010792c:	74 72                	je     c01079a0 <sys_link+0x136>
c010792e:	a1 10 60 11 c0       	mov    0xc0116010,%eax
c0107933:	8b 40 04             	mov    0x4(%eax),%eax
c0107936:	8b 48 08             	mov    0x8(%eax),%ecx
c0107939:	a1 10 60 11 c0       	mov    0xc0116010,%eax
c010793e:	8b 40 04             	mov    0x4(%eax),%eax
c0107941:	8b 50 04             	mov    0x4(%eax),%edx
c0107944:	8b 45 ec             	mov    -0x14(%ebp),%eax
c0107947:	8b 40 10             	mov    0x10(%eax),%eax
c010794a:	89 4c 24 10          	mov    %ecx,0x10(%esp)
c010794e:	89 54 24 0c          	mov    %edx,0xc(%esp)
c0107952:	8b 55 e8             	mov    -0x18(%ebp),%edx
c0107955:	89 54 24 08          	mov    %edx,0x8(%esp)
c0107959:	89 44 24 04          	mov    %eax,0x4(%esp)
c010795d:	8b 45 f0             	mov    -0x10(%ebp),%eax
c0107960:	89 04 24             	mov    %eax,(%esp)
c0107963:	e8 c2 ed ff ff       	call   c010672a <vfs_create_inode>
c0107968:	89 45 e4             	mov    %eax,-0x1c(%ebp)
c010796b:	83 7d e4 00          	cmpl   $0x0,-0x1c(%ebp)
c010796f:	74 21                	je     c0107992 <sys_link+0x128>
c0107971:	8b 45 e4             	mov    -0x1c(%ebp),%eax
c0107974:	c7 40 08 03 00 00 00 	movl   $0x3,0x8(%eax)
c010797b:	8b 45 e4             	mov    -0x1c(%ebp),%eax
c010797e:	8b 55 e4             	mov    -0x1c(%ebp),%edx
c0107981:	89 50 04             	mov    %edx,0x4(%eax)
c0107984:	8b 45 08             	mov    0x8(%ebp),%eax
c0107987:	8b 00                	mov    (%eax),%eax
c0107989:	c7 40 28 00 00 00 00 	movl   $0x0,0x28(%eax)
c0107990:	eb 1c                	jmp    c01079ae <sys_link+0x144>
c0107992:	8b 45 08             	mov    0x8(%ebp),%eax
c0107995:	8b 00                	mov    (%eax),%eax
c0107997:	c7 40 28 ff ff ff ff 	movl   $0xffffffff,0x28(%eax)
c010799e:	eb 0e                	jmp    c01079ae <sys_link+0x144>
c01079a0:	8b 45 08             	mov    0x8(%ebp),%eax
c01079a3:	8b 00                	mov    (%eax),%eax
c01079a5:	c7 40 28 fe ff ff ff 	movl   $0xfffffffe,0x28(%eax)
c01079ac:	eb 0e                	jmp    c01079bc <sys_link+0x152>
c01079ae:	eb 0c                	jmp    c01079bc <sys_link+0x152>
c01079b0:	8b 45 08             	mov    0x8(%ebp),%eax
c01079b3:	8b 00                	mov    (%eax),%eax
c01079b5:	c7 40 28 ff ff ff ff 	movl   $0xffffffff,0x28(%eax)
c01079bc:	c9                   	leave  
c01079bd:	c3                   	ret    

c01079be <sys_unlink>:
c01079be:	55                   	push   %ebp
c01079bf:	89 e5                	mov    %esp,%ebp
c01079c1:	83 ec 28             	sub    $0x28,%esp
c01079c4:	8b 45 08             	mov    0x8(%ebp),%eax
c01079c7:	8b 00                	mov    (%eax),%eax
c01079c9:	8b 40 1c             	mov    0x1c(%eax),%eax
c01079cc:	89 45 f4             	mov    %eax,-0xc(%ebp)
c01079cf:	8b 45 f4             	mov    -0xc(%ebp),%eax
c01079d2:	89 04 24             	mov    %eax,(%esp)
c01079d5:	e8 5b f4 ff ff       	call   c0106e35 <vfs_lookup_path>
c01079da:	89 45 f0             	mov    %eax,-0x10(%ebp)
c01079dd:	83 7d f0 00          	cmpl   $0x0,-0x10(%ebp)
c01079e1:	74 78                	je     c0107a5b <sys_unlink+0x9d>
c01079e3:	a1 10 60 11 c0       	mov    0xc0116010,%eax
c01079e8:	8b 40 04             	mov    0x4(%eax),%eax
c01079eb:	8b 40 08             	mov    0x8(%eax),%eax
c01079ee:	85 c0                	test   %eax,%eax
c01079f0:	0f 94 c0             	sete   %al
c01079f3:	0f b6 d0             	movzbl %al,%edx
c01079f6:	a1 10 60 11 c0       	mov    0xc0116010,%eax
c01079fb:	8b 40 04             	mov    0x4(%eax),%eax
c01079fe:	8b 40 04             	mov    0x4(%eax),%eax
c0107a01:	89 54 24 0c          	mov    %edx,0xc(%esp)
c0107a05:	89 44 24 08          	mov    %eax,0x8(%esp)
c0107a09:	c7 44 24 04 02 00 00 	movl   $0x2,0x4(%esp)
c0107a10:	00 
c0107a11:	8b 45 f0             	mov    -0x10(%ebp),%eax
c0107a14:	89 04 24             	mov    %eax,(%esp)
c0107a17:	e8 d0 f2 ff ff       	call   c0106cec <vfs_access>
c0107a1c:	85 c0                	test   %eax,%eax
c0107a1e:	74 2d                	je     c0107a4d <sys_unlink+0x8f>
c0107a20:	8b 45 f0             	mov    -0x10(%ebp),%eax
c0107a23:	c7 40 04 00 00 00 00 	movl   $0x0,0x4(%eax)
c0107a2a:	8b 45 f0             	mov    -0x10(%ebp),%eax
c0107a2d:	c7 40 08 00 00 00 00 	movl   $0x0,0x8(%eax)
c0107a34:	8b 45 f0             	mov    -0x10(%ebp),%eax
c0107a37:	89 04 24             	mov    %eax,(%esp)
c0107a3a:	e8 7f a6 ff ff       	call   c01020be <free>
c0107a3f:	8b 45 08             	mov    0x8(%ebp),%eax
c0107a42:	8b 00                	mov    (%eax),%eax
c0107a44:	c7 40 28 00 00 00 00 	movl   $0x0,0x28(%eax)
c0107a4b:	eb 1a                	jmp    c0107a67 <sys_unlink+0xa9>
c0107a4d:	8b 45 08             	mov    0x8(%ebp),%eax
c0107a50:	8b 00                	mov    (%eax),%eax
c0107a52:	c7 40 28 fe ff ff ff 	movl   $0xfffffffe,0x28(%eax)
c0107a59:	eb 0c                	jmp    c0107a67 <sys_unlink+0xa9>
c0107a5b:	8b 45 08             	mov    0x8(%ebp),%eax
c0107a5e:	8b 00                	mov    (%eax),%eax
c0107a60:	c7 40 28 ff ff ff ff 	movl   $0xffffffff,0x28(%eax)
c0107a67:	c9                   	leave  
c0107a68:	c3                   	ret    

c0107a69 <sys_chdir>:
c0107a69:	55                   	push   %ebp
c0107a6a:	89 e5                	mov    %esp,%ebp
c0107a6c:	83 ec 28             	sub    $0x28,%esp
c0107a6f:	8b 45 08             	mov    0x8(%ebp),%eax
c0107a72:	8b 00                	mov    (%eax),%eax
c0107a74:	8b 40 1c             	mov    0x1c(%eax),%eax
c0107a77:	89 45 f4             	mov    %eax,-0xc(%ebp)
c0107a7a:	8b 45 f4             	mov    -0xc(%ebp),%eax
c0107a7d:	89 04 24             	mov    %eax,(%esp)
c0107a80:	e8 b0 f3 ff ff       	call   c0106e35 <vfs_lookup_path>
c0107a85:	89 45 f0             	mov    %eax,-0x10(%ebp)
c0107a88:	83 7d f0 00          	cmpl   $0x0,-0x10(%ebp)
c0107a8c:	0f 84 82 00 00 00    	je     c0107b14 <sys_chdir+0xab>
c0107a92:	8b 45 f0             	mov    -0x10(%ebp),%eax
c0107a95:	8b 40 10             	mov    0x10(%eax),%eax
c0107a98:	83 e0 01             	and    $0x1,%eax
c0107a9b:	85 c0                	test   %eax,%eax
c0107a9d:	74 67                	je     c0107b06 <sys_chdir+0x9d>
c0107a9f:	a1 10 60 11 c0       	mov    0xc0116010,%eax
c0107aa4:	8b 40 04             	mov    0x4(%eax),%eax
c0107aa7:	8b 40 08             	mov    0x8(%eax),%eax
c0107aaa:	85 c0                	test   %eax,%eax
c0107aac:	0f 94 c0             	sete   %al
c0107aaf:	0f b6 d0             	movzbl %al,%edx
c0107ab2:	a1 10 60 11 c0       	mov    0xc0116010,%eax
c0107ab7:	8b 40 04             	mov    0x4(%eax),%eax
c0107aba:	8b 40 04             	mov    0x4(%eax),%eax
c0107abd:	89 54 24 0c          	mov    %edx,0xc(%esp)
c0107ac1:	89 44 24 08          	mov    %eax,0x8(%esp)
c0107ac5:	c7 44 24 04 01 00 00 	movl   $0x1,0x4(%esp)
c0107acc:	00 
c0107acd:	8b 45 f0             	mov    -0x10(%ebp),%eax
c0107ad0:	89 04 24             	mov    %eax,(%esp)
c0107ad3:	e8 14 f2 ff ff       	call   c0106cec <vfs_access>
c0107ad8:	85 c0                	test   %eax,%eax
c0107ada:	74 1c                	je     c0107af8 <sys_chdir+0x8f>
c0107adc:	a1 10 60 11 c0       	mov    0xc0116010,%eax
c0107ae1:	8b 40 04             	mov    0x4(%eax),%eax
c0107ae4:	8b 55 f0             	mov    -0x10(%ebp),%edx
c0107ae7:	89 50 18             	mov    %edx,0x18(%eax)
c0107aea:	8b 45 08             	mov    0x8(%ebp),%eax
c0107aed:	8b 00                	mov    (%eax),%eax
c0107aef:	c7 40 28 00 00 00 00 	movl   $0x0,0x28(%eax)
c0107af6:	eb 28                	jmp    c0107b20 <sys_chdir+0xb7>
c0107af8:	8b 45 08             	mov    0x8(%ebp),%eax
c0107afb:	8b 00                	mov    (%eax),%eax
c0107afd:	c7 40 28 fe ff ff ff 	movl   $0xfffffffe,0x28(%eax)
c0107b04:	eb 1a                	jmp    c0107b20 <sys_chdir+0xb7>
c0107b06:	8b 45 08             	mov    0x8(%ebp),%eax
c0107b09:	8b 00                	mov    (%eax),%eax
c0107b0b:	c7 40 28 ff ff ff ff 	movl   $0xffffffff,0x28(%eax)
c0107b12:	eb 0c                	jmp    c0107b20 <sys_chdir+0xb7>
c0107b14:	8b 45 08             	mov    0x8(%ebp),%eax
c0107b17:	8b 00                	mov    (%eax),%eax
c0107b19:	c7 40 28 ff ff ff ff 	movl   $0xffffffff,0x28(%eax)
c0107b20:	c9                   	leave  
c0107b21:	c3                   	ret    

c0107b22 <sys_readdir>:
c0107b22:	55                   	push   %ebp
c0107b23:	89 e5                	mov    %esp,%ebp
c0107b25:	83 ec 38             	sub    $0x38,%esp
c0107b28:	8b 45 08             	mov    0x8(%ebp),%eax
c0107b2b:	8b 00                	mov    (%eax),%eax
c0107b2d:	8b 40 1c             	mov    0x1c(%eax),%eax
c0107b30:	89 45 f4             	mov    %eax,-0xc(%ebp)
c0107b33:	8b 45 f4             	mov    -0xc(%ebp),%eax
c0107b36:	89 04 24             	mov    %eax,(%esp)
c0107b39:	e8 17 f4 ff ff       	call   c0106f55 <get_fd>
c0107b3e:	8b 40 04             	mov    0x4(%eax),%eax
c0107b41:	89 45 f0             	mov    %eax,-0x10(%ebp)
c0107b44:	a1 10 60 11 c0       	mov    0xc0116010,%eax
c0107b49:	8b 40 04             	mov    0x4(%eax),%eax
c0107b4c:	8b 40 08             	mov    0x8(%eax),%eax
c0107b4f:	85 c0                	test   %eax,%eax
c0107b51:	0f 94 c0             	sete   %al
c0107b54:	0f b6 d0             	movzbl %al,%edx
c0107b57:	a1 10 60 11 c0       	mov    0xc0116010,%eax
c0107b5c:	8b 40 04             	mov    0x4(%eax),%eax
c0107b5f:	8b 40 04             	mov    0x4(%eax),%eax
c0107b62:	89 54 24 0c          	mov    %edx,0xc(%esp)
c0107b66:	89 44 24 08          	mov    %eax,0x8(%esp)
c0107b6a:	c7 44 24 04 01 00 00 	movl   $0x1,0x4(%esp)
c0107b71:	00 
c0107b72:	8b 45 f0             	mov    -0x10(%ebp),%eax
c0107b75:	89 04 24             	mov    %eax,(%esp)
c0107b78:	e8 6f f1 ff ff       	call   c0106cec <vfs_access>
c0107b7d:	85 c0                	test   %eax,%eax
c0107b7f:	0f 84 d5 00 00 00    	je     c0107c5a <sys_readdir+0x138>
c0107b85:	8b 45 08             	mov    0x8(%ebp),%eax
c0107b88:	8b 00                	mov    (%eax),%eax
c0107b8a:	8b 40 24             	mov    0x24(%eax),%eax
c0107b8d:	89 45 ec             	mov    %eax,-0x14(%ebp)
c0107b90:	8b 45 f0             	mov    -0x10(%ebp),%eax
c0107b93:	8b 40 04             	mov    0x4(%eax),%eax
c0107b96:	89 45 e8             	mov    %eax,-0x18(%ebp)
c0107b99:	8b 45 f0             	mov    -0x10(%ebp),%eax
c0107b9c:	8b 40 0c             	mov    0xc(%eax),%eax
c0107b9f:	c1 e8 03             	shr    $0x3,%eax
c0107ba2:	89 45 e4             	mov    %eax,-0x1c(%ebp)
c0107ba5:	a1 28 40 11 c0       	mov    0xc0114028,%eax
c0107baa:	3b 45 e4             	cmp    -0x1c(%ebp),%eax
c0107bad:	0f 8d 87 00 00 00    	jge    c0107c3a <sys_readdir+0x118>
c0107bb3:	a1 18 23 11 c0       	mov    0xc0112318,%eax
c0107bb8:	39 45 f4             	cmp    %eax,-0xc(%ebp)
c0107bbb:	74 0a                	je     c0107bc7 <sys_readdir+0xa5>
c0107bbd:	a1 18 23 11 c0       	mov    0xc0112318,%eax
c0107bc2:	83 f8 ff             	cmp    $0xffffffff,%eax
c0107bc5:	75 73                	jne    c0107c3a <sys_readdir+0x118>
c0107bc7:	a1 28 40 11 c0       	mov    0xc0114028,%eax
c0107bcc:	8d 50 01             	lea    0x1(%eax),%edx
c0107bcf:	89 15 28 40 11 c0    	mov    %edx,0xc0114028
c0107bd5:	8d 14 c5 00 00 00 00 	lea    0x0(,%eax,8),%edx
c0107bdc:	8b 45 e8             	mov    -0x18(%ebp),%eax
c0107bdf:	01 d0                	add    %edx,%eax
c0107be1:	8b 40 04             	mov    0x4(%eax),%eax
c0107be4:	89 45 e0             	mov    %eax,-0x20(%ebp)
c0107be7:	8b 45 e0             	mov    -0x20(%ebp),%eax
c0107bea:	8b 00                	mov    (%eax),%eax
c0107bec:	8b 55 ec             	mov    -0x14(%ebp),%edx
c0107bef:	83 c2 04             	add    $0x4,%edx
c0107bf2:	89 44 24 04          	mov    %eax,0x4(%esp)
c0107bf6:	89 14 24             	mov    %edx,(%esp)
c0107bf9:	e8 42 47 00 00       	call   c010c340 <strcpy>
c0107bfe:	8b 45 e0             	mov    -0x20(%ebp),%eax
c0107c01:	8d 50 10             	lea    0x10(%eax),%edx
c0107c04:	8b 45 ec             	mov    -0x14(%ebp),%eax
c0107c07:	05 04 01 00 00       	add    $0x104,%eax
c0107c0c:	c7 44 24 08 2c 00 00 	movl   $0x2c,0x8(%esp)
c0107c13:	00 
c0107c14:	89 54 24 04          	mov    %edx,0x4(%esp)
c0107c18:	89 04 24             	mov    %eax,(%esp)
c0107c1b:	e8 ff 4a 00 00       	call   c010c71f <memcpy>
c0107c20:	8b 45 e0             	mov    -0x20(%ebp),%eax
c0107c23:	8b 40 14             	mov    0x14(%eax),%eax
c0107c26:	89 c2                	mov    %eax,%edx
c0107c28:	8b 45 ec             	mov    -0x14(%ebp),%eax
c0107c2b:	89 10                	mov    %edx,(%eax)
c0107c2d:	8b 45 08             	mov    0x8(%ebp),%eax
c0107c30:	8b 00                	mov    (%eax),%eax
c0107c32:	8b 55 ec             	mov    -0x14(%ebp),%edx
c0107c35:	89 50 28             	mov    %edx,0x28(%eax)
c0107c38:	eb 16                	jmp    c0107c50 <sys_readdir+0x12e>
c0107c3a:	c7 05 28 40 11 c0 00 	movl   $0x0,0xc0114028
c0107c41:	00 00 00 
c0107c44:	8b 45 08             	mov    0x8(%ebp),%eax
c0107c47:	8b 00                	mov    (%eax),%eax
c0107c49:	c7 40 28 00 00 00 00 	movl   $0x0,0x28(%eax)
c0107c50:	8b 45 f4             	mov    -0xc(%ebp),%eax
c0107c53:	a3 18 23 11 c0       	mov    %eax,0xc0112318
c0107c58:	eb 0c                	jmp    c0107c66 <sys_readdir+0x144>
c0107c5a:	8b 45 08             	mov    0x8(%ebp),%eax
c0107c5d:	8b 00                	mov    (%eax),%eax
c0107c5f:	c7 40 28 fe ff ff ff 	movl   $0xfffffffe,0x28(%eax)
c0107c66:	c9                   	leave  
c0107c67:	c3                   	ret    

c0107c68 <launch_pipe_handlers>:
c0107c68:	55                   	push   %ebp
c0107c69:	89 e5                	mov    %esp,%ebp
c0107c6b:	53                   	push   %ebx
c0107c6c:	83 ec 34             	sub    $0x34,%esp
c0107c6f:	8b 45 08             	mov    0x8(%ebp),%eax
c0107c72:	8b 40 0c             	mov    0xc(%eax),%eax
c0107c75:	8b 00                	mov    (%eax),%eax
c0107c77:	8b 00                	mov    (%eax),%eax
c0107c79:	89 45 f4             	mov    %eax,-0xc(%ebp)
c0107c7c:	8b 45 08             	mov    0x8(%ebp),%eax
c0107c7f:	8b 40 0c             	mov    0xc(%eax),%eax
c0107c82:	8b 00                	mov    (%eax),%eax
c0107c84:	89 45 f0             	mov    %eax,-0x10(%ebp)
c0107c87:	eb 5e                	jmp    c0107ce7 <launch_pipe_handlers+0x7f>
c0107c89:	8b 45 f4             	mov    -0xc(%ebp),%eax
c0107c8c:	8b 40 08             	mov    0x8(%eax),%eax
c0107c8f:	89 45 ec             	mov    %eax,-0x14(%ebp)
c0107c92:	8b 45 ec             	mov    -0x14(%ebp),%eax
c0107c95:	8b 58 08             	mov    0x8(%eax),%ebx
c0107c98:	8b 45 ec             	mov    -0x14(%ebp),%eax
c0107c9b:	8b 48 04             	mov    0x4(%eax),%ecx
c0107c9e:	8b 45 ec             	mov    -0x14(%ebp),%eax
c0107ca1:	8b 10                	mov    (%eax),%edx
c0107ca3:	a1 10 60 11 c0       	mov    0xc0116010,%eax
c0107ca8:	8b 40 04             	mov    0x4(%eax),%eax
c0107cab:	c7 44 24 1c 00 00 00 	movl   $0x0,0x1c(%esp)
c0107cb2:	00 
c0107cb3:	c7 44 24 18 00 00 00 	movl   $0x0,0x18(%esp)
c0107cba:	00 
c0107cbb:	89 5c 24 14          	mov    %ebx,0x14(%esp)
c0107cbf:	89 4c 24 10          	mov    %ecx,0x10(%esp)
c0107cc3:	c7 44 24 0c 00 00 00 	movl   $0x0,0xc(%esp)
c0107cca:	00 
c0107ccb:	89 54 24 08          	mov    %edx,0x8(%esp)
c0107ccf:	c7 44 24 04 03 00 00 	movl   $0x3,0x4(%esp)
c0107cd6:	00 
c0107cd7:	89 04 24             	mov    %eax,(%esp)
c0107cda:	e8 34 a8 ff ff       	call   c0102513 <thread_create>
c0107cdf:	8b 45 f4             	mov    -0xc(%ebp),%eax
c0107ce2:	8b 00                	mov    (%eax),%eax
c0107ce4:	89 45 f4             	mov    %eax,-0xc(%ebp)
c0107ce7:	8b 45 f4             	mov    -0xc(%ebp),%eax
c0107cea:	3b 45 f0             	cmp    -0x10(%ebp),%eax
c0107ced:	75 9a                	jne    c0107c89 <launch_pipe_handlers+0x21>
c0107cef:	83 c4 34             	add    $0x34,%esp
c0107cf2:	5b                   	pop    %ebx
c0107cf3:	5d                   	pop    %ebp
c0107cf4:	c3                   	ret    

c0107cf5 <set_pipe_trigger>:
c0107cf5:	55                   	push   %ebp
c0107cf6:	89 e5                	mov    %esp,%ebp
c0107cf8:	83 ec 28             	sub    $0x28,%esp
c0107cfb:	8b 45 08             	mov    0x8(%ebp),%eax
c0107cfe:	8b 00                	mov    (%eax),%eax
c0107d00:	8b 40 1c             	mov    0x1c(%eax),%eax
c0107d03:	89 45 f4             	mov    %eax,-0xc(%ebp)
c0107d06:	8b 45 f4             	mov    -0xc(%ebp),%eax
c0107d09:	89 04 24             	mov    %eax,(%esp)
c0107d0c:	e8 44 f2 ff ff       	call   c0106f55 <get_fd>
c0107d11:	8b 40 04             	mov    0x4(%eax),%eax
c0107d14:	89 45 f0             	mov    %eax,-0x10(%ebp)
c0107d17:	a1 10 60 11 c0       	mov    0xc0116010,%eax
c0107d1c:	8b 40 04             	mov    0x4(%eax),%eax
c0107d1f:	8b 40 08             	mov    0x8(%eax),%eax
c0107d22:	85 c0                	test   %eax,%eax
c0107d24:	0f 94 c0             	sete   %al
c0107d27:	0f b6 d0             	movzbl %al,%edx
c0107d2a:	a1 10 60 11 c0       	mov    0xc0116010,%eax
c0107d2f:	8b 40 04             	mov    0x4(%eax),%eax
c0107d32:	8b 40 04             	mov    0x4(%eax),%eax
c0107d35:	89 54 24 0c          	mov    %edx,0xc(%esp)
c0107d39:	89 44 24 08          	mov    %eax,0x8(%esp)
c0107d3d:	c7 44 24 04 01 00 00 	movl   $0x1,0x4(%esp)
c0107d44:	00 
c0107d45:	8b 45 f0             	mov    -0x10(%ebp),%eax
c0107d48:	89 04 24             	mov    %eax,(%esp)
c0107d4b:	e8 9c ef ff ff       	call   c0106cec <vfs_access>
c0107d50:	85 c0                	test   %eax,%eax
c0107d52:	74 68                	je     c0107dbc <set_pipe_trigger+0xc7>
c0107d54:	8b 45 f0             	mov    -0x10(%ebp),%eax
c0107d57:	8b 40 04             	mov    0x4(%eax),%eax
c0107d5a:	89 45 ec             	mov    %eax,-0x14(%ebp)
c0107d5d:	c7 04 24 10 00 00 00 	movl   $0x10,(%esp)
c0107d64:	e8 3a a3 ff ff       	call   c01020a3 <malloc>
c0107d69:	89 45 e8             	mov    %eax,-0x18(%ebp)
c0107d6c:	8b 45 08             	mov    0x8(%ebp),%eax
c0107d6f:	8b 00                	mov    (%eax),%eax
c0107d71:	8b 50 24             	mov    0x24(%eax),%edx
c0107d74:	8b 45 e8             	mov    -0x18(%ebp),%eax
c0107d77:	89 10                	mov    %edx,(%eax)
c0107d79:	8b 45 08             	mov    0x8(%ebp),%eax
c0107d7c:	8b 00                	mov    (%eax),%eax
c0107d7e:	8b 40 20             	mov    0x20(%eax),%eax
c0107d81:	89 c2                	mov    %eax,%edx
c0107d83:	8b 45 e8             	mov    -0x18(%ebp),%eax
c0107d86:	89 50 04             	mov    %edx,0x4(%eax)
c0107d89:	8b 45 08             	mov    0x8(%ebp),%eax
c0107d8c:	8b 00                	mov    (%eax),%eax
c0107d8e:	8b 40 14             	mov    0x14(%eax),%eax
c0107d91:	89 c2                	mov    %eax,%edx
c0107d93:	8b 45 e8             	mov    -0x18(%ebp),%eax
c0107d96:	89 50 08             	mov    %edx,0x8(%eax)
c0107d99:	8b 45 ec             	mov    -0x14(%ebp),%eax
c0107d9c:	8b 40 0c             	mov    0xc(%eax),%eax
c0107d9f:	8b 55 e8             	mov    -0x18(%ebp),%edx
c0107da2:	89 54 24 04          	mov    %edx,0x4(%esp)
c0107da6:	89 04 24             	mov    %eax,(%esp)
c0107da9:	e8 87 40 00 00       	call   c010be35 <list_push_back>
c0107dae:	8b 45 08             	mov    0x8(%ebp),%eax
c0107db1:	8b 00                	mov    (%eax),%eax
c0107db3:	c7 40 28 00 00 00 00 	movl   $0x0,0x28(%eax)
c0107dba:	eb 0c                	jmp    c0107dc8 <set_pipe_trigger+0xd3>
c0107dbc:	8b 45 08             	mov    0x8(%ebp),%eax
c0107dbf:	8b 00                	mov    (%eax),%eax
c0107dc1:	c7 40 28 fe ff ff ff 	movl   $0xfffffffe,0x28(%eax)
c0107dc8:	c9                   	leave  
c0107dc9:	c3                   	ret    

c0107dca <get_table_section>:
c0107dca:	55                   	push   %ebp
c0107dcb:	89 e5                	mov    %esp,%ebp
c0107dcd:	57                   	push   %edi
c0107dce:	56                   	push   %esi
c0107dcf:	53                   	push   %ebx
c0107dd0:	83 ec 5c             	sub    $0x5c,%esp
c0107dd3:	89 e0                	mov    %esp,%eax
c0107dd5:	89 c3                	mov    %eax,%ebx
c0107dd7:	8b 45 08             	mov    0x8(%ebp),%eax
c0107dda:	89 04 24             	mov    %eax,(%esp)
c0107ddd:	e8 37 45 00 00       	call   c010c319 <strlen>
c0107de2:	89 45 d4             	mov    %eax,-0x2c(%ebp)
c0107de5:	8b 45 d4             	mov    -0x2c(%ebp),%eax
c0107de8:	83 c0 01             	add    $0x1,%eax
c0107deb:	8d 50 ff             	lea    -0x1(%eax),%edx
c0107dee:	89 55 d0             	mov    %edx,-0x30(%ebp)
c0107df1:	ba 10 00 00 00       	mov    $0x10,%edx
c0107df6:	83 ea 01             	sub    $0x1,%edx
c0107df9:	01 d0                	add    %edx,%eax
c0107dfb:	be 10 00 00 00       	mov    $0x10,%esi
c0107e00:	ba 00 00 00 00       	mov    $0x0,%edx
c0107e05:	f7 f6                	div    %esi
c0107e07:	6b c0 10             	imul   $0x10,%eax,%eax
c0107e0a:	29 c4                	sub    %eax,%esp
c0107e0c:	8d 44 24 0c          	lea    0xc(%esp),%eax
c0107e10:	83 c0 00             	add    $0x0,%eax
c0107e13:	89 45 cc             	mov    %eax,-0x34(%ebp)
c0107e16:	c7 45 e4 00 00 00 00 	movl   $0x0,-0x1c(%ebp)
c0107e1d:	c7 45 d8 00 00 00 00 	movl   $0x0,-0x28(%ebp)
c0107e24:	8b 55 d4             	mov    -0x2c(%ebp),%edx
c0107e27:	8b 4d e4             	mov    -0x1c(%ebp),%ecx
c0107e2a:	8b 45 0c             	mov    0xc(%ebp),%eax
c0107e2d:	01 c1                	add    %eax,%ecx
c0107e2f:	8b 45 cc             	mov    -0x34(%ebp),%eax
c0107e32:	89 54 24 08          	mov    %edx,0x8(%esp)
c0107e36:	89 4c 24 04          	mov    %ecx,0x4(%esp)
c0107e3a:	89 04 24             	mov    %eax,(%esp)
c0107e3d:	e8 dd 48 00 00       	call   c010c71f <memcpy>
c0107e42:	8b 55 cc             	mov    -0x34(%ebp),%edx
c0107e45:	8b 45 d4             	mov    -0x2c(%ebp),%eax
c0107e48:	01 d0                	add    %edx,%eax
c0107e4a:	c6 00 00             	movb   $0x0,(%eax)
c0107e4d:	eb 29                	jmp    c0107e78 <get_table_section+0xae>
c0107e4f:	8b 55 d4             	mov    -0x2c(%ebp),%edx
c0107e52:	8b 4d e4             	mov    -0x1c(%ebp),%ecx
c0107e55:	8b 45 0c             	mov    0xc(%ebp),%eax
c0107e58:	01 c1                	add    %eax,%ecx
c0107e5a:	8b 45 cc             	mov    -0x34(%ebp),%eax
c0107e5d:	89 54 24 08          	mov    %edx,0x8(%esp)
c0107e61:	89 4c 24 04          	mov    %ecx,0x4(%esp)
c0107e65:	89 04 24             	mov    %eax,(%esp)
c0107e68:	e8 b2 48 00 00       	call   c010c71f <memcpy>
c0107e6d:	8b 55 cc             	mov    -0x34(%ebp),%edx
c0107e70:	8b 45 d4             	mov    -0x2c(%ebp),%eax
c0107e73:	01 d0                	add    %edx,%eax
c0107e75:	c6 00 00             	movb   $0x0,(%eax)
c0107e78:	8b 45 cc             	mov    -0x34(%ebp),%eax
c0107e7b:	8b 55 08             	mov    0x8(%ebp),%edx
c0107e7e:	89 54 24 04          	mov    %edx,0x4(%esp)
c0107e82:	89 04 24             	mov    %eax,(%esp)
c0107e85:	e8 d3 45 00 00       	call   c010c45d <strcmp>
c0107e8a:	85 c0                	test   %eax,%eax
c0107e8c:	75 0f                	jne    c0107e9d <get_table_section+0xd3>
c0107e8e:	8b 55 e4             	mov    -0x1c(%ebp),%edx
c0107e91:	8b 45 0c             	mov    0xc(%ebp),%eax
c0107e94:	01 d0                	add    %edx,%eax
c0107e96:	0f b6 00             	movzbl (%eax),%eax
c0107e99:	84 c0                	test   %al,%al
c0107e9b:	75 b2                	jne    c0107e4f <get_table_section+0x85>
c0107e9d:	eb 04                	jmp    c0107ea3 <get_table_section+0xd9>
c0107e9f:	83 45 e4 01          	addl   $0x1,-0x1c(%ebp)
c0107ea3:	8b 55 e4             	mov    -0x1c(%ebp),%edx
c0107ea6:	8b 45 0c             	mov    0xc(%ebp),%eax
c0107ea9:	01 d0                	add    %edx,%eax
c0107eab:	0f b6 00             	movzbl (%eax),%eax
c0107eae:	3c 7b                	cmp    $0x7b,%al
c0107eb0:	75 ed                	jne    c0107e9f <get_table_section+0xd5>
c0107eb2:	83 45 e4 01          	addl   $0x1,-0x1c(%ebp)
c0107eb6:	8b 45 e4             	mov    -0x1c(%ebp),%eax
c0107eb9:	89 45 c8             	mov    %eax,-0x38(%ebp)
c0107ebc:	eb 50                	jmp    c0107f0e <get_table_section+0x144>
c0107ebe:	eb 04                	jmp    c0107ec4 <get_table_section+0xfa>
c0107ec0:	83 45 e4 01          	addl   $0x1,-0x1c(%ebp)
c0107ec4:	8b 55 e4             	mov    -0x1c(%ebp),%edx
c0107ec7:	8b 45 0c             	mov    0xc(%ebp),%eax
c0107eca:	01 d0                	add    %edx,%eax
c0107ecc:	0f b6 00             	movzbl (%eax),%eax
c0107ecf:	3c 20                	cmp    $0x20,%al
c0107ed1:	74 ed                	je     c0107ec0 <get_table_section+0xf6>
c0107ed3:	8b 55 e4             	mov    -0x1c(%ebp),%edx
c0107ed6:	8b 45 0c             	mov    0xc(%ebp),%eax
c0107ed9:	01 d0                	add    %edx,%eax
c0107edb:	0f b6 00             	movzbl (%eax),%eax
c0107ede:	3c 0a                	cmp    $0xa,%al
c0107ee0:	74 de                	je     c0107ec0 <get_table_section+0xf6>
c0107ee2:	83 45 d8 01          	addl   $0x1,-0x28(%ebp)
c0107ee6:	eb 04                	jmp    c0107eec <get_table_section+0x122>
c0107ee8:	83 45 e4 01          	addl   $0x1,-0x1c(%ebp)
c0107eec:	8b 55 e4             	mov    -0x1c(%ebp),%edx
c0107eef:	8b 45 0c             	mov    0xc(%ebp),%eax
c0107ef2:	01 d0                	add    %edx,%eax
c0107ef4:	0f b6 00             	movzbl (%eax),%eax
c0107ef7:	3c 20                	cmp    $0x20,%al
c0107ef9:	74 0f                	je     c0107f0a <get_table_section+0x140>
c0107efb:	8b 55 e4             	mov    -0x1c(%ebp),%edx
c0107efe:	8b 45 0c             	mov    0xc(%ebp),%eax
c0107f01:	01 d0                	add    %edx,%eax
c0107f03:	0f b6 00             	movzbl (%eax),%eax
c0107f06:	3c 0a                	cmp    $0xa,%al
c0107f08:	75 de                	jne    c0107ee8 <get_table_section+0x11e>
c0107f0a:	83 45 e4 01          	addl   $0x1,-0x1c(%ebp)
c0107f0e:	8b 55 e4             	mov    -0x1c(%ebp),%edx
c0107f11:	8b 45 0c             	mov    0xc(%ebp),%eax
c0107f14:	01 d0                	add    %edx,%eax
c0107f16:	0f b6 00             	movzbl (%eax),%eax
c0107f19:	3c 7d                	cmp    $0x7d,%al
c0107f1b:	74 0f                	je     c0107f2c <get_table_section+0x162>
c0107f1d:	8b 55 e4             	mov    -0x1c(%ebp),%edx
c0107f20:	8b 45 0c             	mov    0xc(%ebp),%eax
c0107f23:	01 d0                	add    %edx,%eax
c0107f25:	0f b6 00             	movzbl (%eax),%eax
c0107f28:	84 c0                	test   %al,%al
c0107f2a:	75 92                	jne    c0107ebe <get_table_section+0xf4>
c0107f2c:	8b 45 d8             	mov    -0x28(%ebp),%eax
c0107f2f:	83 c0 01             	add    $0x1,%eax
c0107f32:	c1 e0 02             	shl    $0x2,%eax
c0107f35:	89 04 24             	mov    %eax,(%esp)
c0107f38:	e8 66 a1 ff ff       	call   c01020a3 <malloc>
c0107f3d:	89 45 c4             	mov    %eax,-0x3c(%ebp)
c0107f40:	8b 45 d8             	mov    -0x28(%ebp),%eax
c0107f43:	89 e2                	mov    %esp,%edx
c0107f45:	89 d6                	mov    %edx,%esi
c0107f47:	8d 50 ff             	lea    -0x1(%eax),%edx
c0107f4a:	89 55 c0             	mov    %edx,-0x40(%ebp)
c0107f4d:	c1 e0 02             	shl    $0x2,%eax
c0107f50:	8d 50 03             	lea    0x3(%eax),%edx
c0107f53:	b8 10 00 00 00       	mov    $0x10,%eax
c0107f58:	83 e8 01             	sub    $0x1,%eax
c0107f5b:	01 d0                	add    %edx,%eax
c0107f5d:	bf 10 00 00 00       	mov    $0x10,%edi
c0107f62:	ba 00 00 00 00       	mov    $0x0,%edx
c0107f67:	f7 f7                	div    %edi
c0107f69:	6b c0 10             	imul   $0x10,%eax,%eax
c0107f6c:	29 c4                	sub    %eax,%esp
c0107f6e:	8d 44 24 0c          	lea    0xc(%esp),%eax
c0107f72:	83 c0 03             	add    $0x3,%eax
c0107f75:	c1 e8 02             	shr    $0x2,%eax
c0107f78:	c1 e0 02             	shl    $0x2,%eax
c0107f7b:	89 45 bc             	mov    %eax,-0x44(%ebp)
c0107f7e:	8b 45 d8             	mov    -0x28(%ebp),%eax
c0107f81:	8d 50 ff             	lea    -0x1(%eax),%edx
c0107f84:	89 55 b8             	mov    %edx,-0x48(%ebp)
c0107f87:	c1 e0 02             	shl    $0x2,%eax
c0107f8a:	8d 50 03             	lea    0x3(%eax),%edx
c0107f8d:	b8 10 00 00 00       	mov    $0x10,%eax
c0107f92:	83 e8 01             	sub    $0x1,%eax
c0107f95:	01 d0                	add    %edx,%eax
c0107f97:	bf 10 00 00 00       	mov    $0x10,%edi
c0107f9c:	ba 00 00 00 00       	mov    $0x0,%edx
c0107fa1:	f7 f7                	div    %edi
c0107fa3:	6b c0 10             	imul   $0x10,%eax,%eax
c0107fa6:	29 c4                	sub    %eax,%esp
c0107fa8:	8d 44 24 0c          	lea    0xc(%esp),%eax
c0107fac:	83 c0 03             	add    $0x3,%eax
c0107faf:	c1 e8 02             	shr    $0x2,%eax
c0107fb2:	c1 e0 02             	shl    $0x2,%eax
c0107fb5:	89 45 b4             	mov    %eax,-0x4c(%ebp)
c0107fb8:	8b 45 d8             	mov    -0x28(%ebp),%eax
c0107fbb:	c1 e0 02             	shl    $0x2,%eax
c0107fbe:	89 44 24 08          	mov    %eax,0x8(%esp)
c0107fc2:	c7 44 24 04 00 00 00 	movl   $0x0,0x4(%esp)
c0107fc9:	00 
c0107fca:	8b 45 c4             	mov    -0x3c(%ebp),%eax
c0107fcd:	89 04 24             	mov    %eax,(%esp)
c0107fd0:	e8 0f 49 00 00       	call   c010c8e4 <memset>
c0107fd5:	8b 45 d8             	mov    -0x28(%ebp),%eax
c0107fd8:	8d 14 85 00 00 00 00 	lea    0x0(,%eax,4),%edx
c0107fdf:	8b 45 bc             	mov    -0x44(%ebp),%eax
c0107fe2:	89 54 24 08          	mov    %edx,0x8(%esp)
c0107fe6:	c7 44 24 04 00 00 00 	movl   $0x0,0x4(%esp)
c0107fed:	00 
c0107fee:	89 04 24             	mov    %eax,(%esp)
c0107ff1:	e8 ee 48 00 00       	call   c010c8e4 <memset>
c0107ff6:	8b 45 d8             	mov    -0x28(%ebp),%eax
c0107ff9:	8d 14 85 00 00 00 00 	lea    0x0(,%eax,4),%edx
c0108000:	8b 45 b4             	mov    -0x4c(%ebp),%eax
c0108003:	89 54 24 08          	mov    %edx,0x8(%esp)
c0108007:	c7 44 24 04 00 00 00 	movl   $0x0,0x4(%esp)
c010800e:	00 
c010800f:	89 04 24             	mov    %eax,(%esp)
c0108012:	e8 cd 48 00 00       	call   c010c8e4 <memset>
c0108017:	8b 45 c8             	mov    -0x38(%ebp),%eax
c010801a:	89 45 e4             	mov    %eax,-0x1c(%ebp)
c010801d:	c7 45 e0 00 00 00 00 	movl   $0x0,-0x20(%ebp)
c0108024:	eb 7a                	jmp    c01080a0 <get_table_section+0x2d6>
c0108026:	eb 04                	jmp    c010802c <get_table_section+0x262>
c0108028:	83 45 e4 01          	addl   $0x1,-0x1c(%ebp)
c010802c:	8b 55 e4             	mov    -0x1c(%ebp),%edx
c010802f:	8b 45 0c             	mov    0xc(%ebp),%eax
c0108032:	01 d0                	add    %edx,%eax
c0108034:	0f b6 00             	movzbl (%eax),%eax
c0108037:	3c 20                	cmp    $0x20,%al
c0108039:	74 ed                	je     c0108028 <get_table_section+0x25e>
c010803b:	8b 55 e4             	mov    -0x1c(%ebp),%edx
c010803e:	8b 45 0c             	mov    0xc(%ebp),%eax
c0108041:	01 d0                	add    %edx,%eax
c0108043:	0f b6 00             	movzbl (%eax),%eax
c0108046:	3c 0a                	cmp    $0xa,%al
c0108048:	74 de                	je     c0108028 <get_table_section+0x25e>
c010804a:	eb 32                	jmp    c010807e <get_table_section+0x2b4>
c010804c:	8b 45 bc             	mov    -0x44(%ebp),%eax
c010804f:	8b 55 e0             	mov    -0x20(%ebp),%edx
c0108052:	8b 04 90             	mov    (%eax,%edx,4),%eax
c0108055:	85 c0                	test   %eax,%eax
c0108057:	75 0c                	jne    c0108065 <get_table_section+0x29b>
c0108059:	8b 45 bc             	mov    -0x44(%ebp),%eax
c010805c:	8b 55 e0             	mov    -0x20(%ebp),%edx
c010805f:	8b 4d e4             	mov    -0x1c(%ebp),%ecx
c0108062:	89 0c 90             	mov    %ecx,(%eax,%edx,4)
c0108065:	8b 45 b4             	mov    -0x4c(%ebp),%eax
c0108068:	8b 55 e0             	mov    -0x20(%ebp),%edx
c010806b:	8b 04 90             	mov    (%eax,%edx,4),%eax
c010806e:	8d 48 01             	lea    0x1(%eax),%ecx
c0108071:	8b 45 b4             	mov    -0x4c(%ebp),%eax
c0108074:	8b 55 e0             	mov    -0x20(%ebp),%edx
c0108077:	89 0c 90             	mov    %ecx,(%eax,%edx,4)
c010807a:	83 45 e4 01          	addl   $0x1,-0x1c(%ebp)
c010807e:	8b 55 e4             	mov    -0x1c(%ebp),%edx
c0108081:	8b 45 0c             	mov    0xc(%ebp),%eax
c0108084:	01 d0                	add    %edx,%eax
c0108086:	0f b6 00             	movzbl (%eax),%eax
c0108089:	3c 20                	cmp    $0x20,%al
c010808b:	74 0f                	je     c010809c <get_table_section+0x2d2>
c010808d:	8b 55 e4             	mov    -0x1c(%ebp),%edx
c0108090:	8b 45 0c             	mov    0xc(%ebp),%eax
c0108093:	01 d0                	add    %edx,%eax
c0108095:	0f b6 00             	movzbl (%eax),%eax
c0108098:	3c 0a                	cmp    $0xa,%al
c010809a:	75 b0                	jne    c010804c <get_table_section+0x282>
c010809c:	83 45 e0 01          	addl   $0x1,-0x20(%ebp)
c01080a0:	8b 45 e0             	mov    -0x20(%ebp),%eax
c01080a3:	3b 45 d8             	cmp    -0x28(%ebp),%eax
c01080a6:	0f 8c 7a ff ff ff    	jl     c0108026 <get_table_section+0x25c>
c01080ac:	c7 45 e0 00 00 00 00 	movl   $0x0,-0x20(%ebp)
c01080b3:	e9 ab 00 00 00       	jmp    c0108163 <get_table_section+0x399>
c01080b8:	8b 45 bc             	mov    -0x44(%ebp),%eax
c01080bb:	8b 55 e0             	mov    -0x20(%ebp),%edx
c01080be:	8b 04 90             	mov    (%eax,%edx,4),%eax
c01080c1:	89 45 e4             	mov    %eax,-0x1c(%ebp)
c01080c4:	8b 45 e0             	mov    -0x20(%ebp),%eax
c01080c7:	8d 14 85 00 00 00 00 	lea    0x0(,%eax,4),%edx
c01080ce:	8b 45 c4             	mov    -0x3c(%ebp),%eax
c01080d1:	8d 3c 02             	lea    (%edx,%eax,1),%edi
c01080d4:	8b 45 b4             	mov    -0x4c(%ebp),%eax
c01080d7:	8b 55 e0             	mov    -0x20(%ebp),%edx
c01080da:	8b 04 90             	mov    (%eax,%edx,4),%eax
c01080dd:	83 c0 01             	add    $0x1,%eax
c01080e0:	89 04 24             	mov    %eax,(%esp)
c01080e3:	e8 bb 9f ff ff       	call   c01020a3 <malloc>
c01080e8:	89 07                	mov    %eax,(%edi)
c01080ea:	8b 45 b4             	mov    -0x4c(%ebp),%eax
c01080ed:	8b 55 e0             	mov    -0x20(%ebp),%edx
c01080f0:	8b 04 90             	mov    (%eax,%edx,4),%eax
c01080f3:	83 c0 01             	add    $0x1,%eax
c01080f6:	89 c2                	mov    %eax,%edx
c01080f8:	8b 45 e0             	mov    -0x20(%ebp),%eax
c01080fb:	8d 0c 85 00 00 00 00 	lea    0x0(,%eax,4),%ecx
c0108102:	8b 45 c4             	mov    -0x3c(%ebp),%eax
c0108105:	01 c8                	add    %ecx,%eax
c0108107:	8b 00                	mov    (%eax),%eax
c0108109:	89 54 24 08          	mov    %edx,0x8(%esp)
c010810d:	c7 44 24 04 00 00 00 	movl   $0x0,0x4(%esp)
c0108114:	00 
c0108115:	89 04 24             	mov    %eax,(%esp)
c0108118:	e8 c7 47 00 00       	call   c010c8e4 <memset>
c010811d:	c7 45 dc 00 00 00 00 	movl   $0x0,-0x24(%ebp)
c0108124:	eb 2b                	jmp    c0108151 <get_table_section+0x387>
c0108126:	8b 45 e0             	mov    -0x20(%ebp),%eax
c0108129:	8d 14 85 00 00 00 00 	lea    0x0(,%eax,4),%edx
c0108130:	8b 45 c4             	mov    -0x3c(%ebp),%eax
c0108133:	01 d0                	add    %edx,%eax
c0108135:	8b 10                	mov    (%eax),%edx
c0108137:	8b 45 dc             	mov    -0x24(%ebp),%eax
c010813a:	01 c2                	add    %eax,%edx
c010813c:	8b 4d e4             	mov    -0x1c(%ebp),%ecx
c010813f:	8b 45 0c             	mov    0xc(%ebp),%eax
c0108142:	01 c8                	add    %ecx,%eax
c0108144:	0f b6 00             	movzbl (%eax),%eax
c0108147:	88 02                	mov    %al,(%edx)
c0108149:	83 45 e4 01          	addl   $0x1,-0x1c(%ebp)
c010814d:	83 45 dc 01          	addl   $0x1,-0x24(%ebp)
c0108151:	8b 45 b4             	mov    -0x4c(%ebp),%eax
c0108154:	8b 55 e0             	mov    -0x20(%ebp),%edx
c0108157:	8b 04 90             	mov    (%eax,%edx,4),%eax
c010815a:	3b 45 dc             	cmp    -0x24(%ebp),%eax
c010815d:	7f c7                	jg     c0108126 <get_table_section+0x35c>
c010815f:	83 45 e0 01          	addl   $0x1,-0x20(%ebp)
c0108163:	8b 45 e0             	mov    -0x20(%ebp),%eax
c0108166:	3b 45 d8             	cmp    -0x28(%ebp),%eax
c0108169:	0f 8c 49 ff ff ff    	jl     c01080b8 <get_table_section+0x2ee>
c010816f:	8b 45 c4             	mov    -0x3c(%ebp),%eax
c0108172:	89 f4                	mov    %esi,%esp
c0108174:	89 dc                	mov    %ebx,%esp
c0108176:	8d 65 f4             	lea    -0xc(%ebp),%esp
c0108179:	5b                   	pop    %ebx
c010817a:	5e                   	pop    %esi
c010817b:	5f                   	pop    %edi
c010817c:	5d                   	pop    %ebp
c010817d:	c3                   	ret    

c010817e <find_module>:
c010817e:	55                   	push   %ebp
c010817f:	89 e5                	mov    %esp,%ebp
c0108181:	83 ec 28             	sub    $0x28,%esp
c0108184:	eb 04                	jmp    c010818a <find_module+0xc>
c0108186:	83 45 0c 01          	addl   $0x1,0xc(%ebp)
c010818a:	8b 45 0c             	mov    0xc(%ebp),%eax
c010818d:	0f b6 00             	movzbl (%eax),%eax
c0108190:	3c 20                	cmp    $0x20,%al
c0108192:	74 f2                	je     c0108186 <find_module+0x8>
c0108194:	8b 45 0c             	mov    0xc(%ebp),%eax
c0108197:	0f b6 00             	movzbl (%eax),%eax
c010819a:	3c 09                	cmp    $0x9,%al
c010819c:	74 e8                	je     c0108186 <find_module+0x8>
c010819e:	c7 45 f0 00 00 00 00 	movl   $0x0,-0x10(%ebp)
c01081a5:	eb 04                	jmp    c01081ab <find_module+0x2d>
c01081a7:	83 45 f0 01          	addl   $0x1,-0x10(%ebp)
c01081ab:	8b 55 f0             	mov    -0x10(%ebp),%edx
c01081ae:	8b 45 0c             	mov    0xc(%ebp),%eax
c01081b1:	01 d0                	add    %edx,%eax
c01081b3:	0f b6 00             	movzbl (%eax),%eax
c01081b6:	3c 20                	cmp    $0x20,%al
c01081b8:	74 0f                	je     c01081c9 <find_module+0x4b>
c01081ba:	8b 55 f0             	mov    -0x10(%ebp),%edx
c01081bd:	8b 45 0c             	mov    0xc(%ebp),%eax
c01081c0:	01 d0                	add    %edx,%eax
c01081c2:	0f b6 00             	movzbl (%eax),%eax
c01081c5:	84 c0                	test   %al,%al
c01081c7:	75 de                	jne    c01081a7 <find_module+0x29>
c01081c9:	8b 45 08             	mov    0x8(%ebp),%eax
c01081cc:	8b 40 18             	mov    0x18(%eax),%eax
c01081cf:	89 45 ec             	mov    %eax,-0x14(%ebp)
c01081d2:	c7 45 f4 00 00 00 00 	movl   $0x0,-0xc(%ebp)
c01081d9:	eb 3d                	jmp    c0108218 <find_module+0x9a>
c01081db:	8b 55 f0             	mov    -0x10(%ebp),%edx
c01081de:	8b 45 f4             	mov    -0xc(%ebp),%eax
c01081e1:	c1 e0 04             	shl    $0x4,%eax
c01081e4:	89 c1                	mov    %eax,%ecx
c01081e6:	8b 45 ec             	mov    -0x14(%ebp),%eax
c01081e9:	01 c8                	add    %ecx,%eax
c01081eb:	8b 40 08             	mov    0x8(%eax),%eax
c01081ee:	89 54 24 08          	mov    %edx,0x8(%esp)
c01081f2:	89 44 24 04          	mov    %eax,0x4(%esp)
c01081f6:	8b 45 0c             	mov    0xc(%ebp),%eax
c01081f9:	89 04 24             	mov    %eax,(%esp)
c01081fc:	e8 f8 42 00 00       	call   c010c4f9 <strncmp>
c0108201:	85 c0                	test   %eax,%eax
c0108203:	75 0f                	jne    c0108214 <find_module+0x96>
c0108205:	8b 45 f4             	mov    -0xc(%ebp),%eax
c0108208:	c1 e0 04             	shl    $0x4,%eax
c010820b:	89 c2                	mov    %eax,%edx
c010820d:	8b 45 ec             	mov    -0x14(%ebp),%eax
c0108210:	01 d0                	add    %edx,%eax
c0108212:	eb 16                	jmp    c010822a <find_module+0xac>
c0108214:	83 45 f4 01          	addl   $0x1,-0xc(%ebp)
c0108218:	8b 55 f4             	mov    -0xc(%ebp),%edx
c010821b:	8b 45 08             	mov    0x8(%ebp),%eax
c010821e:	8b 40 14             	mov    0x14(%eax),%eax
c0108221:	39 c2                	cmp    %eax,%edx
c0108223:	72 b6                	jb     c01081db <find_module+0x5d>
c0108225:	b8 00 00 00 00       	mov    $0x0,%eax
c010822a:	c9                   	leave  
c010822b:	c3                   	ret    

c010822c <cpu_dump>:
c010822c:	55                   	push   %ebp
c010822d:	89 e5                	mov    %esp,%ebp
c010822f:	53                   	push   %ebx
c0108230:	83 ec 24             	sub    $0x24,%esp
c0108233:	c7 45 f4 00 00 00 00 	movl   $0x0,-0xc(%ebp)
c010823a:	8b 45 08             	mov    0x8(%ebp),%eax
c010823d:	8b 50 1c             	mov    0x1c(%eax),%edx
c0108240:	8b 45 08             	mov    0x8(%ebp),%eax
c0108243:	8b 40 28             	mov    0x28(%eax),%eax
c0108246:	8b 5d f4             	mov    -0xc(%ebp),%ebx
c0108249:	8b 4d 0c             	mov    0xc(%ebp),%ecx
c010824c:	01 d9                	add    %ebx,%ecx
c010824e:	89 54 24 0c          	mov    %edx,0xc(%esp)
c0108252:	89 44 24 08          	mov    %eax,0x8(%esp)
c0108256:	c7 44 24 04 68 e5 10 	movl   $0xc010e568,0x4(%esp)
c010825d:	c0 
c010825e:	89 0c 24             	mov    %ecx,(%esp)
c0108261:	e8 52 36 00 00       	call   c010b8b8 <sprintf>
c0108266:	01 45 f4             	add    %eax,-0xc(%ebp)
c0108269:	8b 45 08             	mov    0x8(%ebp),%eax
c010826c:	8b 50 20             	mov    0x20(%eax),%edx
c010826f:	8b 45 08             	mov    0x8(%ebp),%eax
c0108272:	8b 40 24             	mov    0x24(%eax),%eax
c0108275:	8b 5d f4             	mov    -0xc(%ebp),%ebx
c0108278:	8b 4d 0c             	mov    0xc(%ebp),%ecx
c010827b:	01 d9                	add    %ebx,%ecx
c010827d:	89 54 24 0c          	mov    %edx,0xc(%esp)
c0108281:	89 44 24 08          	mov    %eax,0x8(%esp)
c0108285:	c7 44 24 04 8c e5 10 	movl   $0xc010e58c,0x4(%esp)
c010828c:	c0 
c010828d:	89 0c 24             	mov    %ecx,(%esp)
c0108290:	e8 23 36 00 00       	call   c010b8b8 <sprintf>
c0108295:	01 45 f4             	add    %eax,-0xc(%ebp)
c0108298:	8b 45 08             	mov    0x8(%ebp),%eax
c010829b:	8b 50 10             	mov    0x10(%eax),%edx
c010829e:	8b 45 08             	mov    0x8(%ebp),%eax
c01082a1:	8b 40 14             	mov    0x14(%eax),%eax
c01082a4:	8b 5d f4             	mov    -0xc(%ebp),%ebx
c01082a7:	8b 4d 0c             	mov    0xc(%ebp),%ecx
c01082aa:	01 d9                	add    %ebx,%ecx
c01082ac:	89 54 24 0c          	mov    %edx,0xc(%esp)
c01082b0:	89 44 24 08          	mov    %eax,0x8(%esp)
c01082b4:	c7 44 24 04 b0 e5 10 	movl   $0xc010e5b0,0x4(%esp)
c01082bb:	c0 
c01082bc:	89 0c 24             	mov    %ecx,(%esp)
c01082bf:	e8 f4 35 00 00       	call   c010b8b8 <sprintf>
c01082c4:	01 45 f4             	add    %eax,-0xc(%ebp)
c01082c7:	8b 45 08             	mov    0x8(%ebp),%eax
c01082ca:	8b 50 18             	mov    0x18(%eax),%edx
c01082cd:	8b 45 08             	mov    0x8(%ebp),%eax
c01082d0:	8b 40 40             	mov    0x40(%eax),%eax
c01082d3:	8b 5d f4             	mov    -0xc(%ebp),%ebx
c01082d6:	8b 4d 0c             	mov    0xc(%ebp),%ecx
c01082d9:	01 d9                	add    %ebx,%ecx
c01082db:	89 54 24 0c          	mov    %edx,0xc(%esp)
c01082df:	89 44 24 08          	mov    %eax,0x8(%esp)
c01082e3:	c7 44 24 04 d4 e5 10 	movl   $0xc010e5d4,0x4(%esp)
c01082ea:	c0 
c01082eb:	89 0c 24             	mov    %ecx,(%esp)
c01082ee:	e8 c5 35 00 00       	call   c010b8b8 <sprintf>
c01082f3:	01 45 f4             	add    %eax,-0xc(%ebp)
c01082f6:	8b 45 08             	mov    0x8(%ebp),%eax
c01082f9:	8b 50 0c             	mov    0xc(%eax),%edx
c01082fc:	8b 45 08             	mov    0x8(%ebp),%eax
c01082ff:	8b 40 38             	mov    0x38(%eax),%eax
c0108302:	8b 5d f4             	mov    -0xc(%ebp),%ebx
c0108305:	8b 4d 0c             	mov    0xc(%ebp),%ecx
c0108308:	01 d9                	add    %ebx,%ecx
c010830a:	89 54 24 0c          	mov    %edx,0xc(%esp)
c010830e:	89 44 24 08          	mov    %eax,0x8(%esp)
c0108312:	c7 44 24 04 f8 e5 10 	movl   $0xc010e5f8,0x4(%esp)
c0108319:	c0 
c010831a:	89 0c 24             	mov    %ecx,(%esp)
c010831d:	e8 96 35 00 00       	call   c010b8b8 <sprintf>
c0108322:	01 45 f4             	add    %eax,-0xc(%ebp)
c0108325:	8b 45 08             	mov    0x8(%ebp),%eax
c0108328:	8b 50 08             	mov    0x8(%eax),%edx
c010832b:	8b 45 08             	mov    0x8(%ebp),%eax
c010832e:	8b 40 44             	mov    0x44(%eax),%eax
c0108331:	8b 5d f4             	mov    -0xc(%ebp),%ebx
c0108334:	8b 4d 0c             	mov    0xc(%ebp),%ecx
c0108337:	01 d9                	add    %ebx,%ecx
c0108339:	89 54 24 0c          	mov    %edx,0xc(%esp)
c010833d:	89 44 24 08          	mov    %eax,0x8(%esp)
c0108341:	c7 44 24 04 1c e6 10 	movl   $0xc010e61c,0x4(%esp)
c0108348:	c0 
c0108349:	89 0c 24             	mov    %ecx,(%esp)
c010834c:	e8 67 35 00 00       	call   c010b8b8 <sprintf>
c0108351:	01 45 f4             	add    %eax,-0xc(%ebp)
c0108354:	8b 45 08             	mov    0x8(%ebp),%eax
c0108357:	8b 50 04             	mov    0x4(%eax),%edx
c010835a:	8b 45 08             	mov    0x8(%ebp),%eax
c010835d:	8b 00                	mov    (%eax),%eax
c010835f:	8b 5d f4             	mov    -0xc(%ebp),%ebx
c0108362:	8b 4d 0c             	mov    0xc(%ebp),%ecx
c0108365:	01 d9                	add    %ebx,%ecx
c0108367:	89 54 24 0c          	mov    %edx,0xc(%esp)
c010836b:	89 44 24 08          	mov    %eax,0x8(%esp)
c010836f:	c7 44 24 04 40 e6 10 	movl   $0xc010e640,0x4(%esp)
c0108376:	c0 
c0108377:	89 0c 24             	mov    %ecx,(%esp)
c010837a:	e8 39 35 00 00       	call   c010b8b8 <sprintf>
c010837f:	01 45 f4             	add    %eax,-0xc(%ebp)
c0108382:	8b 45 08             	mov    0x8(%ebp),%eax
c0108385:	8b 50 3c             	mov    0x3c(%eax),%edx
c0108388:	8b 45 08             	mov    0x8(%ebp),%eax
c010838b:	8b 40 34             	mov    0x34(%eax),%eax
c010838e:	8b 5d f4             	mov    -0xc(%ebp),%ebx
c0108391:	8b 4d 0c             	mov    0xc(%ebp),%ecx
c0108394:	01 d9                	add    %ebx,%ecx
c0108396:	89 54 24 0c          	mov    %edx,0xc(%esp)
c010839a:	89 44 24 08          	mov    %eax,0x8(%esp)
c010839e:	c7 44 24 04 64 e6 10 	movl   $0xc010e664,0x4(%esp)
c01083a5:	c0 
c01083a6:	89 0c 24             	mov    %ecx,(%esp)
c01083a9:	e8 0a 35 00 00       	call   c010b8b8 <sprintf>
c01083ae:	01 45 f4             	add    %eax,-0xc(%ebp)
c01083b1:	8b 45 f4             	mov    -0xc(%ebp),%eax
c01083b4:	83 c4 24             	add    $0x24,%esp
c01083b7:	5b                   	pop    %ebx
c01083b8:	5d                   	pop    %ebp
c01083b9:	c3                   	ret    

c01083ba <panic>:
c01083ba:	55                   	push   %ebp
c01083bb:	89 e5                	mov    %esp,%ebp
c01083bd:	57                   	push   %edi
c01083be:	56                   	push   %esi
c01083bf:	53                   	push   %ebx
c01083c0:	81 ec 2c 04 00 00    	sub    $0x42c,%esp
c01083c6:	c7 45 e4 08 00 00 00 	movl   $0x8,-0x1c(%ebp)
c01083cd:	c7 45 e0 00 00 00 00 	movl   $0x0,-0x20(%ebp)
c01083d4:	8b 45 e0             	mov    -0x20(%ebp),%eax
c01083d7:	8d 95 dc fb ff ff    	lea    -0x424(%ebp),%edx
c01083dd:	01 d0                	add    %edx,%eax
c01083df:	c7 44 24 08 c9 00 00 	movl   $0xc9,0x8(%esp)
c01083e6:	00 
c01083e7:	c7 44 24 04 85 e6 10 	movl   $0xc010e685,0x4(%esp)
c01083ee:	c0 
c01083ef:	89 04 24             	mov    %eax,(%esp)
c01083f2:	e8 c1 34 00 00       	call   c010b8b8 <sprintf>
c01083f7:	01 45 e0             	add    %eax,-0x20(%ebp)
c01083fa:	c7 45 dc 00 00 00 00 	movl   $0x0,-0x24(%ebp)
c0108401:	eb 2a                	jmp    c010842d <panic+0x73>
c0108403:	8b 45 e0             	mov    -0x20(%ebp),%eax
c0108406:	8d 95 dc fb ff ff    	lea    -0x424(%ebp),%edx
c010840c:	01 d0                	add    %edx,%eax
c010840e:	c7 44 24 08 cd 00 00 	movl   $0xcd,0x8(%esp)
c0108415:	00 
c0108416:	c7 44 24 04 8e e6 10 	movl   $0xc010e68e,0x4(%esp)
c010841d:	c0 
c010841e:	89 04 24             	mov    %eax,(%esp)
c0108421:	e8 92 34 00 00       	call   c010b8b8 <sprintf>
c0108426:	01 45 e0             	add    %eax,-0x20(%ebp)
c0108429:	83 45 dc 01          	addl   $0x1,-0x24(%ebp)
c010842d:	83 7d dc 41          	cmpl   $0x41,-0x24(%ebp)
c0108431:	7e d0                	jle    c0108403 <panic+0x49>
c0108433:	8b 45 e0             	mov    -0x20(%ebp),%eax
c0108436:	8d 95 dc fb ff ff    	lea    -0x424(%ebp),%edx
c010843c:	01 d0                	add    %edx,%eax
c010843e:	c7 44 24 08 bb 00 00 	movl   $0xbb,0x8(%esp)
c0108445:	00 
c0108446:	c7 44 24 04 91 e6 10 	movl   $0xc010e691,0x4(%esp)
c010844d:	c0 
c010844e:	89 04 24             	mov    %eax,(%esp)
c0108451:	e8 62 34 00 00       	call   c010b8b8 <sprintf>
c0108456:	01 45 e0             	add    %eax,-0x20(%ebp)
c0108459:	8b 45 e0             	mov    -0x20(%ebp),%eax
c010845c:	8d 95 dc fb ff ff    	lea    -0x424(%ebp),%edx
c0108462:	01 d0                	add    %edx,%eax
c0108464:	c7 44 24 0c ba 00 00 	movl   $0xba,0xc(%esp)
c010846b:	00 
c010846c:	c7 44 24 08 ba 00 00 	movl   $0xba,0x8(%esp)
c0108473:	00 
c0108474:	c7 44 24 04 9c e6 10 	movl   $0xc010e69c,0x4(%esp)
c010847b:	c0 
c010847c:	89 04 24             	mov    %eax,(%esp)
c010847f:	e8 34 34 00 00       	call   c010b8b8 <sprintf>
c0108484:	01 45 e0             	add    %eax,-0x20(%ebp)
c0108487:	8b 45 e0             	mov    -0x20(%ebp),%eax
c010848a:	8d 95 dc fb ff ff    	lea    -0x424(%ebp),%edx
c0108490:	01 d0                	add    %edx,%eax
c0108492:	c7 44 24 08 c8 00 00 	movl   $0xc8,0x8(%esp)
c0108499:	00 
c010849a:	c7 44 24 04 85 e6 10 	movl   $0xc010e685,0x4(%esp)
c01084a1:	c0 
c01084a2:	89 04 24             	mov    %eax,(%esp)
c01084a5:	e8 0e 34 00 00       	call   c010b8b8 <sprintf>
c01084aa:	01 45 e0             	add    %eax,-0x20(%ebp)
c01084ad:	c7 45 dc 00 00 00 00 	movl   $0x0,-0x24(%ebp)
c01084b4:	eb 2a                	jmp    c01084e0 <panic+0x126>
c01084b6:	8b 45 e0             	mov    -0x20(%ebp),%eax
c01084b9:	8d 95 dc fb ff ff    	lea    -0x424(%ebp),%edx
c01084bf:	01 d0                	add    %edx,%eax
c01084c1:	c7 44 24 08 cd 00 00 	movl   $0xcd,0x8(%esp)
c01084c8:	00 
c01084c9:	c7 44 24 04 8e e6 10 	movl   $0xc010e68e,0x4(%esp)
c01084d0:	c0 
c01084d1:	89 04 24             	mov    %eax,(%esp)
c01084d4:	e8 df 33 00 00       	call   c010b8b8 <sprintf>
c01084d9:	01 45 e0             	add    %eax,-0x20(%ebp)
c01084dc:	83 45 dc 01          	addl   $0x1,-0x24(%ebp)
c01084e0:	83 7d dc 41          	cmpl   $0x41,-0x24(%ebp)
c01084e4:	7e d0                	jle    c01084b6 <panic+0xfc>
c01084e6:	8b 45 e0             	mov    -0x20(%ebp),%eax
c01084e9:	8d 95 dc fb ff ff    	lea    -0x424(%ebp),%edx
c01084ef:	01 d0                	add    %edx,%eax
c01084f1:	c7 44 24 08 bc 00 00 	movl   $0xbc,0x8(%esp)
c01084f8:	00 
c01084f9:	c7 44 24 04 91 e6 10 	movl   $0xc010e691,0x4(%esp)
c0108500:	c0 
c0108501:	89 04 24             	mov    %eax,(%esp)
c0108504:	e8 af 33 00 00       	call   c010b8b8 <sprintf>
c0108509:	01 45 e0             	add    %eax,-0x20(%ebp)
c010850c:	8b 45 e0             	mov    -0x20(%ebp),%eax
c010850f:	8d 95 dc fb ff ff    	lea    -0x424(%ebp),%edx
c0108515:	01 d0                	add    %edx,%eax
c0108517:	ba f0 e6 10 c0       	mov    $0xc010e6f0,%edx
c010851c:	bb 96 01 00 00       	mov    $0x196,%ebx
c0108521:	89 c1                	mov    %eax,%ecx
c0108523:	83 e1 01             	and    $0x1,%ecx
c0108526:	85 c9                	test   %ecx,%ecx
c0108528:	74 0e                	je     c0108538 <panic+0x17e>
c010852a:	0f b6 0a             	movzbl (%edx),%ecx
c010852d:	88 08                	mov    %cl,(%eax)
c010852f:	83 c0 01             	add    $0x1,%eax
c0108532:	83 c2 01             	add    $0x1,%edx
c0108535:	83 eb 01             	sub    $0x1,%ebx
c0108538:	89 c1                	mov    %eax,%ecx
c010853a:	83 e1 02             	and    $0x2,%ecx
c010853d:	85 c9                	test   %ecx,%ecx
c010853f:	74 0f                	je     c0108550 <panic+0x196>
c0108541:	0f b7 0a             	movzwl (%edx),%ecx
c0108544:	66 89 08             	mov    %cx,(%eax)
c0108547:	83 c0 02             	add    $0x2,%eax
c010854a:	83 c2 02             	add    $0x2,%edx
c010854d:	83 eb 02             	sub    $0x2,%ebx
c0108550:	89 d9                	mov    %ebx,%ecx
c0108552:	c1 e9 02             	shr    $0x2,%ecx
c0108555:	89 c7                	mov    %eax,%edi
c0108557:	89 d6                	mov    %edx,%esi
c0108559:	f3 a5                	rep movsl %ds:(%esi),%es:(%edi)
c010855b:	89 f2                	mov    %esi,%edx
c010855d:	89 f8                	mov    %edi,%eax
c010855f:	b9 00 00 00 00       	mov    $0x0,%ecx
c0108564:	89 de                	mov    %ebx,%esi
c0108566:	83 e6 02             	and    $0x2,%esi
c0108569:	85 f6                	test   %esi,%esi
c010856b:	74 0b                	je     c0108578 <panic+0x1be>
c010856d:	0f b7 34 0a          	movzwl (%edx,%ecx,1),%esi
c0108571:	66 89 34 08          	mov    %si,(%eax,%ecx,1)
c0108575:	83 c1 02             	add    $0x2,%ecx
c0108578:	83 e3 01             	and    $0x1,%ebx
c010857b:	85 db                	test   %ebx,%ebx
c010857d:	74 07                	je     c0108586 <panic+0x1cc>
c010857f:	0f b6 14 0a          	movzbl (%edx,%ecx,1),%edx
c0108583:	88 14 08             	mov    %dl,(%eax,%ecx,1)
c0108586:	81 45 e0 95 01 00 00 	addl   $0x195,-0x20(%ebp)
c010858d:	eb 47                	jmp    c01085d6 <panic+0x21c>
c010858f:	8b 45 e0             	mov    -0x20(%ebp),%eax
c0108592:	8d 50 01             	lea    0x1(%eax),%edx
c0108595:	89 55 e0             	mov    %edx,-0x20(%ebp)
c0108598:	8b 55 08             	mov    0x8(%ebp),%edx
c010859b:	0f b6 12             	movzbl (%edx),%edx
c010859e:	88 94 05 dc fb ff ff 	mov    %dl,-0x424(%ebp,%eax,1)
c01085a5:	8b 45 08             	mov    0x8(%ebp),%eax
c01085a8:	0f b6 00             	movzbl (%eax),%eax
c01085ab:	3c 0a                	cmp    $0xa,%al
c01085ad:	75 23                	jne    c01085d2 <panic+0x218>
c01085af:	8b 45 e0             	mov    -0x20(%ebp),%eax
c01085b2:	8d 95 dc fb ff ff    	lea    -0x424(%ebp),%edx
c01085b8:	01 d0                	add    %edx,%eax
c01085ba:	c7 00 20 20 20 20    	movl   $0x20202020,(%eax)
c01085c0:	66 c7 40 04 20 20    	movw   $0x2020,0x4(%eax)
c01085c6:	c6 40 06 00          	movb   $0x0,0x6(%eax)
c01085ca:	83 45 e0 06          	addl   $0x6,-0x20(%ebp)
c01085ce:	83 45 e4 01          	addl   $0x1,-0x1c(%ebp)
c01085d2:	83 45 08 01          	addl   $0x1,0x8(%ebp)
c01085d6:	8b 45 08             	mov    0x8(%ebp),%eax
c01085d9:	0f b6 00             	movzbl (%eax),%eax
c01085dc:	84 c0                	test   %al,%al
c01085de:	75 af                	jne    c010858f <panic+0x1d5>
c01085e0:	8b 45 e0             	mov    -0x20(%ebp),%eax
c01085e3:	8d 95 dc fb ff ff    	lea    -0x424(%ebp),%edx
c01085e9:	01 d0                	add    %edx,%eax
c01085eb:	ba 88 e8 10 c0       	mov    $0xc010e888,%edx
c01085f0:	bb 4d 00 00 00       	mov    $0x4d,%ebx
c01085f5:	89 c1                	mov    %eax,%ecx
c01085f7:	83 e1 01             	and    $0x1,%ecx
c01085fa:	85 c9                	test   %ecx,%ecx
c01085fc:	74 0e                	je     c010860c <panic+0x252>
c01085fe:	0f b6 0a             	movzbl (%edx),%ecx
c0108601:	88 08                	mov    %cl,(%eax)
c0108603:	83 c0 01             	add    $0x1,%eax
c0108606:	83 c2 01             	add    $0x1,%edx
c0108609:	83 eb 01             	sub    $0x1,%ebx
c010860c:	89 c1                	mov    %eax,%ecx
c010860e:	83 e1 02             	and    $0x2,%ecx
c0108611:	85 c9                	test   %ecx,%ecx
c0108613:	74 0f                	je     c0108624 <panic+0x26a>
c0108615:	0f b7 0a             	movzwl (%edx),%ecx
c0108618:	66 89 08             	mov    %cx,(%eax)
c010861b:	83 c0 02             	add    $0x2,%eax
c010861e:	83 c2 02             	add    $0x2,%edx
c0108621:	83 eb 02             	sub    $0x2,%ebx
c0108624:	89 d9                	mov    %ebx,%ecx
c0108626:	c1 e9 02             	shr    $0x2,%ecx
c0108629:	89 c7                	mov    %eax,%edi
c010862b:	89 d6                	mov    %edx,%esi
c010862d:	f3 a5                	rep movsl %ds:(%esi),%es:(%edi)
c010862f:	89 f2                	mov    %esi,%edx
c0108631:	89 f8                	mov    %edi,%eax
c0108633:	b9 00 00 00 00       	mov    $0x0,%ecx
c0108638:	89 de                	mov    %ebx,%esi
c010863a:	83 e6 02             	and    $0x2,%esi
c010863d:	85 f6                	test   %esi,%esi
c010863f:	74 0b                	je     c010864c <panic+0x292>
c0108641:	0f b7 34 0a          	movzwl (%edx,%ecx,1),%esi
c0108645:	66 89 34 08          	mov    %si,(%eax,%ecx,1)
c0108649:	83 c1 02             	add    $0x2,%ecx
c010864c:	83 e3 01             	and    $0x1,%ebx
c010864f:	85 db                	test   %ebx,%ebx
c0108651:	74 07                	je     c010865a <panic+0x2a0>
c0108653:	0f b6 14 0a          	movzbl (%edx,%ecx,1),%edx
c0108657:	88 14 08             	mov    %dl,(%eax,%ecx,1)
c010865a:	83 45 e0 4c          	addl   $0x4c,-0x20(%ebp)
c010865e:	8d 85 dc fb ff ff    	lea    -0x424(%ebp),%eax
c0108664:	89 04 24             	mov    %eax,(%esp)
c0108667:	e8 52 ba ff ff       	call   c01040be <puts>
c010866c:	c7 04 24 d5 e8 10 c0 	movl   $0xc010e8d5,(%esp)
c0108673:	e8 d3 31 00 00       	call   c010b84b <printf>
c0108678:	e8 e4 18 00 00       	call   c0109f61 <halt>
c010867d:	81 c4 2c 04 00 00    	add    $0x42c,%esp
c0108683:	5b                   	pop    %ebx
c0108684:	5e                   	pop    %esi
c0108685:	5f                   	pop    %edi
c0108686:	5d                   	pop    %ebp
c0108687:	c3                   	ret    

c0108688 <exc_panic>:
c0108688:	55                   	push   %ebp
c0108689:	89 e5                	mov    %esp,%ebp
c010868b:	81 ec 28 02 00 00    	sub    $0x228,%esp
c0108691:	8b 45 08             	mov    0x8(%ebp),%eax
c0108694:	8b 40 2c             	mov    0x2c(%eax),%eax
c0108697:	8b 04 85 20 23 11 c0 	mov    -0x3feedce0(,%eax,4),%eax
c010869e:	89 45 f4             	mov    %eax,-0xc(%ebp)
c01086a1:	c7 45 f0 00 00 00 00 	movl   $0x0,-0x10(%ebp)
c01086a8:	8b 45 f4             	mov    -0xc(%ebp),%eax
c01086ab:	89 44 24 08          	mov    %eax,0x8(%esp)
c01086af:	c7 44 24 04 de e8 10 	movl   $0xc010e8de,0x4(%esp)
c01086b6:	c0 
c01086b7:	8d 85 f0 fd ff ff    	lea    -0x210(%ebp),%eax
c01086bd:	89 04 24             	mov    %eax,(%esp)
c01086c0:	e8 f3 31 00 00       	call   c010b8b8 <sprintf>
c01086c5:	89 45 f0             	mov    %eax,-0x10(%ebp)
c01086c8:	8b 45 f0             	mov    -0x10(%ebp),%eax
c01086cb:	8d 95 f0 fd ff ff    	lea    -0x210(%ebp),%edx
c01086d1:	01 d0                	add    %edx,%eax
c01086d3:	89 44 24 04          	mov    %eax,0x4(%esp)
c01086d7:	8b 45 08             	mov    0x8(%ebp),%eax
c01086da:	89 04 24             	mov    %eax,(%esp)
c01086dd:	e8 4a fb ff ff       	call   c010822c <cpu_dump>
c01086e2:	8d 85 f0 fd ff ff    	lea    -0x210(%ebp),%eax
c01086e8:	89 04 24             	mov    %eax,(%esp)
c01086eb:	e8 ca fc ff ff       	call   c01083ba <panic>
c01086f0:	c9                   	leave  
c01086f1:	c3                   	ret    

c01086f2 <winpanic>:
c01086f2:	55                   	push   %ebp
c01086f3:	89 e5                	mov    %esp,%ebp
c01086f5:	83 ec 18             	sub    $0x18,%esp
c01086f8:	c7 04 24 1f 00 00 00 	movl   $0x1f,(%esp)
c01086ff:	e8 99 ba ff ff       	call   c010419d <set_color>
c0108704:	e8 30 ba ff ff       	call   c0104139 <clear_screen>
c0108709:	c7 44 24 04 08 00 00 	movl   $0x8,0x4(%esp)
c0108710:	00 
c0108711:	c7 04 24 25 00 00 00 	movl   $0x25,(%esp)
c0108718:	e8 a3 ba ff ff       	call   c01041c0 <gotoxy>
c010871d:	c7 04 24 71 00 00 00 	movl   $0x71,(%esp)
c0108724:	e8 74 ba ff ff       	call   c010419d <set_color>
c0108729:	c7 04 24 e3 e8 10 c0 	movl   $0xc010e8e3,(%esp)
c0108730:	e8 16 31 00 00       	call   c010b84b <printf>
c0108735:	c7 04 24 1f 00 00 00 	movl   $0x1f,(%esp)
c010873c:	e8 5c ba ff ff       	call   c010419d <set_color>
c0108741:	c7 04 24 d5 e8 10 c0 	movl   $0xc010e8d5,(%esp)
c0108748:	e8 fe 30 00 00       	call   c010b84b <printf>
c010874d:	eb 2b                	jmp    c010877a <winpanic+0x88>
c010874f:	8b 45 08             	mov    0x8(%ebp),%eax
c0108752:	0f b6 00             	movzbl (%eax),%eax
c0108755:	0f be c0             	movsbl %al,%eax
c0108758:	89 04 24             	mov    %eax,(%esp)
c010875b:	e8 ff b7 ff ff       	call   c0103f5f <putchar>
c0108760:	8b 45 08             	mov    0x8(%ebp),%eax
c0108763:	0f b6 00             	movzbl (%eax),%eax
c0108766:	3c 0a                	cmp    $0xa,%al
c0108768:	75 0c                	jne    c0108776 <winpanic+0x84>
c010876a:	c7 04 24 ec e8 10 c0 	movl   $0xc010e8ec,(%esp)
c0108771:	e8 d5 30 00 00       	call   c010b84b <printf>
c0108776:	83 45 08 01          	addl   $0x1,0x8(%ebp)
c010877a:	8b 45 08             	mov    0x8(%ebp),%eax
c010877d:	0f b6 00             	movzbl (%eax),%eax
c0108780:	84 c0                	test   %al,%al
c0108782:	75 cb                	jne    c010874f <winpanic+0x5d>
c0108784:	c7 04 24 f4 e8 10 c0 	movl   $0xc010e8f4,(%esp)
c010878b:	e8 2e b9 ff ff       	call   c01040be <puts>
c0108790:	c7 04 24 40 e9 10 c0 	movl   $0xc010e940,(%esp)
c0108797:	e8 22 b9 ff ff       	call   c01040be <puts>
c010879c:	c7 04 24 7c e9 10 c0 	movl   $0xc010e97c,(%esp)
c01087a3:	e8 16 b9 ff ff       	call   c01040be <puts>
c01087a8:	e8 b4 17 00 00       	call   c0109f61 <halt>
c01087ad:	c9                   	leave  
c01087ae:	c3                   	ret    

c01087af <new_pckmgr>:
c01087af:	55                   	push   %ebp
c01087b0:	89 e5                	mov    %esp,%ebp
c01087b2:	83 ec 28             	sub    $0x28,%esp
c01087b5:	c7 04 24 28 00 00 00 	movl   $0x28,(%esp)
c01087bc:	e8 e2 98 ff ff       	call   c01020a3 <malloc>
c01087c1:	89 45 f4             	mov    %eax,-0xc(%ebp)
c01087c4:	8b 45 f4             	mov    -0xc(%ebp),%eax
c01087c7:	c7 00 00 00 00 00    	movl   $0x0,(%eax)
c01087cd:	e8 6b 35 00 00       	call   c010bd3d <list_create>
c01087d2:	8b 55 f4             	mov    -0xc(%ebp),%edx
c01087d5:	89 42 04             	mov    %eax,0x4(%edx)
c01087d8:	8b 45 f4             	mov    -0xc(%ebp),%eax
c01087db:	8b 55 08             	mov    0x8(%ebp),%edx
c01087de:	89 50 08             	mov    %edx,0x8(%eax)
c01087e1:	8b 45 f4             	mov    -0xc(%ebp),%eax
c01087e4:	8b 55 0c             	mov    0xc(%ebp),%edx
c01087e7:	89 50 0c             	mov    %edx,0xc(%eax)
c01087ea:	8b 45 f4             	mov    -0xc(%ebp),%eax
c01087ed:	8b 55 10             	mov    0x10(%ebp),%edx
c01087f0:	89 50 10             	mov    %edx,0x10(%eax)
c01087f3:	e8 45 35 00 00       	call   c010bd3d <list_create>
c01087f8:	8b 55 f4             	mov    -0xc(%ebp),%edx
c01087fb:	89 42 1c             	mov    %eax,0x1c(%edx)
c01087fe:	8b 45 0c             	mov    0xc(%ebp),%eax
c0108801:	8b 40 0c             	mov    0xc(%eax),%eax
c0108804:	89 c2                	mov    %eax,%edx
c0108806:	8b 45 f4             	mov    -0xc(%ebp),%eax
c0108809:	89 50 14             	mov    %edx,0x14(%eax)
c010880c:	8b 45 10             	mov    0x10(%ebp),%eax
c010880f:	8b 40 0c             	mov    0xc(%eax),%eax
c0108812:	89 c2                	mov    %eax,%edx
c0108814:	8b 45 f4             	mov    -0xc(%ebp),%eax
c0108817:	89 50 18             	mov    %edx,0x18(%eax)
c010881a:	8b 45 f4             	mov    -0xc(%ebp),%eax
c010881d:	c9                   	leave  
c010881e:	c3                   	ret    

c010881f <reset_conn>:
c010881f:	55                   	push   %ebp
c0108820:	89 e5                	mov    %esp,%ebp
c0108822:	83 ec 18             	sub    $0x18,%esp
c0108825:	8b 45 08             	mov    0x8(%ebp),%eax
c0108828:	c7 00 00 00 00 00    	movl   $0x0,(%eax)
c010882e:	8b 45 08             	mov    0x8(%ebp),%eax
c0108831:	8b 40 04             	mov    0x4(%eax),%eax
c0108834:	89 04 24             	mov    %eax,(%esp)
c0108837:	e8 92 38 00 00       	call   c010c0ce <list_set_first>
c010883c:	eb 0e                	jmp    c010884c <reset_conn+0x2d>
c010883e:	8b 45 08             	mov    0x8(%ebp),%eax
c0108841:	8b 40 04             	mov    0x4(%eax),%eax
c0108844:	89 04 24             	mov    %eax,(%esp)
c0108847:	e8 a8 36 00 00       	call   c010bef4 <list_pop_front>
c010884c:	8b 45 08             	mov    0x8(%ebp),%eax
c010884f:	8b 40 04             	mov    0x4(%eax),%eax
c0108852:	89 04 24             	mov    %eax,(%esp)
c0108855:	e8 9f 38 00 00       	call   c010c0f9 <list_is_empty>
c010885a:	85 c0                	test   %eax,%eax
c010885c:	74 e0                	je     c010883e <reset_conn+0x1f>
c010885e:	8b 45 08             	mov    0x8(%ebp),%eax
c0108861:	8b 40 1c             	mov    0x1c(%eax),%eax
c0108864:	89 04 24             	mov    %eax,(%esp)
c0108867:	e8 62 38 00 00       	call   c010c0ce <list_set_first>
c010886c:	eb 0e                	jmp    c010887c <reset_conn+0x5d>
c010886e:	8b 45 08             	mov    0x8(%ebp),%eax
c0108871:	8b 40 1c             	mov    0x1c(%eax),%eax
c0108874:	89 04 24             	mov    %eax,(%esp)
c0108877:	e8 78 36 00 00       	call   c010bef4 <list_pop_front>
c010887c:	8b 45 08             	mov    0x8(%ebp),%eax
c010887f:	8b 40 1c             	mov    0x1c(%eax),%eax
c0108882:	89 04 24             	mov    %eax,(%esp)
c0108885:	e8 6f 38 00 00       	call   c010c0f9 <list_is_empty>
c010888a:	85 c0                	test   %eax,%eax
c010888c:	74 e0                	je     c010886e <reset_conn+0x4f>
c010888e:	c9                   	leave  
c010888f:	c3                   	ret    

c0108890 <gen_pckid>:
c0108890:	55                   	push   %ebp
c0108891:	89 e5                	mov    %esp,%ebp
c0108893:	83 ec 18             	sub    $0x18,%esp
c0108896:	8b 45 08             	mov    0x8(%ebp),%eax
c0108899:	8b 40 04             	mov    0x4(%eax),%eax
c010889c:	89 04 24             	mov    %eax,(%esp)
c010889f:	e8 2a 38 00 00       	call   c010c0ce <list_set_first>
c01088a4:	eb 59                	jmp    c01088ff <gen_pckid+0x6f>
c01088a6:	8b 45 08             	mov    0x8(%ebp),%eax
c01088a9:	8b 40 04             	mov    0x4(%eax),%eax
c01088ac:	89 04 24             	mov    %eax,(%esp)
c01088af:	e8 c7 37 00 00       	call   c010c07b <list_get_current>
c01088b4:	89 c2                	mov    %eax,%edx
c01088b6:	8b 45 08             	mov    0x8(%ebp),%eax
c01088b9:	8b 00                	mov    (%eax),%eax
c01088bb:	39 c2                	cmp    %eax,%edx
c01088bd:	75 32                	jne    c01088f1 <gen_pckid+0x61>
c01088bf:	8b 45 08             	mov    0x8(%ebp),%eax
c01088c2:	8b 00                	mov    (%eax),%eax
c01088c4:	83 f8 ff             	cmp    $0xffffffff,%eax
c01088c7:	75 0b                	jne    c01088d4 <gen_pckid+0x44>
c01088c9:	8b 45 08             	mov    0x8(%ebp),%eax
c01088cc:	c7 00 00 00 00 00    	movl   $0x0,(%eax)
c01088d2:	eb 0d                	jmp    c01088e1 <gen_pckid+0x51>
c01088d4:	8b 45 08             	mov    0x8(%ebp),%eax
c01088d7:	8b 00                	mov    (%eax),%eax
c01088d9:	8d 50 01             	lea    0x1(%eax),%edx
c01088dc:	8b 45 08             	mov    0x8(%ebp),%eax
c01088df:	89 10                	mov    %edx,(%eax)
c01088e1:	8b 45 08             	mov    0x8(%ebp),%eax
c01088e4:	8b 40 04             	mov    0x4(%eax),%eax
c01088e7:	89 04 24             	mov    %eax,(%esp)
c01088ea:	e8 df 37 00 00       	call   c010c0ce <list_set_first>
c01088ef:	eb 0e                	jmp    c01088ff <gen_pckid+0x6f>
c01088f1:	8b 45 08             	mov    0x8(%ebp),%eax
c01088f4:	8b 40 04             	mov    0x4(%eax),%eax
c01088f7:	89 04 24             	mov    %eax,(%esp)
c01088fa:	e8 8a 37 00 00       	call   c010c089 <list_next>
c01088ff:	8b 45 08             	mov    0x8(%ebp),%eax
c0108902:	8b 40 04             	mov    0x4(%eax),%eax
c0108905:	89 04 24             	mov    %eax,(%esp)
c0108908:	e8 ec 37 00 00       	call   c010c0f9 <list_is_empty>
c010890d:	85 c0                	test   %eax,%eax
c010890f:	75 12                	jne    c0108923 <gen_pckid+0x93>
c0108911:	8b 45 08             	mov    0x8(%ebp),%eax
c0108914:	8b 40 04             	mov    0x4(%eax),%eax
c0108917:	89 04 24             	mov    %eax,(%esp)
c010891a:	e8 97 37 00 00       	call   c010c0b6 <list_is_last>
c010891f:	85 c0                	test   %eax,%eax
c0108921:	74 83                	je     c01088a6 <gen_pckid+0x16>
c0108923:	8b 45 08             	mov    0x8(%ebp),%eax
c0108926:	8b 00                	mov    (%eax),%eax
c0108928:	89 c2                	mov    %eax,%edx
c010892a:	8b 45 08             	mov    0x8(%ebp),%eax
c010892d:	8b 40 04             	mov    0x4(%eax),%eax
c0108930:	89 54 24 04          	mov    %edx,0x4(%esp)
c0108934:	89 04 24             	mov    %eax,(%esp)
c0108937:	e8 4b 35 00 00       	call   c010be87 <list_push_front>
c010893c:	8b 45 08             	mov    0x8(%ebp),%eax
c010893f:	8b 00                	mov    (%eax),%eax
c0108941:	8d 48 01             	lea    0x1(%eax),%ecx
c0108944:	8b 55 08             	mov    0x8(%ebp),%edx
c0108947:	89 0a                	mov    %ecx,(%edx)
c0108949:	c9                   	leave  
c010894a:	c3                   	ret    

c010894b <free_pckid>:
c010894b:	55                   	push   %ebp
c010894c:	89 e5                	mov    %esp,%ebp
c010894e:	83 ec 18             	sub    $0x18,%esp
c0108951:	8b 45 08             	mov    0x8(%ebp),%eax
c0108954:	8b 40 04             	mov    0x4(%eax),%eax
c0108957:	89 04 24             	mov    %eax,(%esp)
c010895a:	e8 6f 37 00 00       	call   c010c0ce <list_set_first>
c010895f:	eb 36                	jmp    c0108997 <free_pckid+0x4c>
c0108961:	8b 45 08             	mov    0x8(%ebp),%eax
c0108964:	8b 40 04             	mov    0x4(%eax),%eax
c0108967:	89 04 24             	mov    %eax,(%esp)
c010896a:	e8 0c 37 00 00       	call   c010c07b <list_get_current>
c010896f:	3b 45 0c             	cmp    0xc(%ebp),%eax
c0108972:	75 15                	jne    c0108989 <free_pckid+0x3e>
c0108974:	8b 45 08             	mov    0x8(%ebp),%eax
c0108977:	8b 40 04             	mov    0x4(%eax),%eax
c010897a:	89 04 24             	mov    %eax,(%esp)
c010897d:	e8 6c 36 00 00       	call   c010bfee <list_remove>
c0108982:	b8 01 00 00 00       	mov    $0x1,%eax
c0108987:	eb 37                	jmp    c01089c0 <free_pckid+0x75>
c0108989:	8b 45 08             	mov    0x8(%ebp),%eax
c010898c:	8b 40 04             	mov    0x4(%eax),%eax
c010898f:	89 04 24             	mov    %eax,(%esp)
c0108992:	e8 f2 36 00 00       	call   c010c089 <list_next>
c0108997:	8b 45 08             	mov    0x8(%ebp),%eax
c010899a:	8b 40 04             	mov    0x4(%eax),%eax
c010899d:	89 04 24             	mov    %eax,(%esp)
c01089a0:	e8 54 37 00 00       	call   c010c0f9 <list_is_empty>
c01089a5:	85 c0                	test   %eax,%eax
c01089a7:	75 12                	jne    c01089bb <free_pckid+0x70>
c01089a9:	8b 45 08             	mov    0x8(%ebp),%eax
c01089ac:	8b 40 04             	mov    0x4(%eax),%eax
c01089af:	89 04 24             	mov    %eax,(%esp)
c01089b2:	e8 ff 36 00 00       	call   c010c0b6 <list_is_last>
c01089b7:	85 c0                	test   %eax,%eax
c01089b9:	74 a6                	je     c0108961 <free_pckid+0x16>
c01089bb:	b8 00 00 00 00       	mov    $0x0,%eax
c01089c0:	c9                   	leave  
c01089c1:	c3                   	ret    

c01089c2 <send_package>:
c01089c2:	55                   	push   %ebp
c01089c3:	89 e5                	mov    %esp,%ebp
c01089c5:	83 ec 28             	sub    $0x28,%esp
c01089c8:	c7 04 24 0c 00 00 00 	movl   $0xc,(%esp)
c01089cf:	e8 cf 96 ff ff       	call   c01020a3 <malloc>
c01089d4:	89 45 f4             	mov    %eax,-0xc(%ebp)
c01089d7:	8b 45 08             	mov    0x8(%ebp),%eax
c01089da:	89 04 24             	mov    %eax,(%esp)
c01089dd:	e8 ae fe ff ff       	call   c0108890 <gen_pckid>
c01089e2:	89 45 f0             	mov    %eax,-0x10(%ebp)
c01089e5:	8b 45 f4             	mov    -0xc(%ebp),%eax
c01089e8:	8b 55 f0             	mov    -0x10(%ebp),%edx
c01089eb:	89 10                	mov    %edx,(%eax)
c01089ed:	8b 45 10             	mov    0x10(%ebp),%eax
c01089f0:	8d 50 0c             	lea    0xc(%eax),%edx
c01089f3:	8b 45 f4             	mov    -0xc(%ebp),%eax
c01089f6:	89 50 04             	mov    %edx,0x4(%eax)
c01089f9:	8b 45 f4             	mov    -0xc(%ebp),%eax
c01089fc:	8b 55 0c             	mov    0xc(%ebp),%edx
c01089ff:	89 50 08             	mov    %edx,0x8(%eax)
c0108a02:	8b 45 08             	mov    0x8(%ebp),%eax
c0108a05:	8b 40 08             	mov    0x8(%eax),%eax
c0108a08:	8b 40 0c             	mov    0xc(%eax),%eax
c0108a0b:	89 c2                	mov    %eax,%edx
c0108a0d:	8b 45 08             	mov    0x8(%ebp),%eax
c0108a10:	8b 40 08             	mov    0x8(%eax),%eax
c0108a13:	c7 44 24 0c 0c 00 00 	movl   $0xc,0xc(%esp)
c0108a1a:	00 
c0108a1b:	8b 4d f4             	mov    -0xc(%ebp),%ecx
c0108a1e:	89 4c 24 08          	mov    %ecx,0x8(%esp)
c0108a22:	89 54 24 04          	mov    %edx,0x4(%esp)
c0108a26:	89 04 24             	mov    %eax,(%esp)
c0108a29:	e8 8e de ff ff       	call   c01068bc <vfs_write>
c0108a2e:	83 7d 10 00          	cmpl   $0x0,0x10(%ebp)
c0108a32:	74 2b                	je     c0108a5f <send_package+0x9d>
c0108a34:	8b 4d 10             	mov    0x10(%ebp),%ecx
c0108a37:	8b 45 08             	mov    0x8(%ebp),%eax
c0108a3a:	8b 40 08             	mov    0x8(%eax),%eax
c0108a3d:	8b 40 0c             	mov    0xc(%eax),%eax
c0108a40:	89 c2                	mov    %eax,%edx
c0108a42:	8b 45 08             	mov    0x8(%ebp),%eax
c0108a45:	8b 40 08             	mov    0x8(%eax),%eax
c0108a48:	89 4c 24 0c          	mov    %ecx,0xc(%esp)
c0108a4c:	8b 4d 14             	mov    0x14(%ebp),%ecx
c0108a4f:	89 4c 24 08          	mov    %ecx,0x8(%esp)
c0108a53:	89 54 24 04          	mov    %edx,0x4(%esp)
c0108a57:	89 04 24             	mov    %eax,(%esp)
c0108a5a:	e8 5d de ff ff       	call   c01068bc <vfs_write>
c0108a5f:	8b 45 f4             	mov    -0xc(%ebp),%eax
c0108a62:	89 04 24             	mov    %eax,(%esp)
c0108a65:	e8 54 96 ff ff       	call   c01020be <free>
c0108a6a:	8b 45 f0             	mov    -0x10(%ebp),%eax
c0108a6d:	c9                   	leave  
c0108a6e:	c3                   	ret    

c0108a6f <respond>:
c0108a6f:	55                   	push   %ebp
c0108a70:	89 e5                	mov    %esp,%ebp
c0108a72:	83 ec 28             	sub    $0x28,%esp
c0108a75:	c7 04 24 0c 00 00 00 	movl   $0xc,(%esp)
c0108a7c:	e8 22 96 ff ff       	call   c01020a3 <malloc>
c0108a81:	89 45 f4             	mov    %eax,-0xc(%ebp)
c0108a84:	8b 45 f4             	mov    -0xc(%ebp),%eax
c0108a87:	8b 55 0c             	mov    0xc(%ebp),%edx
c0108a8a:	89 10                	mov    %edx,(%eax)
c0108a8c:	8b 45 14             	mov    0x14(%ebp),%eax
c0108a8f:	8d 50 0c             	lea    0xc(%eax),%edx
c0108a92:	8b 45 f4             	mov    -0xc(%ebp),%eax
c0108a95:	89 50 04             	mov    %edx,0x4(%eax)
c0108a98:	8b 45 f4             	mov    -0xc(%ebp),%eax
c0108a9b:	8b 55 10             	mov    0x10(%ebp),%edx
c0108a9e:	89 50 08             	mov    %edx,0x8(%eax)
c0108aa1:	8b 45 08             	mov    0x8(%ebp),%eax
c0108aa4:	8b 40 08             	mov    0x8(%eax),%eax
c0108aa7:	8b 40 0c             	mov    0xc(%eax),%eax
c0108aaa:	89 c2                	mov    %eax,%edx
c0108aac:	8b 45 08             	mov    0x8(%ebp),%eax
c0108aaf:	8b 40 08             	mov    0x8(%eax),%eax
c0108ab2:	c7 44 24 0c 0c 00 00 	movl   $0xc,0xc(%esp)
c0108ab9:	00 
c0108aba:	8b 4d f4             	mov    -0xc(%ebp),%ecx
c0108abd:	89 4c 24 08          	mov    %ecx,0x8(%esp)
c0108ac1:	89 54 24 04          	mov    %edx,0x4(%esp)
c0108ac5:	89 04 24             	mov    %eax,(%esp)
c0108ac8:	e8 ef dd ff ff       	call   c01068bc <vfs_write>
c0108acd:	83 7d 14 00          	cmpl   $0x0,0x14(%ebp)
c0108ad1:	74 2b                	je     c0108afe <respond+0x8f>
c0108ad3:	8b 4d 14             	mov    0x14(%ebp),%ecx
c0108ad6:	8b 45 08             	mov    0x8(%ebp),%eax
c0108ad9:	8b 40 08             	mov    0x8(%eax),%eax
c0108adc:	8b 40 0c             	mov    0xc(%eax),%eax
c0108adf:	89 c2                	mov    %eax,%edx
c0108ae1:	8b 45 08             	mov    0x8(%ebp),%eax
c0108ae4:	8b 40 08             	mov    0x8(%eax),%eax
c0108ae7:	89 4c 24 0c          	mov    %ecx,0xc(%esp)
c0108aeb:	8b 4d 18             	mov    0x18(%ebp),%ecx
c0108aee:	89 4c 24 08          	mov    %ecx,0x8(%esp)
c0108af2:	89 54 24 04          	mov    %edx,0x4(%esp)
c0108af6:	89 04 24             	mov    %eax,(%esp)
c0108af9:	e8 be dd ff ff       	call   c01068bc <vfs_write>
c0108afe:	8b 45 f4             	mov    -0xc(%ebp),%eax
c0108b01:	89 04 24             	mov    %eax,(%esp)
c0108b04:	e8 b5 95 ff ff       	call   c01020be <free>
c0108b09:	c9                   	leave  
c0108b0a:	c3                   	ret    

c0108b0b <poll_next>:
c0108b0b:	55                   	push   %ebp
c0108b0c:	89 e5                	mov    %esp,%ebp
c0108b0e:	83 ec 28             	sub    $0x28,%esp
c0108b11:	c7 04 24 10 00 00 00 	movl   $0x10,(%esp)
c0108b18:	e8 86 95 ff ff       	call   c01020a3 <malloc>
c0108b1d:	89 45 f4             	mov    %eax,-0xc(%ebp)
c0108b20:	90                   	nop
c0108b21:	8b 45 08             	mov    0x8(%ebp),%eax
c0108b24:	8b 40 0c             	mov    0xc(%eax),%eax
c0108b27:	8b 50 0c             	mov    0xc(%eax),%edx
c0108b2a:	8b 45 08             	mov    0x8(%ebp),%eax
c0108b2d:	8b 40 14             	mov    0x14(%eax),%eax
c0108b30:	29 c2                	sub    %eax,%edx
c0108b32:	89 d0                	mov    %edx,%eax
c0108b34:	83 f8 0b             	cmp    $0xb,%eax
c0108b37:	76 e8                	jbe    c0108b21 <poll_next+0x16>
c0108b39:	8b 45 08             	mov    0x8(%ebp),%eax
c0108b3c:	8b 40 14             	mov    0x14(%eax),%eax
c0108b3f:	89 c2                	mov    %eax,%edx
c0108b41:	8b 45 08             	mov    0x8(%ebp),%eax
c0108b44:	8b 40 0c             	mov    0xc(%eax),%eax
c0108b47:	8b 4d f4             	mov    -0xc(%ebp),%ecx
c0108b4a:	89 4c 24 0c          	mov    %ecx,0xc(%esp)
c0108b4e:	c7 44 24 08 0c 00 00 	movl   $0xc,0x8(%esp)
c0108b55:	00 
c0108b56:	89 54 24 04          	mov    %edx,0x4(%esp)
c0108b5a:	89 04 24             	mov    %eax,(%esp)
c0108b5d:	e8 ef df ff ff       	call   c0106b51 <vfs_read>
c0108b62:	8b 45 08             	mov    0x8(%ebp),%eax
c0108b65:	8b 40 14             	mov    0x14(%eax),%eax
c0108b68:	83 c0 0c             	add    $0xc,%eax
c0108b6b:	89 c2                	mov    %eax,%edx
c0108b6d:	8b 45 08             	mov    0x8(%ebp),%eax
c0108b70:	89 50 14             	mov    %edx,0x14(%eax)
c0108b73:	8b 45 f4             	mov    -0xc(%ebp),%eax
c0108b76:	8b 40 04             	mov    0x4(%eax),%eax
c0108b79:	83 f8 0c             	cmp    $0xc,%eax
c0108b7c:	76 76                	jbe    c0108bf4 <poll_next+0xe9>
c0108b7e:	8b 45 f4             	mov    -0xc(%ebp),%eax
c0108b81:	8b 40 04             	mov    0x4(%eax),%eax
c0108b84:	83 e8 0c             	sub    $0xc,%eax
c0108b87:	89 45 f0             	mov    %eax,-0x10(%ebp)
c0108b8a:	8b 45 f0             	mov    -0x10(%ebp),%eax
c0108b8d:	89 04 24             	mov    %eax,(%esp)
c0108b90:	e8 0e 95 ff ff       	call   c01020a3 <malloc>
c0108b95:	89 c2                	mov    %eax,%edx
c0108b97:	8b 45 f4             	mov    -0xc(%ebp),%eax
c0108b9a:	89 50 0c             	mov    %edx,0xc(%eax)
c0108b9d:	90                   	nop
c0108b9e:	8b 45 08             	mov    0x8(%ebp),%eax
c0108ba1:	8b 40 0c             	mov    0xc(%eax),%eax
c0108ba4:	8b 50 0c             	mov    0xc(%eax),%edx
c0108ba7:	8b 45 08             	mov    0x8(%ebp),%eax
c0108baa:	8b 40 14             	mov    0x14(%eax),%eax
c0108bad:	29 c2                	sub    %eax,%edx
c0108baf:	8b 45 f0             	mov    -0x10(%ebp),%eax
c0108bb2:	39 c2                	cmp    %eax,%edx
c0108bb4:	72 e8                	jb     c0108b9e <poll_next+0x93>
c0108bb6:	8b 45 f4             	mov    -0xc(%ebp),%eax
c0108bb9:	8b 48 0c             	mov    0xc(%eax),%ecx
c0108bbc:	8b 45 08             	mov    0x8(%ebp),%eax
c0108bbf:	8b 40 14             	mov    0x14(%eax),%eax
c0108bc2:	89 c2                	mov    %eax,%edx
c0108bc4:	8b 45 08             	mov    0x8(%ebp),%eax
c0108bc7:	8b 40 0c             	mov    0xc(%eax),%eax
c0108bca:	89 4c 24 0c          	mov    %ecx,0xc(%esp)
c0108bce:	8b 4d f0             	mov    -0x10(%ebp),%ecx
c0108bd1:	89 4c 24 08          	mov    %ecx,0x8(%esp)
c0108bd5:	89 54 24 04          	mov    %edx,0x4(%esp)
c0108bd9:	89 04 24             	mov    %eax,(%esp)
c0108bdc:	e8 70 df ff ff       	call   c0106b51 <vfs_read>
c0108be1:	8b 45 08             	mov    0x8(%ebp),%eax
c0108be4:	8b 50 14             	mov    0x14(%eax),%edx
c0108be7:	8b 45 f0             	mov    -0x10(%ebp),%eax
c0108bea:	01 c2                	add    %eax,%edx
c0108bec:	8b 45 08             	mov    0x8(%ebp),%eax
c0108bef:	89 50 14             	mov    %edx,0x14(%eax)
c0108bf2:	eb 0a                	jmp    c0108bfe <poll_next+0xf3>
c0108bf4:	8b 45 f4             	mov    -0xc(%ebp),%eax
c0108bf7:	c7 40 0c 00 00 00 00 	movl   $0x0,0xc(%eax)
c0108bfe:	8b 45 f4             	mov    -0xc(%ebp),%eax
c0108c01:	c9                   	leave  
c0108c02:	c3                   	ret    

c0108c03 <poll_queue>:
c0108c03:	55                   	push   %ebp
c0108c04:	89 e5                	mov    %esp,%ebp
c0108c06:	83 ec 18             	sub    $0x18,%esp
c0108c09:	8b 45 08             	mov    0x8(%ebp),%eax
c0108c0c:	89 04 24             	mov    %eax,(%esp)
c0108c0f:	e8 f7 fe ff ff       	call   c0108b0b <poll_next>
c0108c14:	8b 55 08             	mov    0x8(%ebp),%edx
c0108c17:	8b 52 1c             	mov    0x1c(%edx),%edx
c0108c1a:	89 44 24 04          	mov    %eax,0x4(%esp)
c0108c1e:	89 14 24             	mov    %edx,(%esp)
c0108c21:	e8 61 32 00 00       	call   c010be87 <list_push_front>
c0108c26:	c9                   	leave  
c0108c27:	c3                   	ret    

c0108c28 <fetch_queue>:
c0108c28:	55                   	push   %ebp
c0108c29:	89 e5                	mov    %esp,%ebp
c0108c2b:	83 ec 28             	sub    $0x28,%esp
c0108c2e:	8b 45 08             	mov    0x8(%ebp),%eax
c0108c31:	8b 40 1c             	mov    0x1c(%eax),%eax
c0108c34:	89 04 24             	mov    %eax,(%esp)
c0108c37:	e8 92 34 00 00       	call   c010c0ce <list_set_first>
c0108c3c:	eb 3c                	jmp    c0108c7a <fetch_queue+0x52>
c0108c3e:	8b 45 08             	mov    0x8(%ebp),%eax
c0108c41:	8b 40 1c             	mov    0x1c(%eax),%eax
c0108c44:	89 04 24             	mov    %eax,(%esp)
c0108c47:	e8 2f 34 00 00       	call   c010c07b <list_get_current>
c0108c4c:	89 45 f4             	mov    %eax,-0xc(%ebp)
c0108c4f:	8b 45 f4             	mov    -0xc(%ebp),%eax
c0108c52:	8b 00                	mov    (%eax),%eax
c0108c54:	3b 45 0c             	cmp    0xc(%ebp),%eax
c0108c57:	75 13                	jne    c0108c6c <fetch_queue+0x44>
c0108c59:	8b 45 08             	mov    0x8(%ebp),%eax
c0108c5c:	8b 40 1c             	mov    0x1c(%eax),%eax
c0108c5f:	89 04 24             	mov    %eax,(%esp)
c0108c62:	e8 87 33 00 00       	call   c010bfee <list_remove>
c0108c67:	8b 45 f4             	mov    -0xc(%ebp),%eax
c0108c6a:	eb 37                	jmp    c0108ca3 <fetch_queue+0x7b>
c0108c6c:	8b 45 08             	mov    0x8(%ebp),%eax
c0108c6f:	8b 40 1c             	mov    0x1c(%eax),%eax
c0108c72:	89 04 24             	mov    %eax,(%esp)
c0108c75:	e8 0f 34 00 00       	call   c010c089 <list_next>
c0108c7a:	8b 45 08             	mov    0x8(%ebp),%eax
c0108c7d:	8b 40 1c             	mov    0x1c(%eax),%eax
c0108c80:	89 04 24             	mov    %eax,(%esp)
c0108c83:	e8 2e 34 00 00       	call   c010c0b6 <list_is_last>
c0108c88:	85 c0                	test   %eax,%eax
c0108c8a:	75 12                	jne    c0108c9e <fetch_queue+0x76>
c0108c8c:	8b 45 08             	mov    0x8(%ebp),%eax
c0108c8f:	8b 40 1c             	mov    0x1c(%eax),%eax
c0108c92:	89 04 24             	mov    %eax,(%esp)
c0108c95:	e8 5f 34 00 00       	call   c010c0f9 <list_is_empty>
c0108c9a:	85 c0                	test   %eax,%eax
c0108c9c:	74 a0                	je     c0108c3e <fetch_queue+0x16>
c0108c9e:	b8 00 00 00 00       	mov    $0x0,%eax
c0108ca3:	c9                   	leave  
c0108ca4:	c3                   	ret    

c0108ca5 <pck_poll>:
c0108ca5:	55                   	push   %ebp
c0108ca6:	89 e5                	mov    %esp,%ebp
c0108ca8:	83 ec 28             	sub    $0x28,%esp
c0108cab:	8b 45 0c             	mov    0xc(%ebp),%eax
c0108cae:	89 44 24 04          	mov    %eax,0x4(%esp)
c0108cb2:	8b 45 08             	mov    0x8(%ebp),%eax
c0108cb5:	89 04 24             	mov    %eax,(%esp)
c0108cb8:	e8 6b ff ff ff       	call   c0108c28 <fetch_queue>
c0108cbd:	89 45 f4             	mov    %eax,-0xc(%ebp)
c0108cc0:	83 7d f4 00          	cmpl   $0x0,-0xc(%ebp)
c0108cc4:	74 05                	je     c0108ccb <pck_poll+0x26>
c0108cc6:	8b 45 f4             	mov    -0xc(%ebp),%eax
c0108cc9:	eb 40                	jmp    c0108d0b <pck_poll+0x66>
c0108ccb:	8b 45 08             	mov    0x8(%ebp),%eax
c0108cce:	89 04 24             	mov    %eax,(%esp)
c0108cd1:	e8 35 fe ff ff       	call   c0108b0b <poll_next>
c0108cd6:	89 45 f4             	mov    %eax,-0xc(%ebp)
c0108cd9:	eb 23                	jmp    c0108cfe <pck_poll+0x59>
c0108cdb:	8b 45 08             	mov    0x8(%ebp),%eax
c0108cde:	8b 40 1c             	mov    0x1c(%eax),%eax
c0108ce1:	8b 55 f4             	mov    -0xc(%ebp),%edx
c0108ce4:	89 54 24 04          	mov    %edx,0x4(%esp)
c0108ce8:	89 04 24             	mov    %eax,(%esp)
c0108ceb:	e8 97 31 00 00       	call   c010be87 <list_push_front>
c0108cf0:	8b 45 08             	mov    0x8(%ebp),%eax
c0108cf3:	89 04 24             	mov    %eax,(%esp)
c0108cf6:	e8 10 fe ff ff       	call   c0108b0b <poll_next>
c0108cfb:	89 45 f4             	mov    %eax,-0xc(%ebp)
c0108cfe:	8b 45 f4             	mov    -0xc(%ebp),%eax
c0108d01:	8b 00                	mov    (%eax),%eax
c0108d03:	3b 45 0c             	cmp    0xc(%ebp),%eax
c0108d06:	75 d3                	jne    c0108cdb <pck_poll+0x36>
c0108d08:	8b 45 f4             	mov    -0xc(%ebp),%eax
c0108d0b:	c9                   	leave  
c0108d0c:	c3                   	ret    

c0108d0d <fetch_pipe>:
c0108d0d:	55                   	push   %ebp
c0108d0e:	89 e5                	mov    %esp,%ebp
c0108d10:	83 ec 18             	sub    $0x18,%esp
c0108d13:	8b 45 08             	mov    0x8(%ebp),%eax
c0108d16:	8b 40 0c             	mov    0xc(%eax),%eax
c0108d19:	8b 50 0c             	mov    0xc(%eax),%edx
c0108d1c:	8b 45 08             	mov    0x8(%ebp),%eax
c0108d1f:	8b 40 14             	mov    0x14(%eax),%eax
c0108d22:	29 c2                	sub    %eax,%edx
c0108d24:	89 d0                	mov    %edx,%eax
c0108d26:	83 f8 0b             	cmp    $0xb,%eax
c0108d29:	77 07                	ja     c0108d32 <fetch_pipe+0x25>
c0108d2b:	b8 00 00 00 00       	mov    $0x0,%eax
c0108d30:	eb 0b                	jmp    c0108d3d <fetch_pipe+0x30>
c0108d32:	8b 45 08             	mov    0x8(%ebp),%eax
c0108d35:	89 04 24             	mov    %eax,(%esp)
c0108d38:	e8 ce fd ff ff       	call   c0108b0b <poll_next>
c0108d3d:	c9                   	leave  
c0108d3e:	c3                   	ret    

c0108d3f <set_GDT_entry>:
c0108d3f:	55                   	push   %ebp
c0108d40:	89 e5                	mov    %esp,%ebp
c0108d42:	83 ec 08             	sub    $0x8,%esp
c0108d45:	8b 55 14             	mov    0x14(%ebp),%edx
c0108d48:	8b 45 18             	mov    0x18(%ebp),%eax
c0108d4b:	88 55 fc             	mov    %dl,-0x4(%ebp)
c0108d4e:	88 45 f8             	mov    %al,-0x8(%ebp)
c0108d51:	8b 45 10             	mov    0x10(%ebp),%eax
c0108d54:	89 c2                	mov    %eax,%edx
c0108d56:	8b 45 08             	mov    0x8(%ebp),%eax
c0108d59:	66 89 14 c5 40 40 11 	mov    %dx,-0x3feebfc0(,%eax,8)
c0108d60:	c0 
c0108d61:	8b 45 0c             	mov    0xc(%ebp),%eax
c0108d64:	89 c2                	mov    %eax,%edx
c0108d66:	8b 45 08             	mov    0x8(%ebp),%eax
c0108d69:	66 89 14 c5 42 40 11 	mov    %dx,-0x3feebfbe(,%eax,8)
c0108d70:	c0 
c0108d71:	8b 45 0c             	mov    0xc(%ebp),%eax
c0108d74:	c1 e8 10             	shr    $0x10,%eax
c0108d77:	89 c2                	mov    %eax,%edx
c0108d79:	8b 45 08             	mov    0x8(%ebp),%eax
c0108d7c:	88 14 c5 44 40 11 c0 	mov    %dl,-0x3feebfbc(,%eax,8)
c0108d83:	8b 45 08             	mov    0x8(%ebp),%eax
c0108d86:	0f b6 55 fc          	movzbl -0x4(%ebp),%edx
c0108d8a:	88 14 c5 45 40 11 c0 	mov    %dl,-0x3feebfbb(,%eax,8)
c0108d91:	0f b6 45 f8          	movzbl -0x8(%ebp),%eax
c0108d95:	c1 e0 04             	shl    $0x4,%eax
c0108d98:	89 c2                	mov    %eax,%edx
c0108d9a:	8b 45 10             	mov    0x10(%ebp),%eax
c0108d9d:	c1 e8 10             	shr    $0x10,%eax
c0108da0:	09 c2                	or     %eax,%edx
c0108da2:	8b 45 08             	mov    0x8(%ebp),%eax
c0108da5:	88 14 c5 46 40 11 c0 	mov    %dl,-0x3feebfba(,%eax,8)
c0108dac:	8b 45 0c             	mov    0xc(%ebp),%eax
c0108daf:	c1 e8 18             	shr    $0x18,%eax
c0108db2:	89 c2                	mov    %eax,%edx
c0108db4:	8b 45 08             	mov    0x8(%ebp),%eax
c0108db7:	88 14 c5 47 40 11 c0 	mov    %dl,-0x3feebfb9(,%eax,8)
c0108dbe:	c9                   	leave  
c0108dbf:	c3                   	ret    

c0108dc0 <load_gdt>:
c0108dc0:	55                   	push   %ebp
c0108dc1:	89 e5                	mov    %esp,%ebp
c0108dc3:	83 ec 04             	sub    $0x4,%esp
c0108dc6:	8b 45 08             	mov    0x8(%ebp),%eax
c0108dc9:	66 89 45 fc          	mov    %ax,-0x4(%ebp)
c0108dcd:	0f b7 45 fc          	movzwl -0x4(%ebp),%eax
c0108dd1:	83 c0 01             	add    $0x1,%eax
c0108dd4:	c1 e0 03             	shl    $0x3,%eax
c0108dd7:	83 e8 01             	sub    $0x1,%eax
c0108dda:	66 a3 78 40 11 c0    	mov    %ax,0xc0114078
c0108de0:	c7 05 7a 40 11 c0 40 	movl   $0xc0114040,0xc011407a
c0108de7:	40 11 c0 
c0108dea:	0f 01 15 78 40 11 c0 	lgdtl  0xc0114078
c0108df1:	c9                   	leave  
c0108df2:	c3                   	ret    

c0108df3 <INIT_GDT>:
c0108df3:	55                   	push   %ebp
c0108df4:	89 e5                	mov    %esp,%ebp
c0108df6:	83 ec 14             	sub    $0x14,%esp
c0108df9:	c7 44 24 10 00 00 00 	movl   $0x0,0x10(%esp)
c0108e00:	00 
c0108e01:	c7 44 24 0c 00 00 00 	movl   $0x0,0xc(%esp)
c0108e08:	00 
c0108e09:	c7 44 24 08 00 00 00 	movl   $0x0,0x8(%esp)
c0108e10:	00 
c0108e11:	c7 44 24 04 00 00 00 	movl   $0x0,0x4(%esp)
c0108e18:	00 
c0108e19:	c7 04 24 00 00 00 00 	movl   $0x0,(%esp)
c0108e20:	e8 1a ff ff ff       	call   c0108d3f <set_GDT_entry>
c0108e25:	c7 44 24 10 0c 00 00 	movl   $0xc,0x10(%esp)
c0108e2c:	00 
c0108e2d:	c7 44 24 0c 9a 00 00 	movl   $0x9a,0xc(%esp)
c0108e34:	00 
c0108e35:	c7 44 24 08 ff ff 0f 	movl   $0xfffff,0x8(%esp)
c0108e3c:	00 
c0108e3d:	c7 44 24 04 00 00 00 	movl   $0x0,0x4(%esp)
c0108e44:	00 
c0108e45:	c7 04 24 01 00 00 00 	movl   $0x1,(%esp)
c0108e4c:	e8 ee fe ff ff       	call   c0108d3f <set_GDT_entry>
c0108e51:	c7 44 24 10 0c 00 00 	movl   $0xc,0x10(%esp)
c0108e58:	00 
c0108e59:	c7 44 24 0c 92 00 00 	movl   $0x92,0xc(%esp)
c0108e60:	00 
c0108e61:	c7 44 24 08 ff ff 0f 	movl   $0xfffff,0x8(%esp)
c0108e68:	00 
c0108e69:	c7 44 24 04 00 00 00 	movl   $0x0,0x4(%esp)
c0108e70:	00 
c0108e71:	c7 04 24 02 00 00 00 	movl   $0x2,(%esp)
c0108e78:	e8 c2 fe ff ff       	call   c0108d3f <set_GDT_entry>
c0108e7d:	c7 44 24 10 0c 00 00 	movl   $0xc,0x10(%esp)
c0108e84:	00 
c0108e85:	c7 44 24 0c fa 00 00 	movl   $0xfa,0xc(%esp)
c0108e8c:	00 
c0108e8d:	c7 44 24 08 ff ff 0f 	movl   $0xfffff,0x8(%esp)
c0108e94:	00 
c0108e95:	c7 44 24 04 00 00 00 	movl   $0x0,0x4(%esp)
c0108e9c:	00 
c0108e9d:	c7 04 24 03 00 00 00 	movl   $0x3,(%esp)
c0108ea4:	e8 96 fe ff ff       	call   c0108d3f <set_GDT_entry>
c0108ea9:	c7 44 24 10 0c 00 00 	movl   $0xc,0x10(%esp)
c0108eb0:	00 
c0108eb1:	c7 44 24 0c f2 00 00 	movl   $0xf2,0xc(%esp)
c0108eb8:	00 
c0108eb9:	c7 44 24 08 ff ff 0f 	movl   $0xfffff,0x8(%esp)
c0108ec0:	00 
c0108ec1:	c7 44 24 04 00 00 00 	movl   $0x0,0x4(%esp)
c0108ec8:	00 
c0108ec9:	c7 04 24 04 00 00 00 	movl   $0x4,(%esp)
c0108ed0:	e8 6a fe ff ff       	call   c0108d3f <set_GDT_entry>
c0108ed5:	c7 04 24 04 00 00 00 	movl   $0x4,(%esp)
c0108edc:	e8 df fe ff ff       	call   c0108dc0 <load_gdt>
c0108ee1:	66 b8 10 00          	mov    $0x10,%ax
c0108ee5:	8e d8                	mov    %eax,%ds
c0108ee7:	8e c0                	mov    %eax,%es
c0108ee9:	8e e0                	mov    %eax,%fs
c0108eeb:	8e e8                	mov    %eax,%gs
c0108eed:	8e d0                	mov    %eax,%ss
c0108eef:	ea f6 8e 10 c0 08 00 	ljmp   $0x8,$0xc0108ef6

c0108ef6 <.1>:
c0108ef6:	c9                   	leave  
c0108ef7:	c3                   	ret    

c0108ef8 <pd_dump>:
c0108ef8:	55                   	push   %ebp
c0108ef9:	89 e5                	mov    %esp,%ebp
c0108efb:	83 ec 48             	sub    $0x48,%esp
c0108efe:	c7 45 e0 00 00 00 00 	movl   $0x0,-0x20(%ebp)
c0108f05:	8b 45 08             	mov    0x8(%ebp),%eax
c0108f08:	8b 00                	mov    (%eax),%eax
c0108f0a:	89 45 dc             	mov    %eax,-0x24(%ebp)
c0108f0d:	c7 45 f4 00 00 00 00 	movl   $0x0,-0xc(%ebp)
c0108f14:	e9 25 02 00 00       	jmp    c010913e <pd_dump+0x246>
c0108f19:	83 7d e0 00          	cmpl   $0x0,-0x20(%ebp)
c0108f1d:	74 5d                	je     c0108f7c <pd_dump+0x84>
c0108f1f:	8b 45 f4             	mov    -0xc(%ebp),%eax
c0108f22:	8d 14 85 00 00 00 00 	lea    0x0(,%eax,4),%edx
c0108f29:	8b 45 dc             	mov    -0x24(%ebp),%eax
c0108f2c:	01 d0                	add    %edx,%eax
c0108f2e:	8b 00                	mov    (%eax),%eax
c0108f30:	83 e0 01             	and    $0x1,%eax
c0108f33:	85 c0                	test   %eax,%eax
c0108f35:	75 45                	jne    c0108f7c <pd_dump+0x84>
c0108f37:	8b 45 e4             	mov    -0x1c(%ebp),%eax
c0108f3a:	c1 e0 0c             	shl    $0xc,%eax
c0108f3d:	89 c2                	mov    %eax,%edx
c0108f3f:	8b 45 e8             	mov    -0x18(%ebp),%eax
c0108f42:	01 d0                	add    %edx,%eax
c0108f44:	8b 55 e4             	mov    -0x1c(%ebp),%edx
c0108f47:	89 d1                	mov    %edx,%ecx
c0108f49:	c1 e1 0c             	shl    $0xc,%ecx
c0108f4c:	8b 55 ec             	mov    -0x14(%ebp),%edx
c0108f4f:	01 ca                	add    %ecx,%edx
c0108f51:	89 44 24 10          	mov    %eax,0x10(%esp)
c0108f55:	8b 45 e8             	mov    -0x18(%ebp),%eax
c0108f58:	89 44 24 0c          	mov    %eax,0xc(%esp)
c0108f5c:	89 54 24 08          	mov    %edx,0x8(%esp)
c0108f60:	8b 45 ec             	mov    -0x14(%ebp),%eax
c0108f63:	89 44 24 04          	mov    %eax,0x4(%esp)
c0108f67:	c7 04 24 bc e9 10 c0 	movl   $0xc010e9bc,(%esp)
c0108f6e:	e8 d8 28 00 00       	call   c010b84b <printf>
c0108f73:	c7 45 e0 00 00 00 00 	movl   $0x0,-0x20(%ebp)
c0108f7a:	eb 06                	jmp    c0108f82 <pd_dump+0x8a>
c0108f7c:	eb 04                	jmp    c0108f82 <pd_dump+0x8a>
c0108f7e:	83 45 f4 01          	addl   $0x1,-0xc(%ebp)
c0108f82:	8b 45 f4             	mov    -0xc(%ebp),%eax
c0108f85:	8d 14 85 00 00 00 00 	lea    0x0(,%eax,4),%edx
c0108f8c:	8b 45 dc             	mov    -0x24(%ebp),%eax
c0108f8f:	01 d0                	add    %edx,%eax
c0108f91:	8b 00                	mov    (%eax),%eax
c0108f93:	83 e0 01             	and    $0x1,%eax
c0108f96:	85 c0                	test   %eax,%eax
c0108f98:	74 e4                	je     c0108f7e <pd_dump+0x86>
c0108f9a:	c7 44 24 08 00 00 00 	movl   $0x0,0x8(%esp)
c0108fa1:	00 
c0108fa2:	8b 45 f4             	mov    -0xc(%ebp),%eax
c0108fa5:	89 44 24 04          	mov    %eax,0x4(%esp)
c0108fa9:	8b 45 08             	mov    0x8(%ebp),%eax
c0108fac:	89 04 24             	mov    %eax,(%esp)
c0108faf:	e8 4f 19 00 00       	call   c010a903 <pt_get>
c0108fb4:	89 45 d8             	mov    %eax,-0x28(%ebp)
c0108fb7:	c7 45 f0 00 00 00 00 	movl   $0x0,-0x10(%ebp)
c0108fbe:	e9 6a 01 00 00       	jmp    c010912d <pd_dump+0x235>
c0108fc3:	83 7d e0 00          	cmpl   $0x0,-0x20(%ebp)
c0108fc7:	74 5d                	je     c0109026 <pd_dump+0x12e>
c0108fc9:	8b 45 f0             	mov    -0x10(%ebp),%eax
c0108fcc:	8d 14 85 00 00 00 00 	lea    0x0(,%eax,4),%edx
c0108fd3:	8b 45 d8             	mov    -0x28(%ebp),%eax
c0108fd6:	01 d0                	add    %edx,%eax
c0108fd8:	8b 00                	mov    (%eax),%eax
c0108fda:	83 e0 01             	and    $0x1,%eax
c0108fdd:	85 c0                	test   %eax,%eax
c0108fdf:	75 45                	jne    c0109026 <pd_dump+0x12e>
c0108fe1:	8b 45 e4             	mov    -0x1c(%ebp),%eax
c0108fe4:	c1 e0 0c             	shl    $0xc,%eax
c0108fe7:	89 c2                	mov    %eax,%edx
c0108fe9:	8b 45 e8             	mov    -0x18(%ebp),%eax
c0108fec:	01 d0                	add    %edx,%eax
c0108fee:	8b 55 e4             	mov    -0x1c(%ebp),%edx
c0108ff1:	89 d1                	mov    %edx,%ecx
c0108ff3:	c1 e1 0c             	shl    $0xc,%ecx
c0108ff6:	8b 55 ec             	mov    -0x14(%ebp),%edx
c0108ff9:	01 ca                	add    %ecx,%edx
c0108ffb:	89 44 24 10          	mov    %eax,0x10(%esp)
c0108fff:	8b 45 e8             	mov    -0x18(%ebp),%eax
c0109002:	89 44 24 0c          	mov    %eax,0xc(%esp)
c0109006:	89 54 24 08          	mov    %edx,0x8(%esp)
c010900a:	8b 45 ec             	mov    -0x14(%ebp),%eax
c010900d:	89 44 24 04          	mov    %eax,0x4(%esp)
c0109011:	c7 04 24 bc e9 10 c0 	movl   $0xc010e9bc,(%esp)
c0109018:	e8 2e 28 00 00       	call   c010b84b <printf>
c010901d:	c7 45 e0 00 00 00 00 	movl   $0x0,-0x20(%ebp)
c0109024:	eb 06                	jmp    c010902c <pd_dump+0x134>
c0109026:	eb 04                	jmp    c010902c <pd_dump+0x134>
c0109028:	83 45 f0 01          	addl   $0x1,-0x10(%ebp)
c010902c:	8b 45 f0             	mov    -0x10(%ebp),%eax
c010902f:	8d 14 85 00 00 00 00 	lea    0x0(,%eax,4),%edx
c0109036:	8b 45 d8             	mov    -0x28(%ebp),%eax
c0109039:	01 d0                	add    %edx,%eax
c010903b:	8b 00                	mov    (%eax),%eax
c010903d:	83 e0 01             	and    $0x1,%eax
c0109040:	85 c0                	test   %eax,%eax
c0109042:	74 e4                	je     c0109028 <pd_dump+0x130>
c0109044:	83 7d e0 00          	cmpl   $0x0,-0x20(%ebp)
c0109048:	75 3f                	jne    c0109089 <pd_dump+0x191>
c010904a:	c7 45 e0 01 00 00 00 	movl   $0x1,-0x20(%ebp)
c0109051:	8b 45 f0             	mov    -0x10(%ebp),%eax
c0109054:	8d 14 85 00 00 00 00 	lea    0x0(,%eax,4),%edx
c010905b:	8b 45 d8             	mov    -0x28(%ebp),%eax
c010905e:	01 d0                	add    %edx,%eax
c0109060:	8b 00                	mov    (%eax),%eax
c0109062:	25 00 f0 ff ff       	and    $0xfffff000,%eax
c0109067:	89 45 ec             	mov    %eax,-0x14(%ebp)
c010906a:	8b 45 f4             	mov    -0xc(%ebp),%eax
c010906d:	c1 e0 16             	shl    $0x16,%eax
c0109070:	89 c2                	mov    %eax,%edx
c0109072:	8b 45 f0             	mov    -0x10(%ebp),%eax
c0109075:	c1 e0 0c             	shl    $0xc,%eax
c0109078:	09 d0                	or     %edx,%eax
c010907a:	89 45 e8             	mov    %eax,-0x18(%ebp)
c010907d:	c7 45 e4 00 00 00 00 	movl   $0x0,-0x1c(%ebp)
c0109084:	e9 a0 00 00 00       	jmp    c0109129 <pd_dump+0x231>
c0109089:	8b 45 e4             	mov    -0x1c(%ebp),%eax
c010908c:	83 c0 01             	add    $0x1,%eax
c010908f:	c1 e0 0c             	shl    $0xc,%eax
c0109092:	89 c2                	mov    %eax,%edx
c0109094:	8b 45 ec             	mov    -0x14(%ebp),%eax
c0109097:	01 d0                	add    %edx,%eax
c0109099:	8b 55 f0             	mov    -0x10(%ebp),%edx
c010909c:	8d 0c 95 00 00 00 00 	lea    0x0(,%edx,4),%ecx
c01090a3:	8b 55 d8             	mov    -0x28(%ebp),%edx
c01090a6:	01 ca                	add    %ecx,%edx
c01090a8:	8b 12                	mov    (%edx),%edx
c01090aa:	81 e2 00 f0 ff ff    	and    $0xfffff000,%edx
c01090b0:	39 d0                	cmp    %edx,%eax
c01090b2:	75 06                	jne    c01090ba <pd_dump+0x1c2>
c01090b4:	83 45 e4 01          	addl   $0x1,-0x1c(%ebp)
c01090b8:	eb 6f                	jmp    c0109129 <pd_dump+0x231>
c01090ba:	8b 45 e4             	mov    -0x1c(%ebp),%eax
c01090bd:	c1 e0 0c             	shl    $0xc,%eax
c01090c0:	89 c2                	mov    %eax,%edx
c01090c2:	8b 45 e8             	mov    -0x18(%ebp),%eax
c01090c5:	01 d0                	add    %edx,%eax
c01090c7:	8b 55 e4             	mov    -0x1c(%ebp),%edx
c01090ca:	89 d1                	mov    %edx,%ecx
c01090cc:	c1 e1 0c             	shl    $0xc,%ecx
c01090cf:	8b 55 ec             	mov    -0x14(%ebp),%edx
c01090d2:	01 ca                	add    %ecx,%edx
c01090d4:	89 44 24 10          	mov    %eax,0x10(%esp)
c01090d8:	8b 45 e8             	mov    -0x18(%ebp),%eax
c01090db:	89 44 24 0c          	mov    %eax,0xc(%esp)
c01090df:	89 54 24 08          	mov    %edx,0x8(%esp)
c01090e3:	8b 45 ec             	mov    -0x14(%ebp),%eax
c01090e6:	89 44 24 04          	mov    %eax,0x4(%esp)
c01090ea:	c7 04 24 bc e9 10 c0 	movl   $0xc010e9bc,(%esp)
c01090f1:	e8 55 27 00 00       	call   c010b84b <printf>
c01090f6:	8b 45 f0             	mov    -0x10(%ebp),%eax
c01090f9:	8d 14 85 00 00 00 00 	lea    0x0(,%eax,4),%edx
c0109100:	8b 45 d8             	mov    -0x28(%ebp),%eax
c0109103:	01 d0                	add    %edx,%eax
c0109105:	8b 00                	mov    (%eax),%eax
c0109107:	25 00 f0 ff ff       	and    $0xfffff000,%eax
c010910c:	89 45 ec             	mov    %eax,-0x14(%ebp)
c010910f:	8b 45 f4             	mov    -0xc(%ebp),%eax
c0109112:	c1 e0 16             	shl    $0x16,%eax
c0109115:	89 c2                	mov    %eax,%edx
c0109117:	8b 45 f0             	mov    -0x10(%ebp),%eax
c010911a:	c1 e0 0c             	shl    $0xc,%eax
c010911d:	09 d0                	or     %edx,%eax
c010911f:	89 45 e8             	mov    %eax,-0x18(%ebp)
c0109122:	c7 45 e4 00 00 00 00 	movl   $0x0,-0x1c(%ebp)
c0109129:	83 45 f0 01          	addl   $0x1,-0x10(%ebp)
c010912d:	81 7d f0 ff 03 00 00 	cmpl   $0x3ff,-0x10(%ebp)
c0109134:	0f 8e 89 fe ff ff    	jle    c0108fc3 <pd_dump+0xcb>
c010913a:	83 45 f4 01          	addl   $0x1,-0xc(%ebp)
c010913e:	81 7d f4 ff 03 00 00 	cmpl   $0x3ff,-0xc(%ebp)
c0109145:	0f 8e ce fd ff ff    	jle    c0108f19 <pd_dump+0x21>
c010914b:	83 7d e0 00          	cmpl   $0x0,-0x20(%ebp)
c010914f:	74 3c                	je     c010918d <pd_dump+0x295>
c0109151:	8b 45 e4             	mov    -0x1c(%ebp),%eax
c0109154:	c1 e0 0c             	shl    $0xc,%eax
c0109157:	89 c2                	mov    %eax,%edx
c0109159:	8b 45 e8             	mov    -0x18(%ebp),%eax
c010915c:	01 d0                	add    %edx,%eax
c010915e:	8b 55 e4             	mov    -0x1c(%ebp),%edx
c0109161:	89 d1                	mov    %edx,%ecx
c0109163:	c1 e1 0c             	shl    $0xc,%ecx
c0109166:	8b 55 ec             	mov    -0x14(%ebp),%edx
c0109169:	01 ca                	add    %ecx,%edx
c010916b:	89 44 24 10          	mov    %eax,0x10(%esp)
c010916f:	8b 45 e8             	mov    -0x18(%ebp),%eax
c0109172:	89 44 24 0c          	mov    %eax,0xc(%esp)
c0109176:	89 54 24 08          	mov    %edx,0x8(%esp)
c010917a:	8b 45 ec             	mov    -0x14(%ebp),%eax
c010917d:	89 44 24 04          	mov    %eax,0x4(%esp)
c0109181:	c7 04 24 bc e9 10 c0 	movl   $0xc010e9bc,(%esp)
c0109188:	e8 be 26 00 00       	call   c010b84b <printf>
c010918d:	c9                   	leave  
c010918e:	c3                   	ret    

c010918f <pd_dump2>:
c010918f:	55                   	push   %ebp
c0109190:	89 e5                	mov    %esp,%ebp
c0109192:	83 ec 58             	sub    $0x58,%esp
c0109195:	c7 45 f4 00 00 00 00 	movl   $0x0,-0xc(%ebp)
c010919c:	c7 45 f0 00 00 00 00 	movl   $0x0,-0x10(%ebp)
c01091a3:	8b 45 08             	mov    0x8(%ebp),%eax
c01091a6:	8b 00                	mov    (%eax),%eax
c01091a8:	89 45 e0             	mov    %eax,-0x20(%ebp)
c01091ab:	c7 45 dc 00 00 00 00 	movl   $0x0,-0x24(%ebp)
c01091b2:	c7 45 ec 00 00 00 00 	movl   $0x0,-0x14(%ebp)
c01091b9:	c7 45 e8 00 00 00 00 	movl   $0x0,-0x18(%ebp)
c01091c0:	c7 45 e4 00 00 00 00 	movl   $0x0,-0x1c(%ebp)
c01091c7:	c7 45 d8 00 00 00 00 	movl   $0x0,-0x28(%ebp)
c01091ce:	c7 45 d4 00 00 00 00 	movl   $0x0,-0x2c(%ebp)
c01091d5:	c7 45 f4 00 00 00 00 	movl   $0x0,-0xc(%ebp)
c01091dc:	e9 33 02 00 00       	jmp    c0109414 <pd_dump2+0x285>
c01091e1:	8b 45 f4             	mov    -0xc(%ebp),%eax
c01091e4:	8d 14 85 00 00 00 00 	lea    0x0(,%eax,4),%edx
c01091eb:	8b 45 e0             	mov    -0x20(%ebp),%eax
c01091ee:	01 d0                	add    %edx,%eax
c01091f0:	8b 00                	mov    (%eax),%eax
c01091f2:	83 e0 01             	and    $0x1,%eax
c01091f5:	85 c0                	test   %eax,%eax
c01091f7:	0f 84 a2 01 00 00    	je     c010939f <pd_dump2+0x210>
c01091fd:	c7 44 24 08 01 00 00 	movl   $0x1,0x8(%esp)
c0109204:	00 
c0109205:	8b 45 f4             	mov    -0xc(%ebp),%eax
c0109208:	89 44 24 04          	mov    %eax,0x4(%esp)
c010920c:	8b 45 08             	mov    0x8(%ebp),%eax
c010920f:	89 04 24             	mov    %eax,(%esp)
c0109212:	e8 ec 16 00 00       	call   c010a903 <pt_get>
c0109217:	89 45 dc             	mov    %eax,-0x24(%ebp)
c010921a:	c7 45 f0 00 00 00 00 	movl   $0x0,-0x10(%ebp)
c0109221:	e9 6a 01 00 00       	jmp    c0109390 <pd_dump2+0x201>
c0109226:	8b 45 f0             	mov    -0x10(%ebp),%eax
c0109229:	8d 14 85 00 00 00 00 	lea    0x0(,%eax,4),%edx
c0109230:	8b 45 dc             	mov    -0x24(%ebp),%eax
c0109233:	01 d0                	add    %edx,%eax
c0109235:	8b 00                	mov    (%eax),%eax
c0109237:	89 45 d8             	mov    %eax,-0x28(%ebp)
c010923a:	8b 45 d8             	mov    -0x28(%ebp),%eax
c010923d:	83 e0 01             	and    $0x1,%eax
c0109240:	85 c0                	test   %eax,%eax
c0109242:	0f 84 d3 00 00 00    	je     c010931b <pd_dump2+0x18c>
c0109248:	8b 45 f0             	mov    -0x10(%ebp),%eax
c010924b:	8d 14 85 00 00 00 00 	lea    0x0(,%eax,4),%edx
c0109252:	8b 45 dc             	mov    -0x24(%ebp),%eax
c0109255:	01 d0                	add    %edx,%eax
c0109257:	8b 00                	mov    (%eax),%eax
c0109259:	25 00 f0 ff ff       	and    $0xfffff000,%eax
c010925e:	89 45 d4             	mov    %eax,-0x2c(%ebp)
c0109261:	83 7d e4 00          	cmpl   $0x0,-0x1c(%ebp)
c0109265:	75 25                	jne    c010928c <pd_dump2+0xfd>
c0109267:	8b 45 f4             	mov    -0xc(%ebp),%eax
c010926a:	c1 e0 0a             	shl    $0xa,%eax
c010926d:	89 c2                	mov    %eax,%edx
c010926f:	8b 45 f0             	mov    -0x10(%ebp),%eax
c0109272:	01 d0                	add    %edx,%eax
c0109274:	c1 e0 0c             	shl    $0xc,%eax
c0109277:	89 45 ec             	mov    %eax,-0x14(%ebp)
c010927a:	8b 45 d4             	mov    -0x2c(%ebp),%eax
c010927d:	89 45 e8             	mov    %eax,-0x18(%ebp)
c0109280:	c7 45 e4 01 00 00 00 	movl   $0x1,-0x1c(%ebp)
c0109287:	e9 00 01 00 00       	jmp    c010938c <pd_dump2+0x1fd>
c010928c:	8b 45 e4             	mov    -0x1c(%ebp),%eax
c010928f:	c1 e0 0c             	shl    $0xc,%eax
c0109292:	89 c2                	mov    %eax,%edx
c0109294:	8b 45 e8             	mov    -0x18(%ebp),%eax
c0109297:	01 d0                	add    %edx,%eax
c0109299:	3b 45 d4             	cmp    -0x2c(%ebp),%eax
c010929c:	74 77                	je     c0109315 <pd_dump2+0x186>
c010929e:	83 7d e4 00          	cmpl   $0x0,-0x1c(%ebp)
c01092a2:	0f 8e e4 00 00 00    	jle    c010938c <pd_dump2+0x1fd>
c01092a8:	83 7d e4 01          	cmpl   $0x1,-0x1c(%ebp)
c01092ac:	75 1c                	jne    c01092ca <pd_dump2+0x13b>
c01092ae:	8b 45 e8             	mov    -0x18(%ebp),%eax
c01092b1:	89 44 24 08          	mov    %eax,0x8(%esp)
c01092b5:	8b 45 ec             	mov    -0x14(%ebp),%eax
c01092b8:	89 44 24 04          	mov    %eax,0x4(%esp)
c01092bc:	c7 04 24 e0 e9 10 c0 	movl   $0xc010e9e0,(%esp)
c01092c3:	e8 83 25 00 00       	call   c010b84b <printf>
c01092c8:	eb 42                	jmp    c010930c <pd_dump2+0x17d>
c01092ca:	8b 45 e4             	mov    -0x1c(%ebp),%eax
c01092cd:	83 e8 01             	sub    $0x1,%eax
c01092d0:	c1 e0 0c             	shl    $0xc,%eax
c01092d3:	89 c2                	mov    %eax,%edx
c01092d5:	8b 45 e8             	mov    -0x18(%ebp),%eax
c01092d8:	01 d0                	add    %edx,%eax
c01092da:	8b 55 e4             	mov    -0x1c(%ebp),%edx
c01092dd:	83 ea 01             	sub    $0x1,%edx
c01092e0:	c1 e2 0c             	shl    $0xc,%edx
c01092e3:	89 d1                	mov    %edx,%ecx
c01092e5:	8b 55 ec             	mov    -0x14(%ebp),%edx
c01092e8:	01 ca                	add    %ecx,%edx
c01092ea:	89 44 24 10          	mov    %eax,0x10(%esp)
c01092ee:	8b 45 e8             	mov    -0x18(%ebp),%eax
c01092f1:	89 44 24 0c          	mov    %eax,0xc(%esp)
c01092f5:	89 54 24 08          	mov    %edx,0x8(%esp)
c01092f9:	8b 45 ec             	mov    -0x14(%ebp),%eax
c01092fc:	89 44 24 04          	mov    %eax,0x4(%esp)
c0109300:	c7 04 24 bc e9 10 c0 	movl   $0xc010e9bc,(%esp)
c0109307:	e8 3f 25 00 00       	call   c010b84b <printf>
c010930c:	c7 45 e4 00 00 00 00 	movl   $0x0,-0x1c(%ebp)
c0109313:	eb 77                	jmp    c010938c <pd_dump2+0x1fd>
c0109315:	83 45 e4 01          	addl   $0x1,-0x1c(%ebp)
c0109319:	eb 71                	jmp    c010938c <pd_dump2+0x1fd>
c010931b:	83 7d e4 00          	cmpl   $0x0,-0x1c(%ebp)
c010931f:	7e 6b                	jle    c010938c <pd_dump2+0x1fd>
c0109321:	83 7d e4 01          	cmpl   $0x1,-0x1c(%ebp)
c0109325:	75 1c                	jne    c0109343 <pd_dump2+0x1b4>
c0109327:	8b 45 e8             	mov    -0x18(%ebp),%eax
c010932a:	89 44 24 08          	mov    %eax,0x8(%esp)
c010932e:	8b 45 ec             	mov    -0x14(%ebp),%eax
c0109331:	89 44 24 04          	mov    %eax,0x4(%esp)
c0109335:	c7 04 24 e0 e9 10 c0 	movl   $0xc010e9e0,(%esp)
c010933c:	e8 0a 25 00 00       	call   c010b84b <printf>
c0109341:	eb 42                	jmp    c0109385 <pd_dump2+0x1f6>
c0109343:	8b 45 e4             	mov    -0x1c(%ebp),%eax
c0109346:	83 e8 01             	sub    $0x1,%eax
c0109349:	c1 e0 0c             	shl    $0xc,%eax
c010934c:	89 c2                	mov    %eax,%edx
c010934e:	8b 45 e8             	mov    -0x18(%ebp),%eax
c0109351:	01 d0                	add    %edx,%eax
c0109353:	8b 55 e4             	mov    -0x1c(%ebp),%edx
c0109356:	83 ea 01             	sub    $0x1,%edx
c0109359:	c1 e2 0c             	shl    $0xc,%edx
c010935c:	89 d1                	mov    %edx,%ecx
c010935e:	8b 55 ec             	mov    -0x14(%ebp),%edx
c0109361:	01 ca                	add    %ecx,%edx
c0109363:	89 44 24 10          	mov    %eax,0x10(%esp)
c0109367:	8b 45 e8             	mov    -0x18(%ebp),%eax
c010936a:	89 44 24 0c          	mov    %eax,0xc(%esp)
c010936e:	89 54 24 08          	mov    %edx,0x8(%esp)
c0109372:	8b 45 ec             	mov    -0x14(%ebp),%eax
c0109375:	89 44 24 04          	mov    %eax,0x4(%esp)
c0109379:	c7 04 24 bc e9 10 c0 	movl   $0xc010e9bc,(%esp)
c0109380:	e8 c6 24 00 00       	call   c010b84b <printf>
c0109385:	c7 45 e4 00 00 00 00 	movl   $0x0,-0x1c(%ebp)
c010938c:	83 45 f0 01          	addl   $0x1,-0x10(%ebp)
c0109390:	81 7d f0 ff 03 00 00 	cmpl   $0x3ff,-0x10(%ebp)
c0109397:	0f 8e 89 fe ff ff    	jle    c0109226 <pd_dump2+0x97>
c010939d:	eb 71                	jmp    c0109410 <pd_dump2+0x281>
c010939f:	83 7d e4 00          	cmpl   $0x0,-0x1c(%ebp)
c01093a3:	7e 6b                	jle    c0109410 <pd_dump2+0x281>
c01093a5:	83 7d e4 01          	cmpl   $0x1,-0x1c(%ebp)
c01093a9:	75 1c                	jne    c01093c7 <pd_dump2+0x238>
c01093ab:	8b 45 e8             	mov    -0x18(%ebp),%eax
c01093ae:	89 44 24 08          	mov    %eax,0x8(%esp)
c01093b2:	8b 45 ec             	mov    -0x14(%ebp),%eax
c01093b5:	89 44 24 04          	mov    %eax,0x4(%esp)
c01093b9:	c7 04 24 e0 e9 10 c0 	movl   $0xc010e9e0,(%esp)
c01093c0:	e8 86 24 00 00       	call   c010b84b <printf>
c01093c5:	eb 42                	jmp    c0109409 <pd_dump2+0x27a>
c01093c7:	8b 45 e4             	mov    -0x1c(%ebp),%eax
c01093ca:	83 e8 01             	sub    $0x1,%eax
c01093cd:	c1 e0 0c             	shl    $0xc,%eax
c01093d0:	89 c2                	mov    %eax,%edx
c01093d2:	8b 45 e8             	mov    -0x18(%ebp),%eax
c01093d5:	01 d0                	add    %edx,%eax
c01093d7:	8b 55 e4             	mov    -0x1c(%ebp),%edx
c01093da:	83 ea 01             	sub    $0x1,%edx
c01093dd:	c1 e2 0c             	shl    $0xc,%edx
c01093e0:	89 d1                	mov    %edx,%ecx
c01093e2:	8b 55 ec             	mov    -0x14(%ebp),%edx
c01093e5:	01 ca                	add    %ecx,%edx
c01093e7:	89 44 24 10          	mov    %eax,0x10(%esp)
c01093eb:	8b 45 e8             	mov    -0x18(%ebp),%eax
c01093ee:	89 44 24 0c          	mov    %eax,0xc(%esp)
c01093f2:	89 54 24 08          	mov    %edx,0x8(%esp)
c01093f6:	8b 45 ec             	mov    -0x14(%ebp),%eax
c01093f9:	89 44 24 04          	mov    %eax,0x4(%esp)
c01093fd:	c7 04 24 bc e9 10 c0 	movl   $0xc010e9bc,(%esp)
c0109404:	e8 42 24 00 00       	call   c010b84b <printf>
c0109409:	c7 45 e4 00 00 00 00 	movl   $0x0,-0x1c(%ebp)
c0109410:	83 45 f4 01          	addl   $0x1,-0xc(%ebp)
c0109414:	81 7d f4 ff 03 00 00 	cmpl   $0x3ff,-0xc(%ebp)
c010941b:	0f 8e c0 fd ff ff    	jle    c01091e1 <pd_dump2+0x52>
c0109421:	c9                   	leave  
c0109422:	c3                   	ret    

c0109423 <outb>:
c0109423:	55                   	push   %ebp
c0109424:	89 e5                	mov    %esp,%ebp
c0109426:	83 ec 08             	sub    $0x8,%esp
c0109429:	8b 55 08             	mov    0x8(%ebp),%edx
c010942c:	8b 45 0c             	mov    0xc(%ebp),%eax
c010942f:	66 89 55 fc          	mov    %dx,-0x4(%ebp)
c0109433:	88 45 f8             	mov    %al,-0x8(%ebp)
c0109436:	0f b7 55 fc          	movzwl -0x4(%ebp),%edx
c010943a:	0f b6 45 f8          	movzbl -0x8(%ebp),%eax
c010943e:	ee                   	out    %al,(%dx)
c010943f:	c9                   	leave  
c0109440:	c3                   	ret    

c0109441 <lidt>:
c0109441:	55                   	push   %ebp
c0109442:	89 e5                	mov    %esp,%ebp
c0109444:	83 ec 04             	sub    $0x4,%esp
c0109447:	8b 45 08             	mov    0x8(%ebp),%eax
c010944a:	66 89 45 fc          	mov    %ax,-0x4(%ebp)
c010944e:	0f b7 45 fc          	movzwl -0x4(%ebp),%eax
c0109452:	c1 e0 03             	shl    $0x3,%eax
c0109455:	83 e8 01             	sub    $0x1,%eax
c0109458:	66 a3 80 48 11 c0    	mov    %ax,0xc0114880
c010945e:	c7 05 82 48 11 c0 80 	movl   $0xc0114080,0xc0114882
c0109465:	40 11 c0 
c0109468:	0f 01 1d 80 48 11 c0 	lidtl  0xc0114880
c010946f:	c9                   	leave  
c0109470:	c3                   	ret    

c0109471 <EOI>:
c0109471:	55                   	push   %ebp
c0109472:	89 e5                	mov    %esp,%ebp
c0109474:	83 ec 08             	sub    $0x8,%esp
c0109477:	c7 44 24 04 20 00 00 	movl   $0x20,0x4(%esp)
c010947e:	00 
c010947f:	c7 04 24 20 00 00 00 	movl   $0x20,(%esp)
c0109486:	e8 98 ff ff ff       	call   c0109423 <outb>
c010948b:	83 7d 08 07          	cmpl   $0x7,0x8(%ebp)
c010948f:	7e 14                	jle    c01094a5 <EOI+0x34>
c0109491:	c7 44 24 04 20 00 00 	movl   $0x20,0x4(%esp)
c0109498:	00 
c0109499:	c7 04 24 a0 00 00 00 	movl   $0xa0,(%esp)
c01094a0:	e8 7e ff ff ff       	call   c0109423 <outb>
c01094a5:	c9                   	leave  
c01094a6:	c3                   	ret    

c01094a7 <pic_mask_irqs>:
c01094a7:	55                   	push   %ebp
c01094a8:	89 e5                	mov    %esp,%ebp
c01094aa:	83 ec 0c             	sub    $0xc,%esp
c01094ad:	8b 45 08             	mov    0x8(%ebp),%eax
c01094b0:	66 89 45 fc          	mov    %ax,-0x4(%ebp)
c01094b4:	0f b7 45 fc          	movzwl -0x4(%ebp),%eax
c01094b8:	0f b6 c0             	movzbl %al,%eax
c01094bb:	89 44 24 04          	mov    %eax,0x4(%esp)
c01094bf:	c7 04 24 21 00 00 00 	movl   $0x21,(%esp)
c01094c6:	e8 58 ff ff ff       	call   c0109423 <outb>
c01094cb:	0f b7 45 fc          	movzwl -0x4(%ebp),%eax
c01094cf:	0f b6 c0             	movzbl %al,%eax
c01094d2:	c1 f8 08             	sar    $0x8,%eax
c01094d5:	0f b6 c0             	movzbl %al,%eax
c01094d8:	89 44 24 04          	mov    %eax,0x4(%esp)
c01094dc:	c7 04 24 a1 00 00 00 	movl   $0xa1,(%esp)
c01094e3:	e8 3b ff ff ff       	call   c0109423 <outb>
c01094e8:	c9                   	leave  
c01094e9:	c3                   	ret    

c01094ea <Set_IDT_Entry>:
c01094ea:	55                   	push   %ebp
c01094eb:	89 e5                	mov    %esp,%ebp
c01094ed:	83 ec 08             	sub    $0x8,%esp
c01094f0:	8b 55 0c             	mov    0xc(%ebp),%edx
c01094f3:	8b 45 14             	mov    0x14(%ebp),%eax
c01094f6:	66 89 55 fc          	mov    %dx,-0x4(%ebp)
c01094fa:	66 89 45 f8          	mov    %ax,-0x8(%ebp)
c01094fe:	8b 45 10             	mov    0x10(%ebp),%eax
c0109501:	89 c2                	mov    %eax,%edx
c0109503:	8b 45 08             	mov    0x8(%ebp),%eax
c0109506:	66 89 14 c5 80 40 11 	mov    %dx,-0x3feebf80(,%eax,8)
c010950d:	c0 
c010950e:	8b 45 08             	mov    0x8(%ebp),%eax
c0109511:	0f b7 55 fc          	movzwl -0x4(%ebp),%edx
c0109515:	66 89 14 c5 82 40 11 	mov    %dx,-0x3feebf7e(,%eax,8)
c010951c:	c0 
c010951d:	8b 45 08             	mov    0x8(%ebp),%eax
c0109520:	0f b7 55 f8          	movzwl -0x8(%ebp),%edx
c0109524:	66 89 14 c5 84 40 11 	mov    %dx,-0x3feebf7c(,%eax,8)
c010952b:	c0 
c010952c:	8b 45 10             	mov    0x10(%ebp),%eax
c010952f:	c1 e8 10             	shr    $0x10,%eax
c0109532:	89 c2                	mov    %eax,%edx
c0109534:	8b 45 08             	mov    0x8(%ebp),%eax
c0109537:	66 89 14 c5 86 40 11 	mov    %dx,-0x3feebf7a(,%eax,8)
c010953e:	c0 
c010953f:	c9                   	leave  
c0109540:	c3                   	ret    

c0109541 <install_irq>:
c0109541:	55                   	push   %ebp
c0109542:	89 e5                	mov    %esp,%ebp
c0109544:	8b 45 08             	mov    0x8(%ebp),%eax
c0109547:	8b 04 85 a0 48 11 c0 	mov    -0x3feeb760(,%eax,4),%eax
c010954e:	85 c0                	test   %eax,%eax
c0109550:	74 07                	je     c0109559 <install_irq+0x18>
c0109552:	b8 00 00 00 00       	mov    $0x0,%eax
c0109557:	eb 12                	jmp    c010956b <install_irq+0x2a>
c0109559:	8b 55 0c             	mov    0xc(%ebp),%edx
c010955c:	8b 45 08             	mov    0x8(%ebp),%eax
c010955f:	89 14 85 a0 48 11 c0 	mov    %edx,-0x3feeb760(,%eax,4)
c0109566:	b8 01 00 00 00       	mov    $0x1,%eax
c010956b:	5d                   	pop    %ebp
c010956c:	c3                   	ret    

c010956d <install_exc>:
c010956d:	55                   	push   %ebp
c010956e:	89 e5                	mov    %esp,%ebp
c0109570:	8b 45 08             	mov    0x8(%ebp),%eax
c0109573:	8b 04 85 e0 48 11 c0 	mov    -0x3feeb720(,%eax,4),%eax
c010957a:	85 c0                	test   %eax,%eax
c010957c:	74 07                	je     c0109585 <install_exc+0x18>
c010957e:	b8 00 00 00 00       	mov    $0x0,%eax
c0109583:	eb 12                	jmp    c0109597 <install_exc+0x2a>
c0109585:	8b 55 0c             	mov    0xc(%ebp),%edx
c0109588:	8b 45 08             	mov    0x8(%ebp),%eax
c010958b:	89 14 85 e0 48 11 c0 	mov    %edx,-0x3feeb720(,%eax,4)
c0109592:	b8 01 00 00 00       	mov    $0x1,%eax
c0109597:	5d                   	pop    %ebp
c0109598:	c3                   	ret    

c0109599 <deinstall_irq>:
c0109599:	55                   	push   %ebp
c010959a:	89 e5                	mov    %esp,%ebp
c010959c:	8b 45 08             	mov    0x8(%ebp),%eax
c010959f:	c7 04 85 a0 48 11 c0 	movl   $0x0,-0x3feeb760(,%eax,4)
c01095a6:	00 00 00 00 
c01095aa:	5d                   	pop    %ebp
c01095ab:	c3                   	ret    

c01095ac <deinstall_exc>:
c01095ac:	55                   	push   %ebp
c01095ad:	89 e5                	mov    %esp,%ebp
c01095af:	8b 45 08             	mov    0x8(%ebp),%eax
c01095b2:	c7 04 85 e0 48 11 c0 	movl   $0x0,-0x3feeb720(,%eax,4)
c01095b9:	00 00 00 00 
c01095bd:	5d                   	pop    %ebp
c01095be:	c3                   	ret    

c01095bf <irq_handler>:
c01095bf:	55                   	push   %ebp
c01095c0:	89 e5                	mov    %esp,%ebp
c01095c2:	83 ec 28             	sub    $0x28,%esp
c01095c5:	8b 45 08             	mov    0x8(%ebp),%eax
c01095c8:	8b 40 2c             	mov    0x2c(%eax),%eax
c01095cb:	83 f8 1f             	cmp    $0x1f,%eax
c01095ce:	77 3e                	ja     c010960e <irq_handler+0x4f>
c01095d0:	8b 45 08             	mov    0x8(%ebp),%eax
c01095d3:	8b 40 2c             	mov    0x2c(%eax),%eax
c01095d6:	8b 04 85 e0 48 11 c0 	mov    -0x3feeb720(,%eax,4),%eax
c01095dd:	85 c0                	test   %eax,%eax
c01095df:	74 1d                	je     c01095fe <irq_handler+0x3f>
c01095e1:	8b 45 08             	mov    0x8(%ebp),%eax
c01095e4:	8b 40 2c             	mov    0x2c(%eax),%eax
c01095e7:	8b 04 85 e0 48 11 c0 	mov    -0x3feeb720(,%eax,4),%eax
c01095ee:	8d 55 08             	lea    0x8(%ebp),%edx
c01095f1:	89 14 24             	mov    %edx,(%esp)
c01095f4:	ff d0                	call   *%eax
c01095f6:	8b 45 08             	mov    0x8(%ebp),%eax
c01095f9:	e9 c8 00 00 00       	jmp    c01096c6 <irq_handler+0x107>
c01095fe:	8b 45 08             	mov    0x8(%ebp),%eax
c0109601:	89 04 24             	mov    %eax,(%esp)
c0109604:	e8 7f f0 ff ff       	call   c0108688 <exc_panic>
c0109609:	e9 b5 00 00 00       	jmp    c01096c3 <irq_handler+0x104>
c010960e:	8b 45 08             	mov    0x8(%ebp),%eax
c0109611:	8b 40 2c             	mov    0x2c(%eax),%eax
c0109614:	83 f8 20             	cmp    $0x20,%eax
c0109617:	75 13                	jne    c010962c <irq_handler+0x6d>
c0109619:	8b 45 08             	mov    0x8(%ebp),%eax
c010961c:	89 04 24             	mov    %eax,(%esp)
c010961f:	e8 d1 94 ff ff       	call   c0102af5 <task_schedule>
c0109624:	89 45 08             	mov    %eax,0x8(%ebp)
c0109627:	e9 97 00 00 00       	jmp    c01096c3 <irq_handler+0x104>
c010962c:	8b 45 08             	mov    0x8(%ebp),%eax
c010962f:	8b 40 2c             	mov    0x2c(%eax),%eax
c0109632:	83 f8 2d             	cmp    $0x2d,%eax
c0109635:	77 3c                	ja     c0109673 <irq_handler+0xb4>
c0109637:	8b 45 08             	mov    0x8(%ebp),%eax
c010963a:	8b 40 2c             	mov    0x2c(%eax),%eax
c010963d:	83 e8 20             	sub    $0x20,%eax
c0109640:	89 45 f4             	mov    %eax,-0xc(%ebp)
c0109643:	8b 45 f4             	mov    -0xc(%ebp),%eax
c0109646:	8b 04 85 a0 48 11 c0 	mov    -0x3feeb760(,%eax,4),%eax
c010964d:	85 c0                	test   %eax,%eax
c010964f:	74 12                	je     c0109663 <irq_handler+0xa4>
c0109651:	8b 45 f4             	mov    -0xc(%ebp),%eax
c0109654:	8b 04 85 a0 48 11 c0 	mov    -0x3feeb760(,%eax,4),%eax
c010965b:	8d 4d 08             	lea    0x8(%ebp),%ecx
c010965e:	89 0c 24             	mov    %ecx,(%esp)
c0109661:	ff d0                	call   *%eax
c0109663:	8b 45 f4             	mov    -0xc(%ebp),%eax
c0109666:	89 04 24             	mov    %eax,(%esp)
c0109669:	e8 03 fe ff ff       	call   c0109471 <EOI>
c010966e:	8b 45 08             	mov    0x8(%ebp),%eax
c0109671:	eb 53                	jmp    c01096c6 <irq_handler+0x107>
c0109673:	8b 45 08             	mov    0x8(%ebp),%eax
c0109676:	8b 40 2c             	mov    0x2c(%eax),%eax
c0109679:	83 f8 70             	cmp    $0x70,%eax
c010967c:	75 0d                	jne    c010968b <irq_handler+0xcc>
c010967e:	8d 45 08             	lea    0x8(%ebp),%eax
c0109681:	89 04 24             	mov    %eax,(%esp)
c0109684:	e8 c7 89 ff ff       	call   c0102050 <universe_syscall_handler>
c0109689:	eb 38                	jmp    c01096c3 <irq_handler+0x104>
c010968b:	8b 45 08             	mov    0x8(%ebp),%eax
c010968e:	8b 40 2c             	mov    0x2c(%eax),%eax
c0109691:	3d 80 00 00 00       	cmp    $0x80,%eax
c0109696:	75 0d                	jne    c01096a5 <irq_handler+0xe6>
c0109698:	8d 45 08             	lea    0x8(%ebp),%eax
c010969b:	89 04 24             	mov    %eax,(%esp)
c010969e:	e8 6e 89 ff ff       	call   c0102011 <linux_syscall_handler>
c01096a3:	eb 1e                	jmp    c01096c3 <irq_handler+0x104>
c01096a5:	8b 45 08             	mov    0x8(%ebp),%eax
c01096a8:	8b 40 2c             	mov    0x2c(%eax),%eax
c01096ab:	83 f8 32             	cmp    $0x32,%eax
c01096ae:	75 07                	jne    c01096b7 <irq_handler+0xf8>
c01096b0:	e8 63 a1 ff ff       	call   c0103818 <pci_irq_handler>
c01096b5:	eb 0c                	jmp    c01096c3 <irq_handler+0x104>
c01096b7:	c7 04 24 42 eb 10 c0 	movl   $0xc010eb42,(%esp)
c01096be:	e8 f7 ec ff ff       	call   c01083ba <panic>
c01096c3:	8b 45 08             	mov    0x8(%ebp),%eax
c01096c6:	c9                   	leave  
c01096c7:	c3                   	ret    

c01096c8 <remap_pic>:
c01096c8:	55                   	push   %ebp
c01096c9:	89 e5                	mov    %esp,%ebp
c01096cb:	83 ec 08             	sub    $0x8,%esp
c01096ce:	c7 44 24 04 11 00 00 	movl   $0x11,0x4(%esp)
c01096d5:	00 
c01096d6:	c7 04 24 20 00 00 00 	movl   $0x20,(%esp)
c01096dd:	e8 41 fd ff ff       	call   c0109423 <outb>
c01096e2:	c7 44 24 04 11 00 00 	movl   $0x11,0x4(%esp)
c01096e9:	00 
c01096ea:	c7 04 24 a0 00 00 00 	movl   $0xa0,(%esp)
c01096f1:	e8 2d fd ff ff       	call   c0109423 <outb>
c01096f6:	c7 44 24 04 20 00 00 	movl   $0x20,0x4(%esp)
c01096fd:	00 
c01096fe:	c7 04 24 21 00 00 00 	movl   $0x21,(%esp)
c0109705:	e8 19 fd ff ff       	call   c0109423 <outb>
c010970a:	c7 44 24 04 28 00 00 	movl   $0x28,0x4(%esp)
c0109711:	00 
c0109712:	c7 04 24 a1 00 00 00 	movl   $0xa1,(%esp)
c0109719:	e8 05 fd ff ff       	call   c0109423 <outb>
c010971e:	c7 44 24 04 04 00 00 	movl   $0x4,0x4(%esp)
c0109725:	00 
c0109726:	c7 04 24 21 00 00 00 	movl   $0x21,(%esp)
c010972d:	e8 f1 fc ff ff       	call   c0109423 <outb>
c0109732:	c7 44 24 04 02 00 00 	movl   $0x2,0x4(%esp)
c0109739:	00 
c010973a:	c7 04 24 a1 00 00 00 	movl   $0xa1,(%esp)
c0109741:	e8 dd fc ff ff       	call   c0109423 <outb>
c0109746:	c7 44 24 04 01 00 00 	movl   $0x1,0x4(%esp)
c010974d:	00 
c010974e:	c7 04 24 21 00 00 00 	movl   $0x21,(%esp)
c0109755:	e8 c9 fc ff ff       	call   c0109423 <outb>
c010975a:	c7 44 24 04 01 00 00 	movl   $0x1,0x4(%esp)
c0109761:	00 
c0109762:	c7 04 24 a1 00 00 00 	movl   $0xa1,(%esp)
c0109769:	e8 b5 fc ff ff       	call   c0109423 <outb>
c010976e:	c7 44 24 04 00 00 00 	movl   $0x0,0x4(%esp)
c0109775:	00 
c0109776:	c7 04 24 21 00 00 00 	movl   $0x21,(%esp)
c010977d:	e8 a1 fc ff ff       	call   c0109423 <outb>
c0109782:	c7 44 24 04 00 00 00 	movl   $0x0,0x4(%esp)
c0109789:	00 
c010978a:	c7 04 24 a1 00 00 00 	movl   $0xa1,(%esp)
c0109791:	e8 8d fc ff ff       	call   c0109423 <outb>
c0109796:	c9                   	leave  
c0109797:	c3                   	ret    

c0109798 <INIT_IDT>:
c0109798:	55                   	push   %ebp
c0109799:	89 e5                	mov    %esp,%ebp
c010979b:	83 ec 20             	sub    $0x20,%esp
c010979e:	e8 25 ff ff ff       	call   c01096c8 <remap_pic>
c01097a3:	c7 45 fc 00 00 00 00 	movl   $0x0,-0x4(%ebp)
c01097aa:	eb 28                	jmp    c01097d4 <INIT_IDT+0x3c>
c01097ac:	ba 8f d3 10 c0       	mov    $0xc010d38f,%edx
c01097b1:	8b 45 fc             	mov    -0x4(%ebp),%eax
c01097b4:	c7 44 24 0c 00 ee 00 	movl   $0xee00,0xc(%esp)
c01097bb:	00 
c01097bc:	89 54 24 08          	mov    %edx,0x8(%esp)
c01097c0:	c7 44 24 04 08 00 00 	movl   $0x8,0x4(%esp)
c01097c7:	00 
c01097c8:	89 04 24             	mov    %eax,(%esp)
c01097cb:	e8 1a fd ff ff       	call   c01094ea <Set_IDT_Entry>
c01097d0:	83 45 fc 01          	addl   $0x1,-0x4(%ebp)
c01097d4:	81 7d fc ff 00 00 00 	cmpl   $0xff,-0x4(%ebp)
c01097db:	7e cf                	jle    c01097ac <INIT_IDT+0x14>
c01097dd:	b8 80 d2 10 c0       	mov    $0xc010d280,%eax
c01097e2:	c7 44 24 0c 00 ee 00 	movl   $0xee00,0xc(%esp)
c01097e9:	00 
c01097ea:	89 44 24 08          	mov    %eax,0x8(%esp)
c01097ee:	c7 44 24 04 08 00 00 	movl   $0x8,0x4(%esp)
c01097f5:	00 
c01097f6:	c7 04 24 00 00 00 00 	movl   $0x0,(%esp)
c01097fd:	e8 e8 fc ff ff       	call   c01094ea <Set_IDT_Entry>
c0109802:	b8 89 d2 10 c0       	mov    $0xc010d289,%eax
c0109807:	c7 44 24 0c 00 ee 00 	movl   $0xee00,0xc(%esp)
c010980e:	00 
c010980f:	89 44 24 08          	mov    %eax,0x8(%esp)
c0109813:	c7 44 24 04 08 00 00 	movl   $0x8,0x4(%esp)
c010981a:	00 
c010981b:	c7 04 24 01 00 00 00 	movl   $0x1,(%esp)
c0109822:	e8 c3 fc ff ff       	call   c01094ea <Set_IDT_Entry>
c0109827:	b8 92 d2 10 c0       	mov    $0xc010d292,%eax
c010982c:	c7 44 24 0c 00 ee 00 	movl   $0xee00,0xc(%esp)
c0109833:	00 
c0109834:	89 44 24 08          	mov    %eax,0x8(%esp)
c0109838:	c7 44 24 04 08 00 00 	movl   $0x8,0x4(%esp)
c010983f:	00 
c0109840:	c7 04 24 02 00 00 00 	movl   $0x2,(%esp)
c0109847:	e8 9e fc ff ff       	call   c01094ea <Set_IDT_Entry>
c010984c:	b8 9b d2 10 c0       	mov    $0xc010d29b,%eax
c0109851:	c7 44 24 0c 00 ee 00 	movl   $0xee00,0xc(%esp)
c0109858:	00 
c0109859:	89 44 24 08          	mov    %eax,0x8(%esp)
c010985d:	c7 44 24 04 08 00 00 	movl   $0x8,0x4(%esp)
c0109864:	00 
c0109865:	c7 04 24 03 00 00 00 	movl   $0x3,(%esp)
c010986c:	e8 79 fc ff ff       	call   c01094ea <Set_IDT_Entry>
c0109871:	b8 a4 d2 10 c0       	mov    $0xc010d2a4,%eax
c0109876:	c7 44 24 0c 00 ee 00 	movl   $0xee00,0xc(%esp)
c010987d:	00 
c010987e:	89 44 24 08          	mov    %eax,0x8(%esp)
c0109882:	c7 44 24 04 08 00 00 	movl   $0x8,0x4(%esp)
c0109889:	00 
c010988a:	c7 04 24 04 00 00 00 	movl   $0x4,(%esp)
c0109891:	e8 54 fc ff ff       	call   c01094ea <Set_IDT_Entry>
c0109896:	b8 ad d2 10 c0       	mov    $0xc010d2ad,%eax
c010989b:	c7 44 24 0c 00 ee 00 	movl   $0xee00,0xc(%esp)
c01098a2:	00 
c01098a3:	89 44 24 08          	mov    %eax,0x8(%esp)
c01098a7:	c7 44 24 04 08 00 00 	movl   $0x8,0x4(%esp)
c01098ae:	00 
c01098af:	c7 04 24 05 00 00 00 	movl   $0x5,(%esp)
c01098b6:	e8 2f fc ff ff       	call   c01094ea <Set_IDT_Entry>
c01098bb:	b8 b6 d2 10 c0       	mov    $0xc010d2b6,%eax
c01098c0:	c7 44 24 0c 00 ee 00 	movl   $0xee00,0xc(%esp)
c01098c7:	00 
c01098c8:	89 44 24 08          	mov    %eax,0x8(%esp)
c01098cc:	c7 44 24 04 08 00 00 	movl   $0x8,0x4(%esp)
c01098d3:	00 
c01098d4:	c7 04 24 06 00 00 00 	movl   $0x6,(%esp)
c01098db:	e8 0a fc ff ff       	call   c01094ea <Set_IDT_Entry>
c01098e0:	b8 bf d2 10 c0       	mov    $0xc010d2bf,%eax
c01098e5:	c7 44 24 0c 00 ee 00 	movl   $0xee00,0xc(%esp)
c01098ec:	00 
c01098ed:	89 44 24 08          	mov    %eax,0x8(%esp)
c01098f1:	c7 44 24 04 08 00 00 	movl   $0x8,0x4(%esp)
c01098f8:	00 
c01098f9:	c7 04 24 07 00 00 00 	movl   $0x7,(%esp)
c0109900:	e8 e5 fb ff ff       	call   c01094ea <Set_IDT_Entry>
c0109905:	b8 c8 d2 10 c0       	mov    $0xc010d2c8,%eax
c010990a:	c7 44 24 0c 00 ee 00 	movl   $0xee00,0xc(%esp)
c0109911:	00 
c0109912:	89 44 24 08          	mov    %eax,0x8(%esp)
c0109916:	c7 44 24 04 08 00 00 	movl   $0x8,0x4(%esp)
c010991d:	00 
c010991e:	c7 04 24 08 00 00 00 	movl   $0x8,(%esp)
c0109925:	e8 c0 fb ff ff       	call   c01094ea <Set_IDT_Entry>
c010992a:	b8 cf d2 10 c0       	mov    $0xc010d2cf,%eax
c010992f:	c7 44 24 0c 00 ee 00 	movl   $0xee00,0xc(%esp)
c0109936:	00 
c0109937:	89 44 24 08          	mov    %eax,0x8(%esp)
c010993b:	c7 44 24 04 08 00 00 	movl   $0x8,0x4(%esp)
c0109942:	00 
c0109943:	c7 04 24 09 00 00 00 	movl   $0x9,(%esp)
c010994a:	e8 9b fb ff ff       	call   c01094ea <Set_IDT_Entry>
c010994f:	b8 d8 d2 10 c0       	mov    $0xc010d2d8,%eax
c0109954:	c7 44 24 0c 00 ee 00 	movl   $0xee00,0xc(%esp)
c010995b:	00 
c010995c:	89 44 24 08          	mov    %eax,0x8(%esp)
c0109960:	c7 44 24 04 08 00 00 	movl   $0x8,0x4(%esp)
c0109967:	00 
c0109968:	c7 04 24 0a 00 00 00 	movl   $0xa,(%esp)
c010996f:	e8 76 fb ff ff       	call   c01094ea <Set_IDT_Entry>
c0109974:	b8 df d2 10 c0       	mov    $0xc010d2df,%eax
c0109979:	c7 44 24 0c 00 ee 00 	movl   $0xee00,0xc(%esp)
c0109980:	00 
c0109981:	89 44 24 08          	mov    %eax,0x8(%esp)
c0109985:	c7 44 24 04 08 00 00 	movl   $0x8,0x4(%esp)
c010998c:	00 
c010998d:	c7 04 24 0b 00 00 00 	movl   $0xb,(%esp)
c0109994:	e8 51 fb ff ff       	call   c01094ea <Set_IDT_Entry>
c0109999:	b8 e6 d2 10 c0       	mov    $0xc010d2e6,%eax
c010999e:	c7 44 24 0c 00 ee 00 	movl   $0xee00,0xc(%esp)
c01099a5:	00 
c01099a6:	89 44 24 08          	mov    %eax,0x8(%esp)
c01099aa:	c7 44 24 04 08 00 00 	movl   $0x8,0x4(%esp)
c01099b1:	00 
c01099b2:	c7 04 24 0c 00 00 00 	movl   $0xc,(%esp)
c01099b9:	e8 2c fb ff ff       	call   c01094ea <Set_IDT_Entry>
c01099be:	b8 ed d2 10 c0       	mov    $0xc010d2ed,%eax
c01099c3:	c7 44 24 0c 00 ee 00 	movl   $0xee00,0xc(%esp)
c01099ca:	00 
c01099cb:	89 44 24 08          	mov    %eax,0x8(%esp)
c01099cf:	c7 44 24 04 08 00 00 	movl   $0x8,0x4(%esp)
c01099d6:	00 
c01099d7:	c7 04 24 0d 00 00 00 	movl   $0xd,(%esp)
c01099de:	e8 07 fb ff ff       	call   c01094ea <Set_IDT_Entry>
c01099e3:	b8 f4 d2 10 c0       	mov    $0xc010d2f4,%eax
c01099e8:	c7 44 24 0c 00 ee 00 	movl   $0xee00,0xc(%esp)
c01099ef:	00 
c01099f0:	89 44 24 08          	mov    %eax,0x8(%esp)
c01099f4:	c7 44 24 04 08 00 00 	movl   $0x8,0x4(%esp)
c01099fb:	00 
c01099fc:	c7 04 24 0e 00 00 00 	movl   $0xe,(%esp)
c0109a03:	e8 e2 fa ff ff       	call   c01094ea <Set_IDT_Entry>
c0109a08:	b8 fb d2 10 c0       	mov    $0xc010d2fb,%eax
c0109a0d:	c7 44 24 0c 00 ee 00 	movl   $0xee00,0xc(%esp)
c0109a14:	00 
c0109a15:	89 44 24 08          	mov    %eax,0x8(%esp)
c0109a19:	c7 44 24 04 08 00 00 	movl   $0x8,0x4(%esp)
c0109a20:	00 
c0109a21:	c7 04 24 0f 00 00 00 	movl   $0xf,(%esp)
c0109a28:	e8 bd fa ff ff       	call   c01094ea <Set_IDT_Entry>
c0109a2d:	b8 04 d3 10 c0       	mov    $0xc010d304,%eax
c0109a32:	c7 44 24 0c 00 ee 00 	movl   $0xee00,0xc(%esp)
c0109a39:	00 
c0109a3a:	89 44 24 08          	mov    %eax,0x8(%esp)
c0109a3e:	c7 44 24 04 08 00 00 	movl   $0x8,0x4(%esp)
c0109a45:	00 
c0109a46:	c7 04 24 10 00 00 00 	movl   $0x10,(%esp)
c0109a4d:	e8 98 fa ff ff       	call   c01094ea <Set_IDT_Entry>
c0109a52:	b8 0d d3 10 c0       	mov    $0xc010d30d,%eax
c0109a57:	c7 44 24 0c 00 ee 00 	movl   $0xee00,0xc(%esp)
c0109a5e:	00 
c0109a5f:	89 44 24 08          	mov    %eax,0x8(%esp)
c0109a63:	c7 44 24 04 08 00 00 	movl   $0x8,0x4(%esp)
c0109a6a:	00 
c0109a6b:	c7 04 24 11 00 00 00 	movl   $0x11,(%esp)
c0109a72:	e8 73 fa ff ff       	call   c01094ea <Set_IDT_Entry>
c0109a77:	b8 14 d3 10 c0       	mov    $0xc010d314,%eax
c0109a7c:	c7 44 24 0c 00 ee 00 	movl   $0xee00,0xc(%esp)
c0109a83:	00 
c0109a84:	89 44 24 08          	mov    %eax,0x8(%esp)
c0109a88:	c7 44 24 04 08 00 00 	movl   $0x8,0x4(%esp)
c0109a8f:	00 
c0109a90:	c7 04 24 12 00 00 00 	movl   $0x12,(%esp)
c0109a97:	e8 4e fa ff ff       	call   c01094ea <Set_IDT_Entry>
c0109a9c:	b8 1d d3 10 c0       	mov    $0xc010d31d,%eax
c0109aa1:	c7 44 24 0c 00 ee 00 	movl   $0xee00,0xc(%esp)
c0109aa8:	00 
c0109aa9:	89 44 24 08          	mov    %eax,0x8(%esp)
c0109aad:	c7 44 24 04 08 00 00 	movl   $0x8,0x4(%esp)
c0109ab4:	00 
c0109ab5:	c7 04 24 13 00 00 00 	movl   $0x13,(%esp)
c0109abc:	e8 29 fa ff ff       	call   c01094ea <Set_IDT_Entry>
c0109ac1:	b8 26 d3 10 c0       	mov    $0xc010d326,%eax
c0109ac6:	c7 44 24 0c 00 ee 00 	movl   $0xee00,0xc(%esp)
c0109acd:	00 
c0109ace:	89 44 24 08          	mov    %eax,0x8(%esp)
c0109ad2:	c7 44 24 04 08 00 00 	movl   $0x8,0x4(%esp)
c0109ad9:	00 
c0109ada:	c7 04 24 14 00 00 00 	movl   $0x14,(%esp)
c0109ae1:	e8 04 fa ff ff       	call   c01094ea <Set_IDT_Entry>
c0109ae6:	b8 2f d3 10 c0       	mov    $0xc010d32f,%eax
c0109aeb:	c7 44 24 0c 00 ee 00 	movl   $0xee00,0xc(%esp)
c0109af2:	00 
c0109af3:	89 44 24 08          	mov    %eax,0x8(%esp)
c0109af7:	c7 44 24 04 08 00 00 	movl   $0x8,0x4(%esp)
c0109afe:	00 
c0109aff:	c7 04 24 15 00 00 00 	movl   $0x15,(%esp)
c0109b06:	e8 df f9 ff ff       	call   c01094ea <Set_IDT_Entry>
c0109b0b:	b8 38 d3 10 c0       	mov    $0xc010d338,%eax
c0109b10:	c7 44 24 0c 00 ee 00 	movl   $0xee00,0xc(%esp)
c0109b17:	00 
c0109b18:	89 44 24 08          	mov    %eax,0x8(%esp)
c0109b1c:	c7 44 24 04 08 00 00 	movl   $0x8,0x4(%esp)
c0109b23:	00 
c0109b24:	c7 04 24 16 00 00 00 	movl   $0x16,(%esp)
c0109b2b:	e8 ba f9 ff ff       	call   c01094ea <Set_IDT_Entry>
c0109b30:	b8 41 d3 10 c0       	mov    $0xc010d341,%eax
c0109b35:	c7 44 24 0c 00 ee 00 	movl   $0xee00,0xc(%esp)
c0109b3c:	00 
c0109b3d:	89 44 24 08          	mov    %eax,0x8(%esp)
c0109b41:	c7 44 24 04 08 00 00 	movl   $0x8,0x4(%esp)
c0109b48:	00 
c0109b49:	c7 04 24 17 00 00 00 	movl   $0x17,(%esp)
c0109b50:	e8 95 f9 ff ff       	call   c01094ea <Set_IDT_Entry>
c0109b55:	b8 4a d3 10 c0       	mov    $0xc010d34a,%eax
c0109b5a:	c7 44 24 0c 00 ee 00 	movl   $0xee00,0xc(%esp)
c0109b61:	00 
c0109b62:	89 44 24 08          	mov    %eax,0x8(%esp)
c0109b66:	c7 44 24 04 08 00 00 	movl   $0x8,0x4(%esp)
c0109b6d:	00 
c0109b6e:	c7 04 24 18 00 00 00 	movl   $0x18,(%esp)
c0109b75:	e8 70 f9 ff ff       	call   c01094ea <Set_IDT_Entry>
c0109b7a:	b8 53 d3 10 c0       	mov    $0xc010d353,%eax
c0109b7f:	c7 44 24 0c 00 ee 00 	movl   $0xee00,0xc(%esp)
c0109b86:	00 
c0109b87:	89 44 24 08          	mov    %eax,0x8(%esp)
c0109b8b:	c7 44 24 04 08 00 00 	movl   $0x8,0x4(%esp)
c0109b92:	00 
c0109b93:	c7 04 24 19 00 00 00 	movl   $0x19,(%esp)
c0109b9a:	e8 4b f9 ff ff       	call   c01094ea <Set_IDT_Entry>
c0109b9f:	b8 5c d3 10 c0       	mov    $0xc010d35c,%eax
c0109ba4:	c7 44 24 0c 00 ee 00 	movl   $0xee00,0xc(%esp)
c0109bab:	00 
c0109bac:	89 44 24 08          	mov    %eax,0x8(%esp)
c0109bb0:	c7 44 24 04 08 00 00 	movl   $0x8,0x4(%esp)
c0109bb7:	00 
c0109bb8:	c7 04 24 1a 00 00 00 	movl   $0x1a,(%esp)
c0109bbf:	e8 26 f9 ff ff       	call   c01094ea <Set_IDT_Entry>
c0109bc4:	b8 65 d3 10 c0       	mov    $0xc010d365,%eax
c0109bc9:	c7 44 24 0c 00 ee 00 	movl   $0xee00,0xc(%esp)
c0109bd0:	00 
c0109bd1:	89 44 24 08          	mov    %eax,0x8(%esp)
c0109bd5:	c7 44 24 04 08 00 00 	movl   $0x8,0x4(%esp)
c0109bdc:	00 
c0109bdd:	c7 04 24 1b 00 00 00 	movl   $0x1b,(%esp)
c0109be4:	e8 01 f9 ff ff       	call   c01094ea <Set_IDT_Entry>
c0109be9:	b8 6e d3 10 c0       	mov    $0xc010d36e,%eax
c0109bee:	c7 44 24 0c 00 ee 00 	movl   $0xee00,0xc(%esp)
c0109bf5:	00 
c0109bf6:	89 44 24 08          	mov    %eax,0x8(%esp)
c0109bfa:	c7 44 24 04 08 00 00 	movl   $0x8,0x4(%esp)
c0109c01:	00 
c0109c02:	c7 04 24 1c 00 00 00 	movl   $0x1c,(%esp)
c0109c09:	e8 dc f8 ff ff       	call   c01094ea <Set_IDT_Entry>
c0109c0e:	b8 77 d3 10 c0       	mov    $0xc010d377,%eax
c0109c13:	c7 44 24 0c 00 ee 00 	movl   $0xee00,0xc(%esp)
c0109c1a:	00 
c0109c1b:	89 44 24 08          	mov    %eax,0x8(%esp)
c0109c1f:	c7 44 24 04 08 00 00 	movl   $0x8,0x4(%esp)
c0109c26:	00 
c0109c27:	c7 04 24 1d 00 00 00 	movl   $0x1d,(%esp)
c0109c2e:	e8 b7 f8 ff ff       	call   c01094ea <Set_IDT_Entry>
c0109c33:	b8 80 d3 10 c0       	mov    $0xc010d380,%eax
c0109c38:	c7 44 24 0c 00 ee 00 	movl   $0xee00,0xc(%esp)
c0109c3f:	00 
c0109c40:	89 44 24 08          	mov    %eax,0x8(%esp)
c0109c44:	c7 44 24 04 08 00 00 	movl   $0x8,0x4(%esp)
c0109c4b:	00 
c0109c4c:	c7 04 24 1e 00 00 00 	movl   $0x1e,(%esp)
c0109c53:	e8 92 f8 ff ff       	call   c01094ea <Set_IDT_Entry>
c0109c58:	b8 89 d3 10 c0       	mov    $0xc010d389,%eax
c0109c5d:	c7 44 24 0c 00 ee 00 	movl   $0xee00,0xc(%esp)
c0109c64:	00 
c0109c65:	89 44 24 08          	mov    %eax,0x8(%esp)
c0109c69:	c7 44 24 04 08 00 00 	movl   $0x8,0x4(%esp)
c0109c70:	00 
c0109c71:	c7 04 24 1f 00 00 00 	movl   $0x1f,(%esp)
c0109c78:	e8 6d f8 ff ff       	call   c01094ea <Set_IDT_Entry>
c0109c7d:	b8 95 d3 10 c0       	mov    $0xc010d395,%eax
c0109c82:	c7 44 24 0c 00 ee 00 	movl   $0xee00,0xc(%esp)
c0109c89:	00 
c0109c8a:	89 44 24 08          	mov    %eax,0x8(%esp)
c0109c8e:	c7 44 24 04 08 00 00 	movl   $0x8,0x4(%esp)
c0109c95:	00 
c0109c96:	c7 04 24 20 00 00 00 	movl   $0x20,(%esp)
c0109c9d:	e8 48 f8 ff ff       	call   c01094ea <Set_IDT_Entry>
c0109ca2:	b8 9b d3 10 c0       	mov    $0xc010d39b,%eax
c0109ca7:	c7 44 24 0c 00 ee 00 	movl   $0xee00,0xc(%esp)
c0109cae:	00 
c0109caf:	89 44 24 08          	mov    %eax,0x8(%esp)
c0109cb3:	c7 44 24 04 08 00 00 	movl   $0x8,0x4(%esp)
c0109cba:	00 
c0109cbb:	c7 04 24 21 00 00 00 	movl   $0x21,(%esp)
c0109cc2:	e8 23 f8 ff ff       	call   c01094ea <Set_IDT_Entry>
c0109cc7:	b8 a1 d3 10 c0       	mov    $0xc010d3a1,%eax
c0109ccc:	c7 44 24 0c 00 ee 00 	movl   $0xee00,0xc(%esp)
c0109cd3:	00 
c0109cd4:	89 44 24 08          	mov    %eax,0x8(%esp)
c0109cd8:	c7 44 24 04 08 00 00 	movl   $0x8,0x4(%esp)
c0109cdf:	00 
c0109ce0:	c7 04 24 22 00 00 00 	movl   $0x22,(%esp)
c0109ce7:	e8 fe f7 ff ff       	call   c01094ea <Set_IDT_Entry>
c0109cec:	b8 a7 d3 10 c0       	mov    $0xc010d3a7,%eax
c0109cf1:	c7 44 24 0c 00 ee 00 	movl   $0xee00,0xc(%esp)
c0109cf8:	00 
c0109cf9:	89 44 24 08          	mov    %eax,0x8(%esp)
c0109cfd:	c7 44 24 04 08 00 00 	movl   $0x8,0x4(%esp)
c0109d04:	00 
c0109d05:	c7 04 24 23 00 00 00 	movl   $0x23,(%esp)
c0109d0c:	e8 d9 f7 ff ff       	call   c01094ea <Set_IDT_Entry>
c0109d11:	b8 ad d3 10 c0       	mov    $0xc010d3ad,%eax
c0109d16:	c7 44 24 0c 00 ee 00 	movl   $0xee00,0xc(%esp)
c0109d1d:	00 
c0109d1e:	89 44 24 08          	mov    %eax,0x8(%esp)
c0109d22:	c7 44 24 04 08 00 00 	movl   $0x8,0x4(%esp)
c0109d29:	00 
c0109d2a:	c7 04 24 24 00 00 00 	movl   $0x24,(%esp)
c0109d31:	e8 b4 f7 ff ff       	call   c01094ea <Set_IDT_Entry>
c0109d36:	b8 b3 d3 10 c0       	mov    $0xc010d3b3,%eax
c0109d3b:	c7 44 24 0c 00 ee 00 	movl   $0xee00,0xc(%esp)
c0109d42:	00 
c0109d43:	89 44 24 08          	mov    %eax,0x8(%esp)
c0109d47:	c7 44 24 04 08 00 00 	movl   $0x8,0x4(%esp)
c0109d4e:	00 
c0109d4f:	c7 04 24 25 00 00 00 	movl   $0x25,(%esp)
c0109d56:	e8 8f f7 ff ff       	call   c01094ea <Set_IDT_Entry>
c0109d5b:	b8 b9 d3 10 c0       	mov    $0xc010d3b9,%eax
c0109d60:	c7 44 24 0c 00 ee 00 	movl   $0xee00,0xc(%esp)
c0109d67:	00 
c0109d68:	89 44 24 08          	mov    %eax,0x8(%esp)
c0109d6c:	c7 44 24 04 08 00 00 	movl   $0x8,0x4(%esp)
c0109d73:	00 
c0109d74:	c7 04 24 26 00 00 00 	movl   $0x26,(%esp)
c0109d7b:	e8 6a f7 ff ff       	call   c01094ea <Set_IDT_Entry>
c0109d80:	b8 bf d3 10 c0       	mov    $0xc010d3bf,%eax
c0109d85:	c7 44 24 0c 00 ee 00 	movl   $0xee00,0xc(%esp)
c0109d8c:	00 
c0109d8d:	89 44 24 08          	mov    %eax,0x8(%esp)
c0109d91:	c7 44 24 04 08 00 00 	movl   $0x8,0x4(%esp)
c0109d98:	00 
c0109d99:	c7 04 24 27 00 00 00 	movl   $0x27,(%esp)
c0109da0:	e8 45 f7 ff ff       	call   c01094ea <Set_IDT_Entry>
c0109da5:	b8 c5 d3 10 c0       	mov    $0xc010d3c5,%eax
c0109daa:	c7 44 24 0c 00 ee 00 	movl   $0xee00,0xc(%esp)
c0109db1:	00 
c0109db2:	89 44 24 08          	mov    %eax,0x8(%esp)
c0109db6:	c7 44 24 04 08 00 00 	movl   $0x8,0x4(%esp)
c0109dbd:	00 
c0109dbe:	c7 04 24 28 00 00 00 	movl   $0x28,(%esp)
c0109dc5:	e8 20 f7 ff ff       	call   c01094ea <Set_IDT_Entry>
c0109dca:	b8 cb d3 10 c0       	mov    $0xc010d3cb,%eax
c0109dcf:	c7 44 24 0c 00 ee 00 	movl   $0xee00,0xc(%esp)
c0109dd6:	00 
c0109dd7:	89 44 24 08          	mov    %eax,0x8(%esp)
c0109ddb:	c7 44 24 04 08 00 00 	movl   $0x8,0x4(%esp)
c0109de2:	00 
c0109de3:	c7 04 24 29 00 00 00 	movl   $0x29,(%esp)
c0109dea:	e8 fb f6 ff ff       	call   c01094ea <Set_IDT_Entry>
c0109def:	b8 d1 d3 10 c0       	mov    $0xc010d3d1,%eax
c0109df4:	c7 44 24 0c 00 ee 00 	movl   $0xee00,0xc(%esp)
c0109dfb:	00 
c0109dfc:	89 44 24 08          	mov    %eax,0x8(%esp)
c0109e00:	c7 44 24 04 08 00 00 	movl   $0x8,0x4(%esp)
c0109e07:	00 
c0109e08:	c7 04 24 2a 00 00 00 	movl   $0x2a,(%esp)
c0109e0f:	e8 d6 f6 ff ff       	call   c01094ea <Set_IDT_Entry>
c0109e14:	b8 d7 d3 10 c0       	mov    $0xc010d3d7,%eax
c0109e19:	c7 44 24 0c 00 ee 00 	movl   $0xee00,0xc(%esp)
c0109e20:	00 
c0109e21:	89 44 24 08          	mov    %eax,0x8(%esp)
c0109e25:	c7 44 24 04 08 00 00 	movl   $0x8,0x4(%esp)
c0109e2c:	00 
c0109e2d:	c7 04 24 2b 00 00 00 	movl   $0x2b,(%esp)
c0109e34:	e8 b1 f6 ff ff       	call   c01094ea <Set_IDT_Entry>
c0109e39:	b8 dd d3 10 c0       	mov    $0xc010d3dd,%eax
c0109e3e:	c7 44 24 0c 00 ee 00 	movl   $0xee00,0xc(%esp)
c0109e45:	00 
c0109e46:	89 44 24 08          	mov    %eax,0x8(%esp)
c0109e4a:	c7 44 24 04 08 00 00 	movl   $0x8,0x4(%esp)
c0109e51:	00 
c0109e52:	c7 04 24 2c 00 00 00 	movl   $0x2c,(%esp)
c0109e59:	e8 8c f6 ff ff       	call   c01094ea <Set_IDT_Entry>
c0109e5e:	b8 e3 d3 10 c0       	mov    $0xc010d3e3,%eax
c0109e63:	c7 44 24 0c 00 ee 00 	movl   $0xee00,0xc(%esp)
c0109e6a:	00 
c0109e6b:	89 44 24 08          	mov    %eax,0x8(%esp)
c0109e6f:	c7 44 24 04 08 00 00 	movl   $0x8,0x4(%esp)
c0109e76:	00 
c0109e77:	c7 04 24 2d 00 00 00 	movl   $0x2d,(%esp)
c0109e7e:	e8 67 f6 ff ff       	call   c01094ea <Set_IDT_Entry>
c0109e83:	b8 e9 d3 10 c0       	mov    $0xc010d3e9,%eax
c0109e88:	c7 44 24 0c 00 ee 00 	movl   $0xee00,0xc(%esp)
c0109e8f:	00 
c0109e90:	89 44 24 08          	mov    %eax,0x8(%esp)
c0109e94:	c7 44 24 04 08 00 00 	movl   $0x8,0x4(%esp)
c0109e9b:	00 
c0109e9c:	c7 04 24 2e 00 00 00 	movl   $0x2e,(%esp)
c0109ea3:	e8 42 f6 ff ff       	call   c01094ea <Set_IDT_Entry>
c0109ea8:	b8 ef d3 10 c0       	mov    $0xc010d3ef,%eax
c0109ead:	c7 44 24 0c 00 ee 00 	movl   $0xee00,0xc(%esp)
c0109eb4:	00 
c0109eb5:	89 44 24 08          	mov    %eax,0x8(%esp)
c0109eb9:	c7 44 24 04 08 00 00 	movl   $0x8,0x4(%esp)
c0109ec0:	00 
c0109ec1:	c7 04 24 2f 00 00 00 	movl   $0x2f,(%esp)
c0109ec8:	e8 1d f6 ff ff       	call   c01094ea <Set_IDT_Entry>
c0109ecd:	b8 f5 d3 10 c0       	mov    $0xc010d3f5,%eax
c0109ed2:	c7 44 24 0c 00 ee 00 	movl   $0xee00,0xc(%esp)
c0109ed9:	00 
c0109eda:	89 44 24 08          	mov    %eax,0x8(%esp)
c0109ede:	c7 44 24 04 08 00 00 	movl   $0x8,0x4(%esp)
c0109ee5:	00 
c0109ee6:	c7 04 24 70 00 00 00 	movl   $0x70,(%esp)
c0109eed:	e8 f8 f5 ff ff       	call   c01094ea <Set_IDT_Entry>
c0109ef2:	b8 fb d3 10 c0       	mov    $0xc010d3fb,%eax
c0109ef7:	c7 44 24 0c 00 ee 00 	movl   $0xee00,0xc(%esp)
c0109efe:	00 
c0109eff:	89 44 24 08          	mov    %eax,0x8(%esp)
c0109f03:	c7 44 24 04 08 00 00 	movl   $0x8,0x4(%esp)
c0109f0a:	00 
c0109f0b:	c7 04 24 80 00 00 00 	movl   $0x80,(%esp)
c0109f12:	e8 d3 f5 ff ff       	call   c01094ea <Set_IDT_Entry>
c0109f17:	c7 04 24 81 00 00 00 	movl   $0x81,(%esp)
c0109f1e:	e8 1e f5 ff ff       	call   c0109441 <lidt>
c0109f23:	c9                   	leave  
c0109f24:	c3                   	ret    

c0109f25 <lock>:
c0109f25:	55                   	push   %ebp
c0109f26:	89 e5                	mov    %esp,%ebp
c0109f28:	8b 45 08             	mov    0x8(%ebp),%eax
c0109f2b:	b8 01 00 00 00       	mov    $0x1,%eax
c0109f30:	87 00                	xchg   %eax,(%eax)
c0109f32:	5d                   	pop    %ebp
c0109f33:	c3                   	ret    

c0109f34 <unlock>:
c0109f34:	55                   	push   %ebp
c0109f35:	89 e5                	mov    %esp,%ebp
c0109f37:	8b 45 08             	mov    0x8(%ebp),%eax
c0109f3a:	b8 00 00 00 00       	mov    $0x0,%eax
c0109f3f:	87 00                	xchg   %eax,(%eax)
c0109f41:	5d                   	pop    %ebp
c0109f42:	c3                   	ret    

c0109f43 <try_lock>:
c0109f43:	55                   	push   %ebp
c0109f44:	89 e5                	mov    %esp,%ebp
c0109f46:	83 ec 10             	sub    $0x10,%esp
c0109f49:	8b 45 08             	mov    0x8(%ebp),%eax
c0109f4c:	b8 01 00 00 00       	mov    $0x1,%eax
c0109f51:	90                   	nop
c0109f52:	89 45 fc             	mov    %eax,-0x4(%ebp)
c0109f55:	83 7d fc 00          	cmpl   $0x0,-0x4(%ebp)
c0109f59:	0f 94 c0             	sete   %al
c0109f5c:	0f b6 c0             	movzbl %al,%eax
c0109f5f:	c9                   	leave  
c0109f60:	c3                   	ret    

c0109f61 <halt>:
c0109f61:	55                   	push   %ebp
c0109f62:	89 e5                	mov    %esp,%ebp
c0109f64:	fa                   	cli    
c0109f65:	f4                   	hlt    
c0109f66:	eb fc                	jmp    c0109f64 <halt+0x3>

c0109f68 <cpuid>:
c0109f68:	55                   	push   %ebp
c0109f69:	89 e5                	mov    %esp,%ebp
c0109f6b:	56                   	push   %esi
c0109f6c:	53                   	push   %ebx
c0109f6d:	8b 45 08             	mov    0x8(%ebp),%eax
c0109f70:	0f a2                	cpuid  
c0109f72:	89 c6                	mov    %eax,%esi
c0109f74:	8b 45 0c             	mov    0xc(%ebp),%eax
c0109f77:	89 30                	mov    %esi,(%eax)
c0109f79:	8b 45 0c             	mov    0xc(%ebp),%eax
c0109f7c:	89 58 04             	mov    %ebx,0x4(%eax)
c0109f7f:	8b 45 0c             	mov    0xc(%ebp),%eax
c0109f82:	89 48 08             	mov    %ecx,0x8(%eax)
c0109f85:	8b 45 0c             	mov    0xc(%ebp),%eax
c0109f88:	89 50 0c             	mov    %edx,0xc(%eax)
c0109f8b:	5b                   	pop    %ebx
c0109f8c:	5e                   	pop    %esi
c0109f8d:	5d                   	pop    %ebp
c0109f8e:	c3                   	ret    

c0109f8f <identify_cpu>:
c0109f8f:	55                   	push   %ebp
c0109f90:	89 e5                	mov    %esp,%ebp
c0109f92:	57                   	push   %edi
c0109f93:	53                   	push   %ebx
c0109f94:	83 ec 30             	sub    $0x30,%esp
c0109f97:	9c                   	pushf  
c0109f98:	59                   	pop    %ecx
c0109f99:	89 c8                	mov    %ecx,%eax
c0109f9b:	35 00 00 20 00       	xor    $0x200000,%eax
c0109fa0:	50                   	push   %eax
c0109fa1:	9d                   	popf   
c0109fa2:	9c                   	pushf  
c0109fa3:	58                   	pop    %eax
c0109fa4:	89 ca                	mov    %ecx,%edx
c0109fa6:	89 45 f0             	mov    %eax,-0x10(%ebp)
c0109fa9:	89 55 ec             	mov    %edx,-0x14(%ebp)
c0109fac:	8b 45 f0             	mov    -0x10(%ebp),%eax
c0109faf:	3b 45 ec             	cmp    -0x14(%ebp),%eax
c0109fb2:	75 13                	jne    c0109fc7 <identify_cpu+0x38>
c0109fb4:	8b 45 08             	mov    0x8(%ebp),%eax
c0109fb7:	c7 00 00 00 00 00    	movl   $0x0,(%eax)
c0109fbd:	b8 01 00 00 00       	mov    $0x1,%eax
c0109fc2:	e9 27 04 00 00       	jmp    c010a3ee <identify_cpu+0x45f>
c0109fc7:	8b 45 08             	mov    0x8(%ebp),%eax
c0109fca:	c7 00 01 00 00 00    	movl   $0x1,(%eax)
c0109fd0:	8d 45 dc             	lea    -0x24(%ebp),%eax
c0109fd3:	89 44 24 04          	mov    %eax,0x4(%esp)
c0109fd7:	c7 04 24 00 00 00 00 	movl   $0x0,(%esp)
c0109fde:	e8 85 ff ff ff       	call   c0109f68 <cpuid>
c0109fe3:	8b 45 08             	mov    0x8(%ebp),%eax
c0109fe6:	83 c0 10             	add    $0x10,%eax
c0109fe9:	c7 44 24 08 04 00 00 	movl   $0x4,0x8(%esp)
c0109ff0:	00 
c0109ff1:	8d 55 dc             	lea    -0x24(%ebp),%edx
c0109ff4:	83 c2 04             	add    $0x4,%edx
c0109ff7:	89 54 24 04          	mov    %edx,0x4(%esp)
c0109ffb:	89 04 24             	mov    %eax,(%esp)
c0109ffe:	e8 8e 23 00 00       	call   c010c391 <strncpy>
c010a003:	8b 45 08             	mov    0x8(%ebp),%eax
c010a006:	83 c0 14             	add    $0x14,%eax
c010a009:	c7 44 24 08 04 00 00 	movl   $0x4,0x8(%esp)
c010a010:	00 
c010a011:	8d 55 dc             	lea    -0x24(%ebp),%edx
c010a014:	83 c2 0c             	add    $0xc,%edx
c010a017:	89 54 24 04          	mov    %edx,0x4(%esp)
c010a01b:	89 04 24             	mov    %eax,(%esp)
c010a01e:	e8 6e 23 00 00       	call   c010c391 <strncpy>
c010a023:	8b 45 08             	mov    0x8(%ebp),%eax
c010a026:	83 c0 18             	add    $0x18,%eax
c010a029:	c7 44 24 08 04 00 00 	movl   $0x4,0x8(%esp)
c010a030:	00 
c010a031:	8d 55 dc             	lea    -0x24(%ebp),%edx
c010a034:	83 c2 08             	add    $0x8,%edx
c010a037:	89 54 24 04          	mov    %edx,0x4(%esp)
c010a03b:	89 04 24             	mov    %eax,(%esp)
c010a03e:	e8 4e 23 00 00       	call   c010c391 <strncpy>
c010a043:	c7 45 f4 00 00 00 00 	movl   $0x0,-0xc(%ebp)
c010a04a:	eb 04                	jmp    c010a050 <identify_cpu+0xc1>
c010a04c:	83 45 f4 01          	addl   $0x1,-0xc(%ebp)
c010a050:	8b 45 f4             	mov    -0xc(%ebp),%eax
c010a053:	8b 04 85 a0 23 11 c0 	mov    -0x3feedc60(,%eax,4),%eax
c010a05a:	8b 55 08             	mov    0x8(%ebp),%edx
c010a05d:	83 c2 10             	add    $0x10,%edx
c010a060:	c7 44 24 08 0c 00 00 	movl   $0xc,0x8(%esp)
c010a067:	00 
c010a068:	89 44 24 04          	mov    %eax,0x4(%esp)
c010a06c:	89 14 24             	mov    %edx,(%esp)
c010a06f:	e8 85 24 00 00       	call   c010c4f9 <strncmp>
c010a074:	85 c0                	test   %eax,%eax
c010a076:	74 06                	je     c010a07e <identify_cpu+0xef>
c010a078:	83 7d f4 0e          	cmpl   $0xe,-0xc(%ebp)
c010a07c:	76 ce                	jbe    c010a04c <identify_cpu+0xbd>
c010a07e:	8b 45 08             	mov    0x8(%ebp),%eax
c010a081:	8b 55 f4             	mov    -0xc(%ebp),%edx
c010a084:	89 50 04             	mov    %edx,0x4(%eax)
c010a087:	8b 55 dc             	mov    -0x24(%ebp),%edx
c010a08a:	8b 45 08             	mov    0x8(%ebp),%eax
c010a08d:	89 50 08             	mov    %edx,0x8(%eax)
c010a090:	8d 45 dc             	lea    -0x24(%ebp),%eax
c010a093:	89 44 24 04          	mov    %eax,0x4(%esp)
c010a097:	c7 04 24 00 00 00 80 	movl   $0x80000000,(%esp)
c010a09e:	e8 c5 fe ff ff       	call   c0109f68 <cpuid>
c010a0a3:	8b 55 dc             	mov    -0x24(%ebp),%edx
c010a0a6:	8b 45 08             	mov    0x8(%ebp),%eax
c010a0a9:	89 50 0c             	mov    %edx,0xc(%eax)
c010a0ac:	8d 45 dc             	lea    -0x24(%ebp),%eax
c010a0af:	89 44 24 04          	mov    %eax,0x4(%esp)
c010a0b3:	c7 04 24 01 00 00 00 	movl   $0x1,(%esp)
c010a0ba:	e8 a9 fe ff ff       	call   c0109f68 <cpuid>
c010a0bf:	8b 45 dc             	mov    -0x24(%ebp),%eax
c010a0c2:	25 00 00 f0 0f       	and    $0xff00000,%eax
c010a0c7:	c1 e8 10             	shr    $0x10,%eax
c010a0ca:	89 c2                	mov    %eax,%edx
c010a0cc:	8b 45 dc             	mov    -0x24(%ebp),%eax
c010a0cf:	25 00 0f 00 00       	and    $0xf00,%eax
c010a0d4:	c1 e8 08             	shr    $0x8,%eax
c010a0d7:	09 c2                	or     %eax,%edx
c010a0d9:	8b 45 08             	mov    0x8(%ebp),%eax
c010a0dc:	88 50 1d             	mov    %dl,0x1d(%eax)
c010a0df:	8b 45 dc             	mov    -0x24(%ebp),%eax
c010a0e2:	25 00 00 0f 00       	and    $0xf0000,%eax
c010a0e7:	c1 e8 0c             	shr    $0xc,%eax
c010a0ea:	89 c2                	mov    %eax,%edx
c010a0ec:	8b 45 dc             	mov    -0x24(%ebp),%eax
c010a0ef:	25 f0 00 00 00       	and    $0xf0,%eax
c010a0f4:	c1 e8 04             	shr    $0x4,%eax
c010a0f7:	09 c2                	or     %eax,%edx
c010a0f9:	8b 45 08             	mov    0x8(%ebp),%eax
c010a0fc:	88 50 1e             	mov    %dl,0x1e(%eax)
c010a0ff:	8b 45 dc             	mov    -0x24(%ebp),%eax
c010a102:	83 e0 0f             	and    $0xf,%eax
c010a105:	89 c2                	mov    %eax,%edx
c010a107:	8b 45 08             	mov    0x8(%ebp),%eax
c010a10a:	88 50 1f             	mov    %dl,0x1f(%eax)
c010a10d:	8b 45 dc             	mov    -0x24(%ebp),%eax
c010a110:	25 00 30 00 00       	and    $0x3000,%eax
c010a115:	c1 e8 0c             	shr    $0xc,%eax
c010a118:	89 c2                	mov    %eax,%edx
c010a11a:	8b 45 08             	mov    0x8(%ebp),%eax
c010a11d:	88 50 20             	mov    %dl,0x20(%eax)
c010a120:	8b 45 e0             	mov    -0x20(%ebp),%eax
c010a123:	89 c2                	mov    %eax,%edx
c010a125:	8b 45 08             	mov    0x8(%ebp),%eax
c010a128:	88 50 21             	mov    %dl,0x21(%eax)
c010a12b:	8b 45 e0             	mov    -0x20(%ebp),%eax
c010a12e:	c1 e8 08             	shr    $0x8,%eax
c010a131:	89 c2                	mov    %eax,%edx
c010a133:	8b 45 08             	mov    0x8(%ebp),%eax
c010a136:	88 50 22             	mov    %dl,0x22(%eax)
c010a139:	8b 45 e0             	mov    -0x20(%ebp),%eax
c010a13c:	c1 e8 10             	shr    $0x10,%eax
c010a13f:	89 c2                	mov    %eax,%edx
c010a141:	8b 45 08             	mov    0x8(%ebp),%eax
c010a144:	88 50 23             	mov    %dl,0x23(%eax)
c010a147:	8b 45 e0             	mov    -0x20(%ebp),%eax
c010a14a:	c1 e8 18             	shr    $0x18,%eax
c010a14d:	89 c2                	mov    %eax,%edx
c010a14f:	8b 45 08             	mov    0x8(%ebp),%eax
c010a152:	88 50 2e             	mov    %dl,0x2e(%eax)
c010a155:	8b 55 e4             	mov    -0x1c(%ebp),%edx
c010a158:	8b 45 08             	mov    0x8(%ebp),%eax
c010a15b:	89 50 68             	mov    %edx,0x68(%eax)
c010a15e:	8b 55 e8             	mov    -0x18(%ebp),%edx
c010a161:	8b 45 08             	mov    0x8(%ebp),%eax
c010a164:	89 50 6c             	mov    %edx,0x6c(%eax)
c010a167:	8b 45 08             	mov    0x8(%ebp),%eax
c010a16a:	8b 40 0c             	mov    0xc(%eax),%eax
c010a16d:	3d 00 00 00 80       	cmp    $0x80000000,%eax
c010a172:	76 39                	jbe    c010a1ad <identify_cpu+0x21e>
c010a174:	8d 45 dc             	lea    -0x24(%ebp),%eax
c010a177:	89 44 24 04          	mov    %eax,0x4(%esp)
c010a17b:	c7 04 24 01 00 00 80 	movl   $0x80000001,(%esp)
c010a182:	e8 e1 fd ff ff       	call   c0109f68 <cpuid>
c010a187:	8b 45 e8             	mov    -0x18(%ebp),%eax
c010a18a:	25 00 00 00 20       	and    $0x20000000,%eax
c010a18f:	c1 e8 1d             	shr    $0x1d,%eax
c010a192:	85 c0                	test   %eax,%eax
c010a194:	74 17                	je     c010a1ad <identify_cpu+0x21e>
c010a196:	8b 45 08             	mov    0x8(%ebp),%eax
c010a199:	8b 40 6c             	mov    0x6c(%eax),%eax
c010a19c:	83 e0 40             	and    $0x40,%eax
c010a19f:	85 c0                	test   %eax,%eax
c010a1a1:	74 0a                	je     c010a1ad <identify_cpu+0x21e>
c010a1a3:	8b 45 08             	mov    0x8(%ebp),%eax
c010a1a6:	c7 40 24 01 00 00 00 	movl   $0x1,0x24(%eax)
c010a1ad:	8b 45 08             	mov    0x8(%ebp),%eax
c010a1b0:	8b 40 6c             	mov    0x6c(%eax),%eax
c010a1b3:	25 00 00 00 40       	and    $0x40000000,%eax
c010a1b8:	85 c0                	test   %eax,%eax
c010a1ba:	74 22                	je     c010a1de <identify_cpu+0x24f>
c010a1bc:	8b 45 08             	mov    0x8(%ebp),%eax
c010a1bf:	8b 40 24             	mov    0x24(%eax),%eax
c010a1c2:	85 c0                	test   %eax,%eax
c010a1c4:	74 0c                	je     c010a1d2 <identify_cpu+0x243>
c010a1c6:	8b 45 08             	mov    0x8(%ebp),%eax
c010a1c9:	c7 40 30 00 00 00 40 	movl   $0x40000000,0x30(%eax)
c010a1d0:	eb 2c                	jmp    c010a1fe <identify_cpu+0x26f>
c010a1d2:	8b 45 08             	mov    0x8(%ebp),%eax
c010a1d5:	c7 40 30 02 00 00 00 	movl   $0x2,0x30(%eax)
c010a1dc:	eb 20                	jmp    c010a1fe <identify_cpu+0x26f>
c010a1de:	8b 45 08             	mov    0x8(%ebp),%eax
c010a1e1:	8b 40 24             	mov    0x24(%eax),%eax
c010a1e4:	85 c0                	test   %eax,%eax
c010a1e6:	74 0c                	je     c010a1f4 <identify_cpu+0x265>
c010a1e8:	8b 45 08             	mov    0x8(%ebp),%eax
c010a1eb:	c7 40 30 01 00 00 00 	movl   $0x1,0x30(%eax)
c010a1f2:	eb 0a                	jmp    c010a1fe <identify_cpu+0x26f>
c010a1f4:	8b 45 08             	mov    0x8(%ebp),%eax
c010a1f7:	c7 40 30 00 00 00 00 	movl   $0x0,0x30(%eax)
c010a1fe:	8b 45 08             	mov    0x8(%ebp),%eax
c010a201:	8b 40 6c             	mov    0x6c(%eax),%eax
c010a204:	25 00 08 00 00       	and    $0x800,%eax
c010a209:	85 c0                	test   %eax,%eax
c010a20b:	74 17                	je     c010a224 <identify_cpu+0x295>
c010a20d:	8b 45 08             	mov    0x8(%ebp),%eax
c010a210:	8b 40 04             	mov    0x4(%eax),%eax
c010a213:	83 f8 02             	cmp    $0x2,%eax
c010a216:	75 0c                	jne    c010a224 <identify_cpu+0x295>
c010a218:	8b 45 08             	mov    0x8(%ebp),%eax
c010a21b:	c7 40 28 01 00 00 00 	movl   $0x1,0x28(%eax)
c010a222:	eb 50                	jmp    c010a274 <identify_cpu+0x2e5>
c010a224:	8b 45 08             	mov    0x8(%ebp),%eax
c010a227:	8b 40 6c             	mov    0x6c(%eax),%eax
c010a22a:	25 00 08 00 00       	and    $0x800,%eax
c010a22f:	85 c0                	test   %eax,%eax
c010a231:	74 41                	je     c010a274 <identify_cpu+0x2e5>
c010a233:	8b 45 08             	mov    0x8(%ebp),%eax
c010a236:	8b 40 04             	mov    0x4(%eax),%eax
c010a239:	83 f8 01             	cmp    $0x1,%eax
c010a23c:	77 36                	ja     c010a274 <identify_cpu+0x2e5>
c010a23e:	8b 45 08             	mov    0x8(%ebp),%eax
c010a241:	8b 40 0c             	mov    0xc(%eax),%eax
c010a244:	3d 00 00 00 80       	cmp    $0x80000000,%eax
c010a249:	76 29                	jbe    c010a274 <identify_cpu+0x2e5>
c010a24b:	8d 45 dc             	lea    -0x24(%ebp),%eax
c010a24e:	89 44 24 04          	mov    %eax,0x4(%esp)
c010a252:	c7 04 24 01 00 00 80 	movl   $0x80000001,(%esp)
c010a259:	e8 0a fd ff ff       	call   c0109f68 <cpuid>
c010a25e:	8b 45 e8             	mov    -0x18(%ebp),%eax
c010a261:	25 00 10 00 00       	and    $0x1000,%eax
c010a266:	85 c0                	test   %eax,%eax
c010a268:	74 0a                	je     c010a274 <identify_cpu+0x2e5>
c010a26a:	8b 45 08             	mov    0x8(%ebp),%eax
c010a26d:	c7 40 28 02 00 00 00 	movl   $0x2,0x28(%eax)
c010a274:	8b 45 08             	mov    0x8(%ebp),%eax
c010a277:	8b 40 0c             	mov    0xc(%eax),%eax
c010a27a:	3d 00 00 00 80       	cmp    $0x80000000,%eax
c010a27f:	76 21                	jbe    c010a2a2 <identify_cpu+0x313>
c010a281:	8d 45 dc             	lea    -0x24(%ebp),%eax
c010a284:	89 44 24 04          	mov    %eax,0x4(%esp)
c010a288:	c7 04 24 01 00 00 80 	movl   $0x80000001,(%esp)
c010a28f:	e8 d4 fc ff ff       	call   c0109f68 <cpuid>
c010a294:	8b 45 e0             	mov    -0x20(%ebp),%eax
c010a297:	89 c2                	mov    %eax,%edx
c010a299:	8b 45 08             	mov    0x8(%ebp),%eax
c010a29c:	66 89 50 2c          	mov    %dx,0x2c(%eax)
c010a2a0:	eb 09                	jmp    c010a2ab <identify_cpu+0x31c>
c010a2a2:	8b 45 08             	mov    0x8(%ebp),%eax
c010a2a5:	66 c7 40 2c 3e 00    	movw   $0x3e,0x2c(%eax)
c010a2ab:	8b 45 08             	mov    0x8(%ebp),%eax
c010a2ae:	8b 40 0c             	mov    0xc(%eax),%eax
c010a2b1:	3d 04 00 00 80       	cmp    $0x80000004,%eax
c010a2b6:	76 5a                	jbe    c010a312 <identify_cpu+0x383>
c010a2b8:	c7 45 f4 02 00 00 80 	movl   $0x80000002,-0xc(%ebp)
c010a2bf:	eb 43                	jmp    c010a304 <identify_cpu+0x375>
c010a2c1:	8d 45 dc             	lea    -0x24(%ebp),%eax
c010a2c4:	89 44 24 04          	mov    %eax,0x4(%esp)
c010a2c8:	8b 45 f4             	mov    -0xc(%ebp),%eax
c010a2cb:	89 04 24             	mov    %eax,(%esp)
c010a2ce:	e8 95 fc ff ff       	call   c0109f68 <cpuid>
c010a2d3:	8b 45 f4             	mov    -0xc(%ebp),%eax
c010a2d6:	05 fe ff ff 0f       	add    $0xffffffe,%eax
c010a2db:	c1 e0 04             	shl    $0x4,%eax
c010a2de:	8d 50 30             	lea    0x30(%eax),%edx
c010a2e1:	8b 45 08             	mov    0x8(%ebp),%eax
c010a2e4:	01 d0                	add    %edx,%eax
c010a2e6:	83 c0 04             	add    $0x4,%eax
c010a2e9:	8b 55 dc             	mov    -0x24(%ebp),%edx
c010a2ec:	89 10                	mov    %edx,(%eax)
c010a2ee:	8b 55 e0             	mov    -0x20(%ebp),%edx
c010a2f1:	89 50 04             	mov    %edx,0x4(%eax)
c010a2f4:	8b 55 e4             	mov    -0x1c(%ebp),%edx
c010a2f7:	89 50 08             	mov    %edx,0x8(%eax)
c010a2fa:	8b 55 e8             	mov    -0x18(%ebp),%edx
c010a2fd:	89 50 0c             	mov    %edx,0xc(%eax)
c010a300:	83 45 f4 01          	addl   $0x1,-0xc(%ebp)
c010a304:	81 7d f4 04 00 00 80 	cmpl   $0x80000004,-0xc(%ebp)
c010a30b:	76 b4                	jbe    c010a2c1 <identify_cpu+0x332>
c010a30d:	e9 d7 00 00 00       	jmp    c010a3e9 <identify_cpu+0x45a>
c010a312:	8b 45 08             	mov    0x8(%ebp),%eax
c010a315:	0f b6 40 1d          	movzbl 0x1d(%eax),%eax
c010a319:	3c 06                	cmp    $0x6,%al
c010a31b:	75 68                	jne    c010a385 <identify_cpu+0x3f6>
c010a31d:	8b 45 08             	mov    0x8(%ebp),%eax
c010a320:	0f b6 40 1e          	movzbl 0x1e(%eax),%eax
c010a324:	3c 03                	cmp    $0x3,%al
c010a326:	75 5d                	jne    c010a385 <identify_cpu+0x3f6>
c010a328:	8b 45 08             	mov    0x8(%ebp),%eax
c010a32b:	0f b6 40 1f          	movzbl 0x1f(%eax),%eax
c010a32f:	3c 03                	cmp    $0x3,%al
c010a331:	75 52                	jne    c010a385 <identify_cpu+0x3f6>
c010a333:	8b 45 08             	mov    0x8(%ebp),%eax
c010a336:	8d 58 34             	lea    0x34(%eax),%ebx
c010a339:	89 d8                	mov    %ebx,%eax
c010a33b:	b9 ff ff ff ff       	mov    $0xffffffff,%ecx
c010a340:	89 c2                	mov    %eax,%edx
c010a342:	b8 00 00 00 00       	mov    $0x0,%eax
c010a347:	89 d7                	mov    %edx,%edi
c010a349:	f2 ae                	repnz scas %es:(%edi),%al
c010a34b:	89 c8                	mov    %ecx,%eax
c010a34d:	f7 d0                	not    %eax
c010a34f:	83 e8 01             	sub    $0x1,%eax
c010a352:	01 d8                	add    %ebx,%eax
c010a354:	c7 00 51 75 65 6d    	movl   $0x6d657551,(%eax)
c010a35a:	66 c7 40 04 75 20    	movw   $0x2075,0x4(%eax)
c010a360:	c6 40 06 00          	movb   $0x0,0x6(%eax)
c010a364:	8b 45 08             	mov    0x8(%ebp),%eax
c010a367:	8b 40 30             	mov    0x30(%eax),%eax
c010a36a:	8b 04 85 28 24 11 c0 	mov    -0x3feedbd8(,%eax,4),%eax
c010a371:	8b 55 08             	mov    0x8(%ebp),%edx
c010a374:	83 c2 34             	add    $0x34,%edx
c010a377:	89 44 24 04          	mov    %eax,0x4(%esp)
c010a37b:	89 14 24             	mov    %edx,(%esp)
c010a37e:	e8 73 20 00 00       	call   c010c3f6 <strcat>
c010a383:	eb 64                	jmp    c010a3e9 <identify_cpu+0x45a>
c010a385:	8b 45 08             	mov    0x8(%ebp),%eax
c010a388:	8b 40 04             	mov    0x4(%eax),%eax
c010a38b:	8b 04 85 e0 23 11 c0 	mov    -0x3feedc20(,%eax,4),%eax
c010a392:	8b 55 08             	mov    0x8(%ebp),%edx
c010a395:	83 c2 34             	add    $0x34,%edx
c010a398:	89 44 24 04          	mov    %eax,0x4(%esp)
c010a39c:	89 14 24             	mov    %edx,(%esp)
c010a39f:	e8 9c 1f 00 00       	call   c010c340 <strcpy>
c010a3a4:	8b 45 08             	mov    0x8(%ebp),%eax
c010a3a7:	8d 58 34             	lea    0x34(%eax),%ebx
c010a3aa:	89 d8                	mov    %ebx,%eax
c010a3ac:	b9 ff ff ff ff       	mov    $0xffffffff,%ecx
c010a3b1:	89 c2                	mov    %eax,%edx
c010a3b3:	b8 00 00 00 00       	mov    $0x0,%eax
c010a3b8:	89 d7                	mov    %edx,%edi
c010a3ba:	f2 ae                	repnz scas %es:(%edi),%al
c010a3bc:	89 c8                	mov    %ecx,%eax
c010a3be:	f7 d0                	not    %eax
c010a3c0:	83 e8 01             	sub    $0x1,%eax
c010a3c3:	01 d8                	add    %ebx,%eax
c010a3c5:	66 c7 00 20 00       	movw   $0x20,(%eax)
c010a3ca:	8b 45 08             	mov    0x8(%ebp),%eax
c010a3cd:	8b 40 30             	mov    0x30(%eax),%eax
c010a3d0:	8b 04 85 28 24 11 c0 	mov    -0x3feedbd8(,%eax,4),%eax
c010a3d7:	8b 55 08             	mov    0x8(%ebp),%edx
c010a3da:	83 c2 34             	add    $0x34,%edx
c010a3dd:	89 44 24 04          	mov    %eax,0x4(%esp)
c010a3e1:	89 14 24             	mov    %edx,(%esp)
c010a3e4:	e8 0d 20 00 00       	call   c010c3f6 <strcat>
c010a3e9:	b8 00 00 00 00       	mov    $0x0,%eax
c010a3ee:	83 c4 30             	add    $0x30,%esp
c010a3f1:	5b                   	pop    %ebx
c010a3f2:	5f                   	pop    %edi
c010a3f3:	5d                   	pop    %ebp
c010a3f4:	c3                   	ret    

c010a3f5 <CPU_info>:
c010a3f5:	55                   	push   %ebp
c010a3f6:	89 e5                	mov    %esp,%ebp
c010a3f8:	83 ec 18             	sub    $0x18,%esp
c010a3fb:	8b 45 08             	mov    0x8(%ebp),%eax
c010a3fe:	8b 00                	mov    (%eax),%eax
c010a400:	83 f8 01             	cmp    $0x1,%eax
c010a403:	0f 85 34 01 00 00    	jne    c010a53d <CPU_info+0x148>
c010a409:	8b 45 08             	mov    0x8(%ebp),%eax
c010a40c:	8b 40 04             	mov    0x4(%eax),%eax
c010a40f:	8b 04 85 e0 23 11 c0 	mov    -0x3feedc20(,%eax,4),%eax
c010a416:	89 44 24 04          	mov    %eax,0x4(%esp)
c010a41a:	c7 04 24 a5 ec 10 c0 	movl   $0xc010eca5,(%esp)
c010a421:	e8 25 14 00 00       	call   c010b84b <printf>
c010a426:	8b 45 08             	mov    0x8(%ebp),%eax
c010a429:	8b 40 30             	mov    0x30(%eax),%eax
c010a42c:	8b 04 85 28 24 11 c0 	mov    -0x3feedbd8(,%eax,4),%eax
c010a433:	89 44 24 04          	mov    %eax,0x4(%esp)
c010a437:	c7 04 24 ba ec 10 c0 	movl   $0xc010ecba,(%esp)
c010a43e:	e8 08 14 00 00       	call   c010b84b <printf>
c010a443:	8b 45 08             	mov    0x8(%ebp),%eax
c010a446:	83 c0 34             	add    $0x34,%eax
c010a449:	89 44 24 04          	mov    %eax,0x4(%esp)
c010a44d:	c7 04 24 cc ec 10 c0 	movl   $0xc010eccc,(%esp)
c010a454:	e8 f2 13 00 00       	call   c010b84b <printf>
c010a459:	8b 45 08             	mov    0x8(%ebp),%eax
c010a45c:	0f b6 40 1f          	movzbl 0x1f(%eax),%eax
c010a460:	0f b6 c8             	movzbl %al,%ecx
c010a463:	8b 45 08             	mov    0x8(%ebp),%eax
c010a466:	0f b6 40 1e          	movzbl 0x1e(%eax),%eax
c010a46a:	0f b6 d0             	movzbl %al,%edx
c010a46d:	8b 45 08             	mov    0x8(%ebp),%eax
c010a470:	0f b6 40 1d          	movzbl 0x1d(%eax),%eax
c010a474:	0f b6 c0             	movzbl %al,%eax
c010a477:	89 4c 24 0c          	mov    %ecx,0xc(%esp)
c010a47b:	89 54 24 08          	mov    %edx,0x8(%esp)
c010a47f:	89 44 24 04          	mov    %eax,0x4(%esp)
c010a483:	c7 04 24 dc ec 10 c0 	movl   $0xc010ecdc,(%esp)
c010a48a:	e8 bc 13 00 00       	call   c010b84b <printf>
c010a48f:	8b 45 08             	mov    0x8(%ebp),%eax
c010a492:	0f b6 40 23          	movzbl 0x23(%eax),%eax
c010a496:	0f b6 c0             	movzbl %al,%eax
c010a499:	89 44 24 04          	mov    %eax,0x4(%esp)
c010a49d:	c7 04 24 01 ed 10 c0 	movl   $0xc010ed01,(%esp)
c010a4a4:	e8 a2 13 00 00       	call   c010b84b <printf>
c010a4a9:	8b 45 08             	mov    0x8(%ebp),%eax
c010a4ac:	8b 50 6c             	mov    0x6c(%eax),%edx
c010a4af:	8b 45 08             	mov    0x8(%ebp),%eax
c010a4b2:	8b 40 68             	mov    0x68(%eax),%eax
c010a4b5:	89 54 24 08          	mov    %edx,0x8(%esp)
c010a4b9:	89 44 24 04          	mov    %eax,0x4(%esp)
c010a4bd:	c7 04 24 13 ed 10 c0 	movl   $0xc010ed13,(%esp)
c010a4c4:	e8 82 13 00 00       	call   c010b84b <printf>
c010a4c9:	8b 45 08             	mov    0x8(%ebp),%eax
c010a4cc:	8b 40 28             	mov    0x28(%eax),%eax
c010a4cf:	8b 04 85 1c 24 11 c0 	mov    -0x3feedbe4(,%eax,4),%eax
c010a4d6:	89 44 24 04          	mov    %eax,0x4(%esp)
c010a4da:	c7 04 24 2b ed 10 c0 	movl   $0xc010ed2b,(%esp)
c010a4e1:	e8 65 13 00 00       	call   c010b84b <printf>
c010a4e6:	8b 45 08             	mov    0x8(%ebp),%eax
c010a4e9:	8b 40 6c             	mov    0x6c(%eax),%eax
c010a4ec:	25 00 00 08 00       	and    $0x80000,%eax
c010a4f1:	85 c0                	test   %eax,%eax
c010a4f3:	74 1d                	je     c010a512 <CPU_info+0x11d>
c010a4f5:	8b 45 08             	mov    0x8(%ebp),%eax
c010a4f8:	0f b6 40 22          	movzbl 0x22(%eax),%eax
c010a4fc:	0f b6 c0             	movzbl %al,%eax
c010a4ff:	c1 e0 03             	shl    $0x3,%eax
c010a502:	89 44 24 04          	mov    %eax,0x4(%esp)
c010a506:	c7 04 24 40 ed 10 c0 	movl   $0xc010ed40,(%esp)
c010a50d:	e8 39 13 00 00       	call   c010b84b <printf>
c010a512:	8b 45 08             	mov    0x8(%ebp),%eax
c010a515:	8b 40 6c             	mov    0x6c(%eax),%eax
c010a518:	25 00 00 40 00       	and    $0x400000,%eax
c010a51d:	85 c0                	test   %eax,%eax
c010a51f:	74 28                	je     c010a549 <CPU_info+0x154>
c010a521:	8b 45 08             	mov    0x8(%ebp),%eax
c010a524:	0f b6 40 2e          	movzbl 0x2e(%eax),%eax
c010a528:	0f b6 c0             	movzbl %al,%eax
c010a52b:	89 44 24 04          	mov    %eax,0x4(%esp)
c010a52f:	c7 04 24 53 ed 10 c0 	movl   $0xc010ed53,(%esp)
c010a536:	e8 10 13 00 00       	call   c010b84b <printf>
c010a53b:	eb 0c                	jmp    c010a549 <CPU_info+0x154>
c010a53d:	c7 04 24 60 ed 10 c0 	movl   $0xc010ed60,(%esp)
c010a544:	e8 75 9b ff ff       	call   c01040be <puts>
c010a549:	c9                   	leave  
c010a54a:	c3                   	ret    

c010a54b <INIT_CPUID>:
c010a54b:	55                   	push   %ebp
c010a54c:	89 e5                	mov    %esp,%ebp
c010a54e:	83 ec 18             	sub    $0x18,%esp
c010a551:	c7 04 24 40 60 11 c0 	movl   $0xc0116040,(%esp)
c010a558:	e8 32 fa ff ff       	call   c0109f8f <identify_cpu>
c010a55d:	c7 04 24 40 60 11 c0 	movl   $0xc0116040,(%esp)
c010a564:	e8 8c fe ff ff       	call   c010a3f5 <CPU_info>
c010a569:	c9                   	leave  
c010a56a:	c3                   	ret    

c010a56b <ARCH_INIT_PAGING>:
c010a56b:	55                   	push   %ebp
c010a56c:	89 e5                	mov    %esp,%ebp
c010a56e:	83 ec 48             	sub    $0x48,%esp
c010a571:	c7 04 24 00 00 00 00 	movl   $0x0,(%esp)
c010a578:	e8 ac 0c 00 00       	call   c010b229 <pmm_alloc_page_limit>
c010a57d:	89 45 ec             	mov    %eax,-0x14(%ebp)
c010a580:	c7 45 e8 00 00 80 ff 	movl   $0xff800000,-0x18(%ebp)
c010a587:	8b 45 ec             	mov    -0x14(%ebp),%eax
c010a58a:	a3 b4 60 11 c0       	mov    %eax,0xc01160b4
c010a58f:	8b 45 ec             	mov    -0x14(%ebp),%eax
c010a592:	a3 b0 60 11 c0       	mov    %eax,0xc01160b0
c010a597:	a1 b0 60 11 c0       	mov    0xc01160b0,%eax
c010a59c:	c7 44 24 08 00 10 00 	movl   $0x1000,0x8(%esp)
c010a5a3:	00 
c010a5a4:	c7 44 24 04 00 00 00 	movl   $0x0,0x4(%esp)
c010a5ab:	00 
c010a5ac:	89 04 24             	mov    %eax,(%esp)
c010a5af:	e8 30 23 00 00       	call   c010c8e4 <memset>
c010a5b4:	a1 b0 60 11 c0       	mov    0xc01160b0,%eax
c010a5b9:	8b 55 e8             	mov    -0x18(%ebp),%edx
c010a5bc:	c1 ea 16             	shr    $0x16,%edx
c010a5bf:	c1 e2 02             	shl    $0x2,%edx
c010a5c2:	01 d0                	add    %edx,%eax
c010a5c4:	8b 55 ec             	mov    -0x14(%ebp),%edx
c010a5c7:	83 ca 03             	or     $0x3,%edx
c010a5ca:	89 10                	mov    %edx,(%eax)
c010a5cc:	c7 44 24 10 02 00 00 	movl   $0x2,0x10(%esp)
c010a5d3:	00 
c010a5d4:	c7 44 24 0c 00 20 00 	movl   $0x2000,0xc(%esp)
c010a5db:	00 
c010a5dc:	c7 44 24 08 00 00 00 	movl   $0xc0000000,0x8(%esp)
c010a5e3:	c0 
c010a5e4:	c7 44 24 04 00 00 00 	movl   $0x0,0x4(%esp)
c010a5eb:	00 
c010a5ec:	c7 04 24 b0 60 11 c0 	movl   $0xc01160b0,(%esp)
c010a5f3:	e8 12 29 00 00       	call   c010cf0a <vmm_map_range>
c010a5f8:	c7 44 24 0c 02 00 00 	movl   $0x2,0xc(%esp)
c010a5ff:	00 
c010a600:	c7 44 24 08 00 80 0b 	movl   $0xc00b8000,0x8(%esp)
c010a607:	c0 
c010a608:	c7 44 24 04 00 80 0b 	movl   $0xb8000,0x4(%esp)
c010a60f:	00 
c010a610:	c7 04 24 b0 60 11 c0 	movl   $0xc01160b0,(%esp)
c010a617:	e8 a5 28 00 00       	call   c010cec1 <vmm_map>
c010a61c:	8b 45 08             	mov    0x8(%ebp),%eax
c010a61f:	25 00 f0 ff ff       	and    $0xfffff000,%eax
c010a624:	89 c2                	mov    %eax,%edx
c010a626:	8b 45 08             	mov    0x8(%ebp),%eax
c010a629:	25 00 f0 ff ff       	and    $0xfffff000,%eax
c010a62e:	05 00 00 00 40       	add    $0x40000000,%eax
c010a633:	c7 44 24 0c 02 00 00 	movl   $0x2,0xc(%esp)
c010a63a:	00 
c010a63b:	89 54 24 08          	mov    %edx,0x8(%esp)
c010a63f:	89 44 24 04          	mov    %eax,0x4(%esp)
c010a643:	c7 04 24 b0 60 11 c0 	movl   $0xc01160b0,(%esp)
c010a64a:	e8 72 28 00 00       	call   c010cec1 <vmm_map>
c010a64f:	8b 45 08             	mov    0x8(%ebp),%eax
c010a652:	8b 40 18             	mov    0x18(%eax),%eax
c010a655:	25 00 f0 ff ff       	and    $0xfffff000,%eax
c010a65a:	89 c2                	mov    %eax,%edx
c010a65c:	8b 45 08             	mov    0x8(%ebp),%eax
c010a65f:	8b 40 18             	mov    0x18(%eax),%eax
c010a662:	25 00 f0 ff ff       	and    $0xfffff000,%eax
c010a667:	05 00 00 00 40       	add    $0x40000000,%eax
c010a66c:	c7 44 24 0c 02 00 00 	movl   $0x2,0xc(%esp)
c010a673:	00 
c010a674:	89 54 24 08          	mov    %edx,0x8(%esp)
c010a678:	89 44 24 04          	mov    %eax,0x4(%esp)
c010a67c:	c7 04 24 b0 60 11 c0 	movl   $0xc01160b0,(%esp)
c010a683:	e8 39 28 00 00       	call   c010cec1 <vmm_map>
c010a688:	8b 45 08             	mov    0x8(%ebp),%eax
c010a68b:	8b 40 18             	mov    0x18(%eax),%eax
c010a68e:	89 45 e4             	mov    %eax,-0x1c(%ebp)
c010a691:	c7 45 f4 00 00 00 00 	movl   $0x0,-0xc(%ebp)
c010a698:	eb 5b                	jmp    c010a6f5 <ARCH_INIT_PAGING+0x18a>
c010a69a:	8b 45 f4             	mov    -0xc(%ebp),%eax
c010a69d:	c1 e0 04             	shl    $0x4,%eax
c010a6a0:	89 c2                	mov    %eax,%edx
c010a6a2:	8b 45 e4             	mov    -0x1c(%ebp),%eax
c010a6a5:	01 d0                	add    %edx,%eax
c010a6a7:	8b 00                	mov    (%eax),%eax
c010a6a9:	25 00 f0 ff ff       	and    $0xfffff000,%eax
c010a6ae:	89 45 f0             	mov    %eax,-0x10(%ebp)
c010a6b1:	eb 29                	jmp    c010a6dc <ARCH_INIT_PAGING+0x171>
c010a6b3:	c7 44 24 0c 03 00 00 	movl   $0x3,0xc(%esp)
c010a6ba:	00 
c010a6bb:	8b 45 f0             	mov    -0x10(%ebp),%eax
c010a6be:	89 44 24 08          	mov    %eax,0x8(%esp)
c010a6c2:	8b 45 f0             	mov    -0x10(%ebp),%eax
c010a6c5:	89 44 24 04          	mov    %eax,0x4(%esp)
c010a6c9:	c7 04 24 b0 60 11 c0 	movl   $0xc01160b0,(%esp)
c010a6d0:	e8 ec 27 00 00       	call   c010cec1 <vmm_map>
c010a6d5:	81 45 f0 00 10 00 00 	addl   $0x1000,-0x10(%ebp)
c010a6dc:	8b 45 f4             	mov    -0xc(%ebp),%eax
c010a6df:	c1 e0 04             	shl    $0x4,%eax
c010a6e2:	89 c2                	mov    %eax,%edx
c010a6e4:	8b 45 e4             	mov    -0x1c(%ebp),%eax
c010a6e7:	01 d0                	add    %edx,%eax
c010a6e9:	8b 40 04             	mov    0x4(%eax),%eax
c010a6ec:	3b 45 f0             	cmp    -0x10(%ebp),%eax
c010a6ef:	77 c2                	ja     c010a6b3 <ARCH_INIT_PAGING+0x148>
c010a6f1:	83 45 f4 01          	addl   $0x1,-0xc(%ebp)
c010a6f5:	8b 55 f4             	mov    -0xc(%ebp),%edx
c010a6f8:	8b 45 08             	mov    0x8(%ebp),%eax
c010a6fb:	8b 40 14             	mov    0x14(%eax),%eax
c010a6fe:	39 c2                	cmp    %eax,%edx
c010a700:	72 98                	jb     c010a69a <ARCH_INIT_PAGING+0x12f>
c010a702:	c7 44 24 08 02 00 00 	movl   $0x2,0x8(%esp)
c010a709:	00 
c010a70a:	8b 45 ec             	mov    -0x14(%ebp),%eax
c010a70d:	89 44 24 04          	mov    %eax,0x4(%esp)
c010a711:	c7 04 24 b0 60 11 c0 	movl   $0xc01160b0,(%esp)
c010a718:	e8 8d 28 00 00       	call   c010cfaa <vmm_automap_kernel>
c010a71d:	89 45 e0             	mov    %eax,-0x20(%ebp)
c010a720:	8b 45 e0             	mov    -0x20(%ebp),%eax
c010a723:	a3 b0 60 11 c0       	mov    %eax,0xc01160b0
c010a728:	c7 04 24 b0 60 11 c0 	movl   $0xc01160b0,(%esp)
c010a72f:	e8 6c 06 00 00       	call   c010ada0 <arch_switch_context>
c010a734:	c7 05 60 49 11 c0 b0 	movl   $0xc01160b0,0xc0114960
c010a73b:	60 11 c0 
c010a73e:	c9                   	leave  
c010a73f:	c3                   	ret    

c010a740 <arch_vmm_create_context>:
c010a740:	55                   	push   %ebp
c010a741:	89 e5                	mov    %esp,%ebp
c010a743:	83 ec 28             	sub    $0x28,%esp
c010a746:	e8 a1 0a 00 00       	call   c010b1ec <pmm_alloc_page>
c010a74b:	89 45 f4             	mov    %eax,-0xc(%ebp)
c010a74e:	a1 60 49 11 c0       	mov    0xc0114960,%eax
c010a753:	c7 44 24 08 03 00 00 	movl   $0x3,0x8(%esp)
c010a75a:	00 
c010a75b:	8b 55 f4             	mov    -0xc(%ebp),%edx
c010a75e:	89 54 24 04          	mov    %edx,0x4(%esp)
c010a762:	89 04 24             	mov    %eax,(%esp)
c010a765:	e8 40 28 00 00       	call   c010cfaa <vmm_automap_kernel>
c010a76a:	89 45 f0             	mov    %eax,-0x10(%ebp)
c010a76d:	8b 45 f0             	mov    -0x10(%ebp),%eax
c010a770:	c7 44 24 08 00 10 00 	movl   $0x1000,0x8(%esp)
c010a777:	00 
c010a778:	c7 44 24 04 00 00 00 	movl   $0x0,0x4(%esp)
c010a77f:	00 
c010a780:	89 04 24             	mov    %eax,(%esp)
c010a783:	e8 5c 21 00 00       	call   c010c8e4 <memset>
c010a788:	8b 55 f0             	mov    -0x10(%ebp),%edx
c010a78b:	8b 45 08             	mov    0x8(%ebp),%eax
c010a78e:	89 10                	mov    %edx,(%eax)
c010a790:	8b 45 08             	mov    0x8(%ebp),%eax
c010a793:	8b 55 f4             	mov    -0xc(%ebp),%edx
c010a796:	89 50 04             	mov    %edx,0x4(%eax)
c010a799:	8b 45 08             	mov    0x8(%ebp),%eax
c010a79c:	89 04 24             	mov    %eax,(%esp)
c010a79f:	e8 1d 01 00 00       	call   c010a8c1 <arch_update_context>
c010a7a4:	c9                   	leave  
c010a7a5:	c3                   	ret    

c010a7a6 <arch_vmm_destroy_context>:
c010a7a6:	55                   	push   %ebp
c010a7a7:	89 e5                	mov    %esp,%ebp
c010a7a9:	83 ec 28             	sub    $0x28,%esp
c010a7ac:	c7 45 f4 00 00 00 00 	movl   $0x0,-0xc(%ebp)
c010a7b3:	eb 31                	jmp    c010a7e6 <arch_vmm_destroy_context+0x40>
c010a7b5:	8b 45 08             	mov    0x8(%ebp),%eax
c010a7b8:	8b 00                	mov    (%eax),%eax
c010a7ba:	8b 55 f4             	mov    -0xc(%ebp),%edx
c010a7bd:	c1 e2 02             	shl    $0x2,%edx
c010a7c0:	01 d0                	add    %edx,%eax
c010a7c2:	8b 00                	mov    (%eax),%eax
c010a7c4:	83 e0 01             	and    $0x1,%eax
c010a7c7:	85 c0                	test   %eax,%eax
c010a7c9:	74 17                	je     c010a7e2 <arch_vmm_destroy_context+0x3c>
c010a7cb:	8b 45 08             	mov    0x8(%ebp),%eax
c010a7ce:	8b 00                	mov    (%eax),%eax
c010a7d0:	8b 55 f4             	mov    -0xc(%ebp),%edx
c010a7d3:	c1 e2 02             	shl    $0x2,%edx
c010a7d6:	01 d0                	add    %edx,%eax
c010a7d8:	8b 00                	mov    (%eax),%eax
c010a7da:	89 04 24             	mov    %eax,(%esp)
c010a7dd:	e8 e6 06 00 00       	call   c010aec8 <pmm_mark_page_as_free>
c010a7e2:	83 45 f4 01          	addl   $0x1,-0xc(%ebp)
c010a7e6:	81 7d f4 ff 03 00 00 	cmpl   $0x3ff,-0xc(%ebp)
c010a7ed:	7e c6                	jle    c010a7b5 <arch_vmm_destroy_context+0xf>
c010a7ef:	8b 45 08             	mov    0x8(%ebp),%eax
c010a7f2:	8b 40 04             	mov    0x4(%eax),%eax
c010a7f5:	89 04 24             	mov    %eax,(%esp)
c010a7f8:	e8 cb 06 00 00       	call   c010aec8 <pmm_mark_page_as_free>
c010a7fd:	c9                   	leave  
c010a7fe:	c3                   	ret    

c010a7ff <arch_sync_pts>:
c010a7ff:	55                   	push   %ebp
c010a800:	89 e5                	mov    %esp,%ebp
c010a802:	83 ec 10             	sub    $0x10,%esp
c010a805:	8b 45 10             	mov    0x10(%ebp),%eax
c010a808:	89 45 fc             	mov    %eax,-0x4(%ebp)
c010a80b:	eb 22                	jmp    c010a82f <arch_sync_pts+0x30>
c010a80d:	8b 45 0c             	mov    0xc(%ebp),%eax
c010a810:	8b 00                	mov    (%eax),%eax
c010a812:	8b 55 fc             	mov    -0x4(%ebp),%edx
c010a815:	c1 e2 02             	shl    $0x2,%edx
c010a818:	01 c2                	add    %eax,%edx
c010a81a:	8b 45 08             	mov    0x8(%ebp),%eax
c010a81d:	8b 00                	mov    (%eax),%eax
c010a81f:	8b 4d fc             	mov    -0x4(%ebp),%ecx
c010a822:	c1 e1 02             	shl    $0x2,%ecx
c010a825:	01 c8                	add    %ecx,%eax
c010a827:	8b 00                	mov    (%eax),%eax
c010a829:	89 02                	mov    %eax,(%edx)
c010a82b:	83 45 fc 01          	addl   $0x1,-0x4(%ebp)
c010a82f:	8b 45 fc             	mov    -0x4(%ebp),%eax
c010a832:	3b 45 14             	cmp    0x14(%ebp),%eax
c010a835:	7c d6                	jl     c010a80d <arch_sync_pts+0xe>
c010a837:	c9                   	leave  
c010a838:	c3                   	ret    

c010a839 <arch_fork_context>:
c010a839:	55                   	push   %ebp
c010a83a:	89 e5                	mov    %esp,%ebp
c010a83c:	83 ec 28             	sub    $0x28,%esp
c010a83f:	c7 45 f4 00 00 00 00 	movl   $0x0,-0xc(%ebp)
c010a846:	eb 6e                	jmp    c010a8b6 <arch_fork_context+0x7d>
c010a848:	8b 45 08             	mov    0x8(%ebp),%eax
c010a84b:	8b 00                	mov    (%eax),%eax
c010a84d:	8b 55 f4             	mov    -0xc(%ebp),%edx
c010a850:	c1 e2 02             	shl    $0x2,%edx
c010a853:	01 d0                	add    %edx,%eax
c010a855:	8b 00                	mov    (%eax),%eax
c010a857:	83 e0 01             	and    $0x1,%eax
c010a85a:	85 c0                	test   %eax,%eax
c010a85c:	74 54                	je     c010a8b2 <arch_fork_context+0x79>
c010a85e:	c7 44 24 08 03 00 00 	movl   $0x3,0x8(%esp)
c010a865:	00 
c010a866:	8b 45 f4             	mov    -0xc(%ebp),%eax
c010a869:	89 44 24 04          	mov    %eax,0x4(%esp)
c010a86d:	8b 45 08             	mov    0x8(%ebp),%eax
c010a870:	89 04 24             	mov    %eax,(%esp)
c010a873:	e8 8b 00 00 00       	call   c010a903 <pt_get>
c010a878:	89 45 f0             	mov    %eax,-0x10(%ebp)
c010a87b:	c7 44 24 08 07 00 00 	movl   $0x7,0x8(%esp)
c010a882:	00 
c010a883:	8b 45 f4             	mov    -0xc(%ebp),%eax
c010a886:	89 44 24 04          	mov    %eax,0x4(%esp)
c010a88a:	8b 45 0c             	mov    0xc(%ebp),%eax
c010a88d:	89 04 24             	mov    %eax,(%esp)
c010a890:	e8 f1 00 00 00       	call   c010a986 <pt_create>
c010a895:	89 45 ec             	mov    %eax,-0x14(%ebp)
c010a898:	c7 44 24 08 00 10 00 	movl   $0x1000,0x8(%esp)
c010a89f:	00 
c010a8a0:	8b 45 f0             	mov    -0x10(%ebp),%eax
c010a8a3:	89 44 24 04          	mov    %eax,0x4(%esp)
c010a8a7:	8b 45 ec             	mov    -0x14(%ebp),%eax
c010a8aa:	89 04 24             	mov    %eax,(%esp)
c010a8ad:	e8 6d 1e 00 00       	call   c010c71f <memcpy>
c010a8b2:	83 45 f4 01          	addl   $0x1,-0xc(%ebp)
c010a8b6:	81 7d f4 ff 03 00 00 	cmpl   $0x3ff,-0xc(%ebp)
c010a8bd:	7e 89                	jle    c010a848 <arch_fork_context+0xf>
c010a8bf:	c9                   	leave  
c010a8c0:	c3                   	ret    

c010a8c1 <arch_update_context>:
c010a8c1:	55                   	push   %ebp
c010a8c2:	89 e5                	mov    %esp,%ebp
c010a8c4:	83 ec 10             	sub    $0x10,%esp
c010a8c7:	a1 60 49 11 c0       	mov    0xc0114960,%eax
c010a8cc:	c7 44 24 0c ff 03 00 	movl   $0x3ff,0xc(%esp)
c010a8d3:	00 
c010a8d4:	c7 44 24 08 00 03 00 	movl   $0x300,0x8(%esp)
c010a8db:	00 
c010a8dc:	8b 55 08             	mov    0x8(%ebp),%edx
c010a8df:	89 54 24 04          	mov    %edx,0x4(%esp)
c010a8e3:	89 04 24             	mov    %eax,(%esp)
c010a8e6:	e8 14 ff ff ff       	call   c010a7ff <arch_sync_pts>
c010a8eb:	8b 45 08             	mov    0x8(%ebp),%eax
c010a8ee:	8b 00                	mov    (%eax),%eax
c010a8f0:	8d 90 f8 0f 00 00    	lea    0xff8(%eax),%edx
c010a8f6:	8b 45 08             	mov    0x8(%ebp),%eax
c010a8f9:	8b 40 04             	mov    0x4(%eax),%eax
c010a8fc:	83 c8 03             	or     $0x3,%eax
c010a8ff:	89 02                	mov    %eax,(%edx)
c010a901:	c9                   	leave  
c010a902:	c3                   	ret    

c010a903 <pt_get>:
c010a903:	55                   	push   %ebp
c010a904:	89 e5                	mov    %esp,%ebp
c010a906:	83 ec 28             	sub    $0x28,%esp
c010a909:	8b 45 10             	mov    0x10(%ebp),%eax
c010a90c:	88 45 e4             	mov    %al,-0x1c(%ebp)
c010a90f:	a1 60 49 11 c0       	mov    0xc0114960,%eax
c010a914:	85 c0                	test   %eax,%eax
c010a916:	74 52                	je     c010a96a <pt_get+0x67>
c010a918:	a1 60 49 11 c0       	mov    0xc0114960,%eax
c010a91d:	3b 45 08             	cmp    0x8(%ebp),%eax
c010a920:	75 10                	jne    c010a932 <pt_get+0x2f>
c010a922:	8b 45 0c             	mov    0xc(%ebp),%eax
c010a925:	05 00 f8 0f 00       	add    $0xff800,%eax
c010a92a:	c1 e0 0c             	shl    $0xc,%eax
c010a92d:	89 45 f4             	mov    %eax,-0xc(%ebp)
c010a930:	eb 4f                	jmp    c010a981 <pt_get+0x7e>
c010a932:	8b 45 08             	mov    0x8(%ebp),%eax
c010a935:	8b 00                	mov    (%eax),%eax
c010a937:	8b 55 0c             	mov    0xc(%ebp),%edx
c010a93a:	c1 e2 02             	shl    $0x2,%edx
c010a93d:	01 d0                	add    %edx,%eax
c010a93f:	8b 00                	mov    (%eax),%eax
c010a941:	25 00 f0 ff ff       	and    $0xfffff000,%eax
c010a946:	89 45 f4             	mov    %eax,-0xc(%ebp)
c010a949:	0f b6 4d e4          	movzbl -0x1c(%ebp),%ecx
c010a94d:	8b 55 f4             	mov    -0xc(%ebp),%edx
c010a950:	a1 60 49 11 c0       	mov    0xc0114960,%eax
c010a955:	89 4c 24 08          	mov    %ecx,0x8(%esp)
c010a959:	89 54 24 04          	mov    %edx,0x4(%esp)
c010a95d:	89 04 24             	mov    %eax,(%esp)
c010a960:	e8 45 26 00 00       	call   c010cfaa <vmm_automap_kernel>
c010a965:	89 45 f4             	mov    %eax,-0xc(%ebp)
c010a968:	eb 17                	jmp    c010a981 <pt_get+0x7e>
c010a96a:	8b 45 08             	mov    0x8(%ebp),%eax
c010a96d:	8b 00                	mov    (%eax),%eax
c010a96f:	8b 55 0c             	mov    0xc(%ebp),%edx
c010a972:	c1 e2 02             	shl    $0x2,%edx
c010a975:	01 d0                	add    %edx,%eax
c010a977:	8b 00                	mov    (%eax),%eax
c010a979:	25 00 f0 ff ff       	and    $0xfffff000,%eax
c010a97e:	89 45 f4             	mov    %eax,-0xc(%ebp)
c010a981:	8b 45 f4             	mov    -0xc(%ebp),%eax
c010a984:	c9                   	leave  
c010a985:	c3                   	ret    

c010a986 <pt_create>:
c010a986:	55                   	push   %ebp
c010a987:	89 e5                	mov    %esp,%ebp
c010a989:	83 ec 28             	sub    $0x28,%esp
c010a98c:	8b 45 10             	mov    0x10(%ebp),%eax
c010a98f:	88 45 e4             	mov    %al,-0x1c(%ebp)
c010a992:	c7 04 24 00 00 00 00 	movl   $0x0,(%esp)
c010a999:	e8 8b 08 00 00       	call   c010b229 <pmm_alloc_page_limit>
c010a99e:	89 45 f4             	mov    %eax,-0xc(%ebp)
c010a9a1:	8b 45 08             	mov    0x8(%ebp),%eax
c010a9a4:	8b 00                	mov    (%eax),%eax
c010a9a6:	8b 55 0c             	mov    0xc(%ebp),%edx
c010a9a9:	c1 e2 02             	shl    $0x2,%edx
c010a9ac:	01 d0                	add    %edx,%eax
c010a9ae:	0f b6 4d e4          	movzbl -0x1c(%ebp),%ecx
c010a9b2:	8b 55 f4             	mov    -0xc(%ebp),%edx
c010a9b5:	09 ca                	or     %ecx,%edx
c010a9b7:	83 ca 01             	or     $0x1,%edx
c010a9ba:	89 10                	mov    %edx,(%eax)
c010a9bc:	0f b6 45 e4          	movzbl -0x1c(%ebp),%eax
c010a9c0:	83 c8 01             	or     $0x1,%eax
c010a9c3:	0f b6 c0             	movzbl %al,%eax
c010a9c6:	89 44 24 08          	mov    %eax,0x8(%esp)
c010a9ca:	8b 45 0c             	mov    0xc(%ebp),%eax
c010a9cd:	89 44 24 04          	mov    %eax,0x4(%esp)
c010a9d1:	8b 45 08             	mov    0x8(%ebp),%eax
c010a9d4:	89 04 24             	mov    %eax,(%esp)
c010a9d7:	e8 27 ff ff ff       	call   c010a903 <pt_get>
c010a9dc:	89 45 f4             	mov    %eax,-0xc(%ebp)
c010a9df:	c7 44 24 08 00 10 00 	movl   $0x1000,0x8(%esp)
c010a9e6:	00 
c010a9e7:	c7 44 24 04 00 00 00 	movl   $0x0,0x4(%esp)
c010a9ee:	00 
c010a9ef:	8b 45 f4             	mov    -0xc(%ebp),%eax
c010a9f2:	89 04 24             	mov    %eax,(%esp)
c010a9f5:	e8 ea 1e 00 00       	call   c010c8e4 <memset>
c010a9fa:	8b 45 f4             	mov    -0xc(%ebp),%eax
c010a9fd:	c9                   	leave  
c010a9fe:	c3                   	ret    

c010a9ff <pt_destroy>:
c010a9ff:	55                   	push   %ebp
c010aa00:	89 e5                	mov    %esp,%ebp
c010aa02:	83 ec 18             	sub    $0x18,%esp
c010aa05:	8b 45 08             	mov    0x8(%ebp),%eax
c010aa08:	8b 00                	mov    (%eax),%eax
c010aa0a:	8b 55 0c             	mov    0xc(%ebp),%edx
c010aa0d:	c1 e2 02             	shl    $0x2,%edx
c010aa10:	01 d0                	add    %edx,%eax
c010aa12:	8b 00                	mov    (%eax),%eax
c010aa14:	89 04 24             	mov    %eax,(%esp)
c010aa17:	e8 ac 04 00 00       	call   c010aec8 <pmm_mark_page_as_free>
c010aa1c:	8b 45 08             	mov    0x8(%ebp),%eax
c010aa1f:	8b 00                	mov    (%eax),%eax
c010aa21:	8b 55 0c             	mov    0xc(%ebp),%edx
c010aa24:	c1 e2 02             	shl    $0x2,%edx
c010aa27:	01 d0                	add    %edx,%eax
c010aa29:	c7 00 00 00 00 00    	movl   $0x0,(%eax)
c010aa2f:	c9                   	leave  
c010aa30:	c3                   	ret    

c010aa31 <arch_map>:
c010aa31:	55                   	push   %ebp
c010aa32:	89 e5                	mov    %esp,%ebp
c010aa34:	83 ec 28             	sub    $0x28,%esp
c010aa37:	8b 45 14             	mov    0x14(%ebp),%eax
c010aa3a:	88 45 e4             	mov    %al,-0x1c(%ebp)
c010aa3d:	8b 45 0c             	mov    0xc(%ebp),%eax
c010aa40:	25 ff 0f 00 00       	and    $0xfff,%eax
c010aa45:	85 c0                	test   %eax,%eax
c010aa47:	75 0c                	jne    c010aa55 <arch_map+0x24>
c010aa49:	8b 45 10             	mov    0x10(%ebp),%eax
c010aa4c:	25 ff 0f 00 00       	and    $0xfff,%eax
c010aa51:	85 c0                	test   %eax,%eax
c010aa53:	74 24                	je     c010aa79 <arch_map+0x48>
c010aa55:	8b 45 10             	mov    0x10(%ebp),%eax
c010aa58:	89 44 24 08          	mov    %eax,0x8(%esp)
c010aa5c:	8b 45 0c             	mov    0xc(%ebp),%eax
c010aa5f:	89 44 24 04          	mov    %eax,0x4(%esp)
c010aa63:	c7 04 24 84 ed 10 c0 	movl   $0xc010ed84,(%esp)
c010aa6a:	e8 dc 0d 00 00       	call   c010b84b <printf>
c010aa6f:	b8 ff ff ff ff       	mov    $0xffffffff,%eax
c010aa74:	e9 e0 00 00 00       	jmp    c010ab59 <arch_map+0x128>
c010aa79:	8b 45 10             	mov    0x10(%ebp),%eax
c010aa7c:	c1 e8 16             	shr    $0x16,%eax
c010aa7f:	89 45 f0             	mov    %eax,-0x10(%ebp)
c010aa82:	8b 45 10             	mov    0x10(%ebp),%eax
c010aa85:	c1 e8 0c             	shr    $0xc,%eax
c010aa88:	25 ff 03 00 00       	and    $0x3ff,%eax
c010aa8d:	89 45 ec             	mov    %eax,-0x14(%ebp)
c010aa90:	c7 45 f4 00 00 00 00 	movl   $0x0,-0xc(%ebp)
c010aa97:	8b 45 08             	mov    0x8(%ebp),%eax
c010aa9a:	8b 00                	mov    (%eax),%eax
c010aa9c:	8b 55 f0             	mov    -0x10(%ebp),%edx
c010aa9f:	c1 e2 02             	shl    $0x2,%edx
c010aaa2:	01 d0                	add    %edx,%eax
c010aaa4:	8b 00                	mov    (%eax),%eax
c010aaa6:	89 45 e8             	mov    %eax,-0x18(%ebp)
c010aaa9:	8b 45 e8             	mov    -0x18(%ebp),%eax
c010aaac:	83 e0 01             	and    $0x1,%eax
c010aaaf:	85 c0                	test   %eax,%eax
c010aab1:	74 25                	je     c010aad8 <arch_map+0xa7>
c010aab3:	0f b6 45 e4          	movzbl -0x1c(%ebp),%eax
c010aab7:	83 c8 01             	or     $0x1,%eax
c010aaba:	0f b6 d0             	movzbl %al,%edx
c010aabd:	8b 45 f0             	mov    -0x10(%ebp),%eax
c010aac0:	89 54 24 08          	mov    %edx,0x8(%esp)
c010aac4:	89 44 24 04          	mov    %eax,0x4(%esp)
c010aac8:	8b 45 08             	mov    0x8(%ebp),%eax
c010aacb:	89 04 24             	mov    %eax,(%esp)
c010aace:	e8 30 fe ff ff       	call   c010a903 <pt_get>
c010aad3:	89 45 f4             	mov    %eax,-0xc(%ebp)
c010aad6:	eb 23                	jmp    c010aafb <arch_map+0xca>
c010aad8:	0f b6 45 e4          	movzbl -0x1c(%ebp),%eax
c010aadc:	83 c8 01             	or     $0x1,%eax
c010aadf:	0f b6 d0             	movzbl %al,%edx
c010aae2:	8b 45 f0             	mov    -0x10(%ebp),%eax
c010aae5:	89 54 24 08          	mov    %edx,0x8(%esp)
c010aae9:	89 44 24 04          	mov    %eax,0x4(%esp)
c010aaed:	8b 45 08             	mov    0x8(%ebp),%eax
c010aaf0:	89 04 24             	mov    %eax,(%esp)
c010aaf3:	e8 8e fe ff ff       	call   c010a986 <pt_create>
c010aaf8:	89 45 f4             	mov    %eax,-0xc(%ebp)
c010aafb:	8b 45 ec             	mov    -0x14(%ebp),%eax
c010aafe:	8d 14 85 00 00 00 00 	lea    0x0(,%eax,4),%edx
c010ab05:	8b 45 f4             	mov    -0xc(%ebp),%eax
c010ab08:	01 d0                	add    %edx,%eax
c010ab0a:	8b 55 0c             	mov    0xc(%ebp),%edx
c010ab0d:	89 d1                	mov    %edx,%ecx
c010ab0f:	81 e1 00 f0 ff ff    	and    $0xfffff000,%ecx
c010ab15:	0f b6 55 e4          	movzbl -0x1c(%ebp),%edx
c010ab19:	09 ca                	or     %ecx,%edx
c010ab1b:	83 ca 01             	or     $0x1,%edx
c010ab1e:	89 10                	mov    %edx,(%eax)
c010ab20:	a1 60 49 11 c0       	mov    0xc0114960,%eax
c010ab25:	85 c0                	test   %eax,%eax
c010ab27:	74 2b                	je     c010ab54 <arch_map+0x123>
c010ab29:	a1 60 49 11 c0       	mov    0xc0114960,%eax
c010ab2e:	3b 45 08             	cmp    0x8(%ebp),%eax
c010ab31:	75 0d                	jne    c010ab40 <arch_map+0x10f>
c010ab33:	8b 45 10             	mov    0x10(%ebp),%eax
c010ab36:	89 04 24             	mov    %eax,(%esp)
c010ab39:	e8 1d 03 00 00       	call   c010ae5b <paging_flush_tlb>
c010ab3e:	eb 14                	jmp    c010ab54 <arch_map+0x123>
c010ab40:	8b 55 f4             	mov    -0xc(%ebp),%edx
c010ab43:	a1 60 49 11 c0       	mov    0xc0114960,%eax
c010ab48:	89 54 24 04          	mov    %edx,0x4(%esp)
c010ab4c:	89 04 24             	mov    %eax,(%esp)
c010ab4f:	e8 9c 23 00 00       	call   c010cef0 <vmm_unmap>
c010ab54:	b8 00 00 00 00       	mov    $0x0,%eax
c010ab59:	c9                   	leave  
c010ab5a:	c3                   	ret    

c010ab5b <arch_unmap>:
c010ab5b:	55                   	push   %ebp
c010ab5c:	89 e5                	mov    %esp,%ebp
c010ab5e:	83 ec 28             	sub    $0x28,%esp
c010ab61:	8b 45 0c             	mov    0xc(%ebp),%eax
c010ab64:	c1 e8 16             	shr    $0x16,%eax
c010ab67:	c7 44 24 08 02 00 00 	movl   $0x2,0x8(%esp)
c010ab6e:	00 
c010ab6f:	89 44 24 04          	mov    %eax,0x4(%esp)
c010ab73:	8b 45 08             	mov    0x8(%ebp),%eax
c010ab76:	89 04 24             	mov    %eax,(%esp)
c010ab79:	e8 85 fd ff ff       	call   c010a903 <pt_get>
c010ab7e:	89 45 ec             	mov    %eax,-0x14(%ebp)
c010ab81:	8b 45 0c             	mov    0xc(%ebp),%eax
c010ab84:	c1 e8 0c             	shr    $0xc,%eax
c010ab87:	25 ff 03 00 00       	and    $0x3ff,%eax
c010ab8c:	8d 14 85 00 00 00 00 	lea    0x0(,%eax,4),%edx
c010ab93:	8b 45 ec             	mov    -0x14(%ebp),%eax
c010ab96:	01 d0                	add    %edx,%eax
c010ab98:	c7 00 00 00 00 00    	movl   $0x0,(%eax)
c010ab9e:	c7 45 f4 01 00 00 00 	movl   $0x1,-0xc(%ebp)
c010aba5:	c7 45 f0 00 00 00 00 	movl   $0x0,-0x10(%ebp)
c010abac:	eb 22                	jmp    c010abd0 <arch_unmap+0x75>
c010abae:	8b 45 f0             	mov    -0x10(%ebp),%eax
c010abb1:	8d 14 85 00 00 00 00 	lea    0x0(,%eax,4),%edx
c010abb8:	8b 45 ec             	mov    -0x14(%ebp),%eax
c010abbb:	01 d0                	add    %edx,%eax
c010abbd:	8b 00                	mov    (%eax),%eax
c010abbf:	85 c0                	test   %eax,%eax
c010abc1:	74 09                	je     c010abcc <arch_unmap+0x71>
c010abc3:	c7 45 f4 00 00 00 00 	movl   $0x0,-0xc(%ebp)
c010abca:	eb 0d                	jmp    c010abd9 <arch_unmap+0x7e>
c010abcc:	83 45 f0 01          	addl   $0x1,-0x10(%ebp)
c010abd0:	81 7d f0 ff 03 00 00 	cmpl   $0x3ff,-0x10(%ebp)
c010abd7:	7e d5                	jle    c010abae <arch_unmap+0x53>
c010abd9:	83 7d f4 00          	cmpl   $0x0,-0xc(%ebp)
c010abdd:	74 15                	je     c010abf4 <arch_unmap+0x99>
c010abdf:	8b 45 0c             	mov    0xc(%ebp),%eax
c010abe2:	c1 e8 16             	shr    $0x16,%eax
c010abe5:	89 44 24 04          	mov    %eax,0x4(%esp)
c010abe9:	8b 45 08             	mov    0x8(%ebp),%eax
c010abec:	89 04 24             	mov    %eax,(%esp)
c010abef:	e8 0b fe ff ff       	call   c010a9ff <pt_destroy>
c010abf4:	b8 00 00 00 00       	mov    $0x0,%eax
c010abf9:	c9                   	leave  
c010abfa:	c3                   	ret    

c010abfb <arch_vaddr_find>:
c010abfb:	55                   	push   %ebp
c010abfc:	89 e5                	mov    %esp,%ebp
c010abfe:	83 ec 48             	sub    $0x48,%esp
c010ac01:	c7 45 f4 00 00 00 00 	movl   $0x0,-0xc(%ebp)
c010ac08:	c7 45 e4 00 00 00 00 	movl   $0x0,-0x1c(%ebp)
c010ac0f:	c7 45 f0 00 00 00 00 	movl   $0x0,-0x10(%ebp)
c010ac16:	8b 45 10             	mov    0x10(%ebp),%eax
c010ac19:	c1 e8 16             	shr    $0x16,%eax
c010ac1c:	89 45 ec             	mov    %eax,-0x14(%ebp)
c010ac1f:	8b 45 10             	mov    0x10(%ebp),%eax
c010ac22:	c1 e8 0c             	shr    $0xc,%eax
c010ac25:	25 ff 03 00 00       	and    $0x3ff,%eax
c010ac2a:	89 45 e8             	mov    %eax,-0x18(%ebp)
c010ac2d:	8b 45 14             	mov    0x14(%ebp),%eax
c010ac30:	c1 e8 16             	shr    $0x16,%eax
c010ac33:	89 45 e0             	mov    %eax,-0x20(%ebp)
c010ac36:	8b 45 14             	mov    0x14(%ebp),%eax
c010ac39:	c1 e8 0c             	shr    $0xc,%eax
c010ac3c:	25 ff 03 00 00       	and    $0x3ff,%eax
c010ac41:	89 45 dc             	mov    %eax,-0x24(%ebp)
c010ac44:	e9 f2 00 00 00       	jmp    c010ad3b <arch_vaddr_find+0x140>
c010ac49:	8b 45 08             	mov    0x8(%ebp),%eax
c010ac4c:	8b 00                	mov    (%eax),%eax
c010ac4e:	8b 55 ec             	mov    -0x14(%ebp),%edx
c010ac51:	c1 e2 02             	shl    $0x2,%edx
c010ac54:	01 d0                	add    %edx,%eax
c010ac56:	8b 00                	mov    (%eax),%eax
c010ac58:	83 e0 01             	and    $0x1,%eax
c010ac5b:	85 c0                	test   %eax,%eax
c010ac5d:	0f 84 a1 00 00 00    	je     c010ad04 <arch_vaddr_find+0x109>
c010ac63:	8b 45 18             	mov    0x18(%ebp),%eax
c010ac66:	0f b6 d0             	movzbl %al,%edx
c010ac69:	8b 45 ec             	mov    -0x14(%ebp),%eax
c010ac6c:	89 54 24 08          	mov    %edx,0x8(%esp)
c010ac70:	89 44 24 04          	mov    %eax,0x4(%esp)
c010ac74:	8b 45 08             	mov    0x8(%ebp),%eax
c010ac77:	89 04 24             	mov    %eax,(%esp)
c010ac7a:	e8 84 fc ff ff       	call   c010a903 <pt_get>
c010ac7f:	89 45 d8             	mov    %eax,-0x28(%ebp)
c010ac82:	8b 45 ec             	mov    -0x14(%ebp),%eax
c010ac85:	3b 45 e0             	cmp    -0x20(%ebp),%eax
c010ac88:	75 05                	jne    c010ac8f <arch_vaddr_find+0x94>
c010ac8a:	8b 45 dc             	mov    -0x24(%ebp),%eax
c010ac8d:	eb 05                	jmp    c010ac94 <arch_vaddr_find+0x99>
c010ac8f:	b8 00 04 00 00       	mov    $0x400,%eax
c010ac94:	89 45 d4             	mov    %eax,-0x2c(%ebp)
c010ac97:	eb 5a                	jmp    c010acf3 <arch_vaddr_find+0xf8>
c010ac99:	8b 45 e8             	mov    -0x18(%ebp),%eax
c010ac9c:	8d 14 85 00 00 00 00 	lea    0x0(,%eax,4),%edx
c010aca3:	8b 45 d8             	mov    -0x28(%ebp),%eax
c010aca6:	01 d0                	add    %edx,%eax
c010aca8:	8b 00                	mov    (%eax),%eax
c010acaa:	83 e0 01             	and    $0x1,%eax
c010acad:	85 c0                	test   %eax,%eax
c010acaf:	75 30                	jne    c010ace1 <arch_vaddr_find+0xe6>
c010acb1:	83 7d f4 00          	cmpl   $0x0,-0xc(%ebp)
c010acb5:	75 19                	jne    c010acd0 <arch_vaddr_find+0xd5>
c010acb7:	8b 45 ec             	mov    -0x14(%ebp),%eax
c010acba:	c1 e0 0a             	shl    $0xa,%eax
c010acbd:	89 c2                	mov    %eax,%edx
c010acbf:	8b 45 e8             	mov    -0x18(%ebp),%eax
c010acc2:	01 d0                	add    %edx,%eax
c010acc4:	89 45 e4             	mov    %eax,-0x1c(%ebp)
c010acc7:	8b 45 e4             	mov    -0x1c(%ebp),%eax
c010acca:	c1 e0 0c             	shl    $0xc,%eax
c010accd:	89 45 f4             	mov    %eax,-0xc(%ebp)
c010acd0:	83 45 f0 01          	addl   $0x1,-0x10(%ebp)
c010acd4:	8b 45 f0             	mov    -0x10(%ebp),%eax
c010acd7:	3b 45 0c             	cmp    0xc(%ebp),%eax
c010acda:	7c 13                	jl     c010acef <arch_vaddr_find+0xf4>
c010acdc:	8b 45 f4             	mov    -0xc(%ebp),%eax
c010acdf:	eb 6b                	jmp    c010ad4c <arch_vaddr_find+0x151>
c010ace1:	c7 45 f0 00 00 00 00 	movl   $0x0,-0x10(%ebp)
c010ace8:	c7 45 f4 00 00 00 00 	movl   $0x0,-0xc(%ebp)
c010acef:	83 45 e8 01          	addl   $0x1,-0x18(%ebp)
c010acf3:	8b 45 e8             	mov    -0x18(%ebp),%eax
c010acf6:	3b 45 d4             	cmp    -0x2c(%ebp),%eax
c010acf9:	72 9e                	jb     c010ac99 <arch_vaddr_find+0x9e>
c010acfb:	c7 45 e8 00 00 00 00 	movl   $0x0,-0x18(%ebp)
c010ad02:	eb 33                	jmp    c010ad37 <arch_vaddr_find+0x13c>
c010ad04:	83 7d f4 00          	cmpl   $0x0,-0xc(%ebp)
c010ad08:	75 19                	jne    c010ad23 <arch_vaddr_find+0x128>
c010ad0a:	8b 45 ec             	mov    -0x14(%ebp),%eax
c010ad0d:	c1 e0 0a             	shl    $0xa,%eax
c010ad10:	89 c2                	mov    %eax,%edx
c010ad12:	8b 45 e8             	mov    -0x18(%ebp),%eax
c010ad15:	01 d0                	add    %edx,%eax
c010ad17:	89 45 e4             	mov    %eax,-0x1c(%ebp)
c010ad1a:	8b 45 e4             	mov    -0x1c(%ebp),%eax
c010ad1d:	c1 e0 0c             	shl    $0xc,%eax
c010ad20:	89 45 f4             	mov    %eax,-0xc(%ebp)
c010ad23:	81 45 f0 00 04 00 00 	addl   $0x400,-0x10(%ebp)
c010ad2a:	8b 45 f0             	mov    -0x10(%ebp),%eax
c010ad2d:	3b 45 0c             	cmp    0xc(%ebp),%eax
c010ad30:	7c 05                	jl     c010ad37 <arch_vaddr_find+0x13c>
c010ad32:	8b 45 f4             	mov    -0xc(%ebp),%eax
c010ad35:	eb 15                	jmp    c010ad4c <arch_vaddr_find+0x151>
c010ad37:	83 45 ec 01          	addl   $0x1,-0x14(%ebp)
c010ad3b:	8b 45 ec             	mov    -0x14(%ebp),%eax
c010ad3e:	3b 45 e0             	cmp    -0x20(%ebp),%eax
c010ad41:	0f 86 02 ff ff ff    	jbe    c010ac49 <arch_vaddr_find+0x4e>
c010ad47:	b8 00 00 00 00       	mov    $0x0,%eax
c010ad4c:	c9                   	leave  
c010ad4d:	c3                   	ret    

c010ad4e <arch_vaddr2paddr>:
c010ad4e:	55                   	push   %ebp
c010ad4f:	89 e5                	mov    %esp,%ebp
c010ad51:	83 ec 28             	sub    $0x28,%esp
c010ad54:	8b 45 0c             	mov    0xc(%ebp),%eax
c010ad57:	c1 e8 16             	shr    $0x16,%eax
c010ad5a:	89 45 f4             	mov    %eax,-0xc(%ebp)
c010ad5d:	8b 45 0c             	mov    0xc(%ebp),%eax
c010ad60:	c1 e8 0c             	shr    $0xc,%eax
c010ad63:	25 ff 03 00 00       	and    $0x3ff,%eax
c010ad68:	89 45 f0             	mov    %eax,-0x10(%ebp)
c010ad6b:	8b 45 f4             	mov    -0xc(%ebp),%eax
c010ad6e:	c7 44 24 08 00 00 00 	movl   $0x0,0x8(%esp)
c010ad75:	00 
c010ad76:	89 44 24 04          	mov    %eax,0x4(%esp)
c010ad7a:	8b 45 08             	mov    0x8(%ebp),%eax
c010ad7d:	89 04 24             	mov    %eax,(%esp)
c010ad80:	e8 7e fb ff ff       	call   c010a903 <pt_get>
c010ad85:	89 45 ec             	mov    %eax,-0x14(%ebp)
c010ad88:	8b 45 f0             	mov    -0x10(%ebp),%eax
c010ad8b:	8d 14 85 00 00 00 00 	lea    0x0(,%eax,4),%edx
c010ad92:	8b 45 ec             	mov    -0x14(%ebp),%eax
c010ad95:	01 d0                	add    %edx,%eax
c010ad97:	8b 00                	mov    (%eax),%eax
c010ad99:	25 00 f0 ff ff       	and    $0xfffff000,%eax
c010ad9e:	c9                   	leave  
c010ad9f:	c3                   	ret    

c010ada0 <arch_switch_context>:
c010ada0:	55                   	push   %ebp
c010ada1:	89 e5                	mov    %esp,%ebp
c010ada3:	8b 45 08             	mov    0x8(%ebp),%eax
c010ada6:	8b 40 04             	mov    0x4(%eax),%eax
c010ada9:	0f 22 d8             	mov    %eax,%cr3
c010adac:	5d                   	pop    %ebp
c010adad:	c3                   	ret    

c010adae <page_fault_handler>:
c010adae:	55                   	push   %ebp
c010adaf:	89 e5                	mov    %esp,%ebp
c010adb1:	53                   	push   %ebx
c010adb2:	81 ec 34 02 00 00    	sub    $0x234,%esp
c010adb8:	8b 45 08             	mov    0x8(%ebp),%eax
c010adbb:	8b 00                	mov    (%eax),%eax
c010adbd:	89 45 f4             	mov    %eax,-0xc(%ebp)
c010adc0:	0f 20 d0             	mov    %cr2,%eax
c010adc3:	89 45 f0             	mov    %eax,-0x10(%ebp)
c010adc6:	8b 45 f4             	mov    -0xc(%ebp),%eax
c010adc9:	8b 58 34             	mov    0x34(%eax),%ebx
c010adcc:	8b 45 f4             	mov    -0xc(%ebp),%eax
c010adcf:	8b 40 30             	mov    0x30(%eax),%eax
c010add2:	83 e0 01             	and    $0x1,%eax
c010add5:	85 c0                	test   %eax,%eax
c010add7:	74 07                	je     c010ade0 <page_fault_handler+0x32>
c010add9:	b9 a6 ed 10 c0       	mov    $0xc010eda6,%ecx
c010adde:	eb 05                	jmp    c010ade5 <page_fault_handler+0x37>
c010ade0:	b9 b4 ed 10 c0       	mov    $0xc010edb4,%ecx
c010ade5:	8b 45 f4             	mov    -0xc(%ebp),%eax
c010ade8:	8b 40 30             	mov    0x30(%eax),%eax
c010adeb:	83 e0 02             	and    $0x2,%eax
c010adee:	85 c0                	test   %eax,%eax
c010adf0:	74 07                	je     c010adf9 <page_fault_handler+0x4b>
c010adf2:	ba c2 ed 10 c0       	mov    $0xc010edc2,%edx
c010adf7:	eb 05                	jmp    c010adfe <page_fault_handler+0x50>
c010adf9:	ba cd ed 10 c0       	mov    $0xc010edcd,%edx
c010adfe:	8b 45 f4             	mov    -0xc(%ebp),%eax
c010ae01:	8b 40 30             	mov    0x30(%eax),%eax
c010ae04:	83 e0 04             	and    $0x4,%eax
c010ae07:	85 c0                	test   %eax,%eax
c010ae09:	74 07                	je     c010ae12 <page_fault_handler+0x64>
c010ae0b:	b8 d8 ed 10 c0       	mov    $0xc010edd8,%eax
c010ae10:	eb 05                	jmp    c010ae17 <page_fault_handler+0x69>
c010ae12:	b8 dd ed 10 c0       	mov    $0xc010eddd,%eax
c010ae17:	89 5c 24 18          	mov    %ebx,0x18(%esp)
c010ae1b:	89 4c 24 14          	mov    %ecx,0x14(%esp)
c010ae1f:	8b 4d f0             	mov    -0x10(%ebp),%ecx
c010ae22:	89 4c 24 10          	mov    %ecx,0x10(%esp)
c010ae26:	89 54 24 0c          	mov    %edx,0xc(%esp)
c010ae2a:	89 44 24 08          	mov    %eax,0x8(%esp)
c010ae2e:	c7 44 24 04 e4 ed 10 	movl   $0xc010ede4,0x4(%esp)
c010ae35:	c0 
c010ae36:	8d 85 f0 fd ff ff    	lea    -0x210(%ebp),%eax
c010ae3c:	89 04 24             	mov    %eax,(%esp)
c010ae3f:	e8 74 0a 00 00       	call   c010b8b8 <sprintf>
c010ae44:	8d 85 f0 fd ff ff    	lea    -0x210(%ebp),%eax
c010ae4a:	89 04 24             	mov    %eax,(%esp)
c010ae4d:	e8 68 d5 ff ff       	call   c01083ba <panic>
c010ae52:	81 c4 34 02 00 00    	add    $0x234,%esp
c010ae58:	5b                   	pop    %ebx
c010ae59:	5d                   	pop    %ebp
c010ae5a:	c3                   	ret    

c010ae5b <paging_flush_tlb>:
c010ae5b:	55                   	push   %ebp
c010ae5c:	89 e5                	mov    %esp,%ebp
c010ae5e:	8b 45 08             	mov    0x8(%ebp),%eax
c010ae61:	0f 01 38             	invlpg (%eax)
c010ae64:	5d                   	pop    %ebp
c010ae65:	c3                   	ret    

c010ae66 <pmm_count_free_pages>:
c010ae66:	55                   	push   %ebp
c010ae67:	89 e5                	mov    %esp,%ebp
c010ae69:	53                   	push   %ebx
c010ae6a:	83 ec 10             	sub    $0x10,%esp
c010ae6d:	c7 45 f8 00 00 00 00 	movl   $0x0,-0x8(%ebp)
c010ae74:	c7 45 f4 00 00 00 00 	movl   $0x0,-0xc(%ebp)
c010ae7b:	eb 39                	jmp    c010aeb6 <pmm_count_free_pages+0x50>
c010ae7d:	c7 45 f0 00 00 00 00 	movl   $0x0,-0x10(%ebp)
c010ae84:	eb 26                	jmp    c010aeac <pmm_count_free_pages+0x46>
c010ae86:	8b 45 f4             	mov    -0xc(%ebp),%eax
c010ae89:	8b 14 85 c0 60 11 c0 	mov    -0x3fee9f40(,%eax,4),%edx
c010ae90:	8b 45 f0             	mov    -0x10(%ebp),%eax
c010ae93:	bb 01 00 00 00       	mov    $0x1,%ebx
c010ae98:	89 c1                	mov    %eax,%ecx
c010ae9a:	d3 e3                	shl    %cl,%ebx
c010ae9c:	89 d8                	mov    %ebx,%eax
c010ae9e:	21 d0                	and    %edx,%eax
c010aea0:	85 c0                	test   %eax,%eax
c010aea2:	74 04                	je     c010aea8 <pmm_count_free_pages+0x42>
c010aea4:	83 45 f8 01          	addl   $0x1,-0x8(%ebp)
c010aea8:	83 45 f0 01          	addl   $0x1,-0x10(%ebp)
c010aeac:	83 7d f0 1f          	cmpl   $0x1f,-0x10(%ebp)
c010aeb0:	7e d4                	jle    c010ae86 <pmm_count_free_pages+0x20>
c010aeb2:	83 45 f4 01          	addl   $0x1,-0xc(%ebp)
c010aeb6:	81 7d f4 ff 7f 00 00 	cmpl   $0x7fff,-0xc(%ebp)
c010aebd:	7e be                	jle    c010ae7d <pmm_count_free_pages+0x17>
c010aebf:	8b 45 f8             	mov    -0x8(%ebp),%eax
c010aec2:	83 c4 10             	add    $0x10,%esp
c010aec5:	5b                   	pop    %ebx
c010aec6:	5d                   	pop    %ebp
c010aec7:	c3                   	ret    

c010aec8 <pmm_mark_page_as_free>:
c010aec8:	55                   	push   %ebp
c010aec9:	89 e5                	mov    %esp,%ebp
c010aecb:	56                   	push   %esi
c010aecc:	53                   	push   %ebx
c010aecd:	8b 45 08             	mov    0x8(%ebp),%eax
c010aed0:	c1 e8 11             	shr    $0x11,%eax
c010aed3:	8b 1c 85 c0 60 11 c0 	mov    -0x3fee9f40(,%eax,4),%ebx
c010aeda:	8b 55 08             	mov    0x8(%ebp),%edx
c010aedd:	c1 ea 0c             	shr    $0xc,%edx
c010aee0:	83 e2 1f             	and    $0x1f,%edx
c010aee3:	be 01 00 00 00       	mov    $0x1,%esi
c010aee8:	89 d1                	mov    %edx,%ecx
c010aeea:	d3 e6                	shl    %cl,%esi
c010aeec:	89 f2                	mov    %esi,%edx
c010aeee:	09 da                	or     %ebx,%edx
c010aef0:	89 14 85 c0 60 11 c0 	mov    %edx,-0x3fee9f40(,%eax,4)
c010aef7:	5b                   	pop    %ebx
c010aef8:	5e                   	pop    %esi
c010aef9:	5d                   	pop    %ebp
c010aefa:	c3                   	ret    

c010aefb <pmm_mark_page_range_as_free>:
c010aefb:	55                   	push   %ebp
c010aefc:	89 e5                	mov    %esp,%ebp
c010aefe:	83 ec 28             	sub    $0x28,%esp
c010af01:	83 7d 0c 00          	cmpl   $0x0,0xc(%ebp)
c010af05:	75 0c                	jne    c010af13 <pmm_mark_page_range_as_free+0x18>
c010af07:	c7 04 24 28 ee 10 c0 	movl   $0xc010ee28,(%esp)
c010af0e:	e8 a7 d4 ff ff       	call   c01083ba <panic>
c010af13:	8b 45 08             	mov    0x8(%ebp),%eax
c010af16:	c1 e8 0c             	shr    $0xc,%eax
c010af19:	89 c2                	mov    %eax,%edx
c010af1b:	8b 45 0c             	mov    0xc(%ebp),%eax
c010af1e:	01 d0                	add    %edx,%eax
c010af20:	3d 00 00 10 00       	cmp    $0x100000,%eax
c010af25:	76 0c                	jbe    c010af33 <pmm_mark_page_range_as_free+0x38>
c010af27:	c7 04 24 58 ee 10 c0 	movl   $0xc010ee58,(%esp)
c010af2e:	e8 87 d4 ff ff       	call   c01083ba <panic>
c010af33:	c7 45 f4 00 00 00 00 	movl   $0x0,-0xc(%ebp)
c010af3a:	eb 19                	jmp    c010af55 <pmm_mark_page_range_as_free+0x5a>
c010af3c:	8b 45 f4             	mov    -0xc(%ebp),%eax
c010af3f:	c1 e0 0c             	shl    $0xc,%eax
c010af42:	89 c2                	mov    %eax,%edx
c010af44:	8b 45 08             	mov    0x8(%ebp),%eax
c010af47:	01 d0                	add    %edx,%eax
c010af49:	89 04 24             	mov    %eax,(%esp)
c010af4c:	e8 77 ff ff ff       	call   c010aec8 <pmm_mark_page_as_free>
c010af51:	83 45 f4 01          	addl   $0x1,-0xc(%ebp)
c010af55:	8b 45 f4             	mov    -0xc(%ebp),%eax
c010af58:	3b 45 0c             	cmp    0xc(%ebp),%eax
c010af5b:	72 df                	jb     c010af3c <pmm_mark_page_range_as_free+0x41>
c010af5d:	c9                   	leave  
c010af5e:	c3                   	ret    

c010af5f <pmm_mark_page_as_used>:
c010af5f:	55                   	push   %ebp
c010af60:	89 e5                	mov    %esp,%ebp
c010af62:	56                   	push   %esi
c010af63:	53                   	push   %ebx
c010af64:	8b 45 08             	mov    0x8(%ebp),%eax
c010af67:	c1 e8 11             	shr    $0x11,%eax
c010af6a:	8b 1c 85 c0 60 11 c0 	mov    -0x3fee9f40(,%eax,4),%ebx
c010af71:	8b 55 08             	mov    0x8(%ebp),%edx
c010af74:	c1 ea 0c             	shr    $0xc,%edx
c010af77:	83 e2 1f             	and    $0x1f,%edx
c010af7a:	be 01 00 00 00       	mov    $0x1,%esi
c010af7f:	89 d1                	mov    %edx,%ecx
c010af81:	d3 e6                	shl    %cl,%esi
c010af83:	89 f2                	mov    %esi,%edx
c010af85:	f7 d2                	not    %edx
c010af87:	21 da                	and    %ebx,%edx
c010af89:	89 14 85 c0 60 11 c0 	mov    %edx,-0x3fee9f40(,%eax,4)
c010af90:	5b                   	pop    %ebx
c010af91:	5e                   	pop    %esi
c010af92:	5d                   	pop    %ebp
c010af93:	c3                   	ret    

c010af94 <pmm_mark_page_range_as_used>:
c010af94:	55                   	push   %ebp
c010af95:	89 e5                	mov    %esp,%ebp
c010af97:	83 ec 28             	sub    $0x28,%esp
c010af9a:	83 7d 0c 00          	cmpl   $0x0,0xc(%ebp)
c010af9e:	75 0c                	jne    c010afac <pmm_mark_page_range_as_used+0x18>
c010afa0:	c7 04 24 bc ee 10 c0 	movl   $0xc010eebc,(%esp)
c010afa7:	e8 0e d4 ff ff       	call   c01083ba <panic>
c010afac:	8b 45 08             	mov    0x8(%ebp),%eax
c010afaf:	c1 e8 0c             	shr    $0xc,%eax
c010afb2:	89 c2                	mov    %eax,%edx
c010afb4:	8b 45 0c             	mov    0xc(%ebp),%eax
c010afb7:	01 d0                	add    %edx,%eax
c010afb9:	3d 00 00 10 00       	cmp    $0x100000,%eax
c010afbe:	76 0c                	jbe    c010afcc <pmm_mark_page_range_as_used+0x38>
c010afc0:	c7 04 24 ec ee 10 c0 	movl   $0xc010eeec,(%esp)
c010afc7:	e8 ee d3 ff ff       	call   c01083ba <panic>
c010afcc:	c7 45 f4 00 00 00 00 	movl   $0x0,-0xc(%ebp)
c010afd3:	eb 19                	jmp    c010afee <pmm_mark_page_range_as_used+0x5a>
c010afd5:	8b 45 f4             	mov    -0xc(%ebp),%eax
c010afd8:	c1 e0 0c             	shl    $0xc,%eax
c010afdb:	89 c2                	mov    %eax,%edx
c010afdd:	8b 45 08             	mov    0x8(%ebp),%eax
c010afe0:	01 d0                	add    %edx,%eax
c010afe2:	89 04 24             	mov    %eax,(%esp)
c010afe5:	e8 75 ff ff ff       	call   c010af5f <pmm_mark_page_as_used>
c010afea:	83 45 f4 01          	addl   $0x1,-0xc(%ebp)
c010afee:	8b 45 f4             	mov    -0xc(%ebp),%eax
c010aff1:	3b 45 0c             	cmp    0xc(%ebp),%eax
c010aff4:	72 df                	jb     c010afd5 <pmm_mark_page_range_as_used+0x41>
c010aff6:	c9                   	leave  
c010aff7:	c3                   	ret    

c010aff8 <pmm_find_free_page>:
c010aff8:	55                   	push   %ebp
c010aff9:	89 e5                	mov    %esp,%ebp
c010affb:	53                   	push   %ebx
c010affc:	83 ec 24             	sub    $0x24,%esp
c010afff:	c7 45 f0 00 00 00 00 	movl   $0x0,-0x10(%ebp)
c010b006:	8b 45 08             	mov    0x8(%ebp),%eax
c010b009:	c1 e8 11             	shr    $0x11,%eax
c010b00c:	89 45 f4             	mov    %eax,-0xc(%ebp)
c010b00f:	8b 45 f4             	mov    -0xc(%ebp),%eax
c010b012:	8b 04 85 c0 60 11 c0 	mov    -0x3fee9f40(,%eax,4),%eax
c010b019:	8b 55 08             	mov    0x8(%ebp),%edx
c010b01c:	c1 ea 0c             	shr    $0xc,%edx
c010b01f:	83 e2 1f             	and    $0x1f,%edx
c010b022:	bb ff ff ff ff       	mov    $0xffffffff,%ebx
c010b027:	89 d1                	mov    %edx,%ecx
c010b029:	d3 e3                	shl    %cl,%ebx
c010b02b:	89 da                	mov    %ebx,%edx
c010b02d:	21 d0                	and    %edx,%eax
c010b02f:	85 c0                	test   %eax,%eax
c010b031:	74 43                	je     c010b076 <pmm_find_free_page+0x7e>
c010b033:	8b 45 f4             	mov    -0xc(%ebp),%eax
c010b036:	8b 04 85 c0 60 11 c0 	mov    -0x3fee9f40(,%eax,4),%eax
c010b03d:	8b 55 08             	mov    0x8(%ebp),%edx
c010b040:	c1 ea 0c             	shr    $0xc,%edx
c010b043:	83 e2 1f             	and    $0x1f,%edx
c010b046:	bb ff ff ff ff       	mov    $0xffffffff,%ebx
c010b04b:	89 d1                	mov    %edx,%ecx
c010b04d:	d3 e3                	shl    %cl,%ebx
c010b04f:	89 da                	mov    %ebx,%edx
c010b051:	21 d0                	and    %edx,%eax
c010b053:	89 04 24             	mov    %eax,(%esp)
c010b056:	e8 b6 07 00 00       	call   c010b811 <bit_scan_forward>
c010b05b:	89 45 ec             	mov    %eax,-0x14(%ebp)
c010b05e:	8b 45 f4             	mov    -0xc(%ebp),%eax
c010b061:	c1 e0 05             	shl    $0x5,%eax
c010b064:	89 c2                	mov    %eax,%edx
c010b066:	8b 45 ec             	mov    -0x14(%ebp),%eax
c010b069:	01 d0                	add    %edx,%eax
c010b06b:	c1 e0 0c             	shl    $0xc,%eax
c010b06e:	89 45 f0             	mov    %eax,-0x10(%ebp)
c010b071:	8b 45 f0             	mov    -0x10(%ebp),%eax
c010b074:	eb 53                	jmp    c010b0c9 <pmm_find_free_page+0xd1>
c010b076:	83 45 f4 01          	addl   $0x1,-0xc(%ebp)
c010b07a:	eb 3f                	jmp    c010b0bb <pmm_find_free_page+0xc3>
c010b07c:	8b 45 f4             	mov    -0xc(%ebp),%eax
c010b07f:	8b 04 85 c0 60 11 c0 	mov    -0x3fee9f40(,%eax,4),%eax
c010b086:	85 c0                	test   %eax,%eax
c010b088:	74 2d                	je     c010b0b7 <pmm_find_free_page+0xbf>
c010b08a:	8b 45 f4             	mov    -0xc(%ebp),%eax
c010b08d:	8b 04 85 c0 60 11 c0 	mov    -0x3fee9f40(,%eax,4),%eax
c010b094:	89 04 24             	mov    %eax,(%esp)
c010b097:	e8 75 07 00 00       	call   c010b811 <bit_scan_forward>
c010b09c:	89 45 ec             	mov    %eax,-0x14(%ebp)
c010b09f:	8b 45 f4             	mov    -0xc(%ebp),%eax
c010b0a2:	c1 e0 05             	shl    $0x5,%eax
c010b0a5:	89 c2                	mov    %eax,%edx
c010b0a7:	8b 45 ec             	mov    -0x14(%ebp),%eax
c010b0aa:	01 d0                	add    %edx,%eax
c010b0ac:	c1 e0 0c             	shl    $0xc,%eax
c010b0af:	89 45 f0             	mov    %eax,-0x10(%ebp)
c010b0b2:	8b 45 f0             	mov    -0x10(%ebp),%eax
c010b0b5:	eb 12                	jmp    c010b0c9 <pmm_find_free_page+0xd1>
c010b0b7:	83 45 f4 01          	addl   $0x1,-0xc(%ebp)
c010b0bb:	81 7d f4 ff 7f 00 00 	cmpl   $0x7fff,-0xc(%ebp)
c010b0c2:	76 b8                	jbe    c010b07c <pmm_find_free_page+0x84>
c010b0c4:	b8 ff ff ff ff       	mov    $0xffffffff,%eax
c010b0c9:	83 c4 24             	add    $0x24,%esp
c010b0cc:	5b                   	pop    %ebx
c010b0cd:	5d                   	pop    %ebp
c010b0ce:	c3                   	ret    

c010b0cf <pmm_find_free_page_range>:
c010b0cf:	55                   	push   %ebp
c010b0d0:	89 e5                	mov    %esp,%ebp
c010b0d2:	53                   	push   %ebx
c010b0d3:	83 ec 24             	sub    $0x24,%esp
c010b0d6:	c7 45 ec 00 00 00 00 	movl   $0x0,-0x14(%ebp)
c010b0dd:	c7 45 e8 00 00 00 00 	movl   $0x0,-0x18(%ebp)
c010b0e4:	83 7d 0c 00          	cmpl   $0x0,0xc(%ebp)
c010b0e8:	75 0c                	jne    c010b0f6 <pmm_find_free_page_range+0x27>
c010b0ea:	c7 04 24 50 ef 10 c0 	movl   $0xc010ef50,(%esp)
c010b0f1:	e8 c4 d2 ff ff       	call   c01083ba <panic>
c010b0f6:	8b 45 08             	mov    0x8(%ebp),%eax
c010b0f9:	c1 e8 11             	shr    $0x11,%eax
c010b0fc:	89 45 f4             	mov    %eax,-0xc(%ebp)
c010b0ff:	e9 d0 00 00 00       	jmp    c010b1d4 <pmm_find_free_page_range+0x105>
c010b104:	8b 45 f4             	mov    -0xc(%ebp),%eax
c010b107:	89 44 24 04          	mov    %eax,0x4(%esp)
c010b10b:	c7 04 24 80 ef 10 c0 	movl   $0xc010ef80,(%esp)
c010b112:	e8 34 07 00 00       	call   c010b84b <printf>
c010b117:	8b 45 f4             	mov    -0xc(%ebp),%eax
c010b11a:	8b 04 85 c0 60 11 c0 	mov    -0x3fee9f40(,%eax,4),%eax
c010b121:	85 c0                	test   %eax,%eax
c010b123:	75 0c                	jne    c010b131 <pmm_find_free_page_range+0x62>
c010b125:	c7 45 ec 00 00 00 00 	movl   $0x0,-0x14(%ebp)
c010b12c:	e9 9f 00 00 00       	jmp    c010b1d0 <pmm_find_free_page_range+0x101>
c010b131:	8b 45 f4             	mov    -0xc(%ebp),%eax
c010b134:	8b 04 85 c0 60 11 c0 	mov    -0x3fee9f40(,%eax,4),%eax
c010b13b:	83 f8 ff             	cmp    $0xffffffff,%eax
c010b13e:	75 15                	jne    c010b155 <pmm_find_free_page_range+0x86>
c010b140:	83 7d ec 00          	cmpl   $0x0,-0x14(%ebp)
c010b144:	75 09                	jne    c010b14f <pmm_find_free_page_range+0x80>
c010b146:	8b 45 f4             	mov    -0xc(%ebp),%eax
c010b149:	c1 e0 11             	shl    $0x11,%eax
c010b14c:	89 45 e8             	mov    %eax,-0x18(%ebp)
c010b14f:	83 45 ec 20          	addl   $0x20,-0x14(%ebp)
c010b153:	eb 6e                	jmp    c010b1c3 <pmm_find_free_page_range+0xf4>
c010b155:	c7 04 24 84 ef 10 c0 	movl   $0xc010ef84,(%esp)
c010b15c:	e8 5d 8f ff ff       	call   c01040be <puts>
c010b161:	c7 45 f0 00 00 00 00 	movl   $0x0,-0x10(%ebp)
c010b168:	eb 53                	jmp    c010b1bd <pmm_find_free_page_range+0xee>
c010b16a:	8b 45 f4             	mov    -0xc(%ebp),%eax
c010b16d:	8b 14 85 c0 60 11 c0 	mov    -0x3fee9f40(,%eax,4),%edx
c010b174:	8b 45 f0             	mov    -0x10(%ebp),%eax
c010b177:	bb 01 00 00 00       	mov    $0x1,%ebx
c010b17c:	89 c1                	mov    %eax,%ecx
c010b17e:	d3 e3                	shl    %cl,%ebx
c010b180:	89 d8                	mov    %ebx,%eax
c010b182:	21 d0                	and    %edx,%eax
c010b184:	85 c0                	test   %eax,%eax
c010b186:	74 2a                	je     c010b1b2 <pmm_find_free_page_range+0xe3>
c010b188:	83 7d ec 00          	cmpl   $0x0,-0x14(%ebp)
c010b18c:	75 13                	jne    c010b1a1 <pmm_find_free_page_range+0xd2>
c010b18e:	8b 45 f4             	mov    -0xc(%ebp),%eax
c010b191:	c1 e0 05             	shl    $0x5,%eax
c010b194:	89 c2                	mov    %eax,%edx
c010b196:	8b 45 f0             	mov    -0x10(%ebp),%eax
c010b199:	01 d0                	add    %edx,%eax
c010b19b:	c1 e0 0c             	shl    $0xc,%eax
c010b19e:	89 45 e8             	mov    %eax,-0x18(%ebp)
c010b1a1:	83 45 ec 01          	addl   $0x1,-0x14(%ebp)
c010b1a5:	8b 45 ec             	mov    -0x14(%ebp),%eax
c010b1a8:	3b 45 0c             	cmp    0xc(%ebp),%eax
c010b1ab:	72 0c                	jb     c010b1b9 <pmm_find_free_page_range+0xea>
c010b1ad:	8b 45 e8             	mov    -0x18(%ebp),%eax
c010b1b0:	eb 34                	jmp    c010b1e6 <pmm_find_free_page_range+0x117>
c010b1b2:	c7 45 ec 00 00 00 00 	movl   $0x0,-0x14(%ebp)
c010b1b9:	83 45 f0 01          	addl   $0x1,-0x10(%ebp)
c010b1bd:	83 7d f0 1f          	cmpl   $0x1f,-0x10(%ebp)
c010b1c1:	76 a7                	jbe    c010b16a <pmm_find_free_page_range+0x9b>
c010b1c3:	8b 45 ec             	mov    -0x14(%ebp),%eax
c010b1c6:	3b 45 0c             	cmp    0xc(%ebp),%eax
c010b1c9:	72 05                	jb     c010b1d0 <pmm_find_free_page_range+0x101>
c010b1cb:	8b 45 e8             	mov    -0x18(%ebp),%eax
c010b1ce:	eb 16                	jmp    c010b1e6 <pmm_find_free_page_range+0x117>
c010b1d0:	83 45 f4 01          	addl   $0x1,-0xc(%ebp)
c010b1d4:	81 7d f4 ff 7f 00 00 	cmpl   $0x7fff,-0xc(%ebp)
c010b1db:	0f 86 23 ff ff ff    	jbe    c010b104 <pmm_find_free_page_range+0x35>
c010b1e1:	b8 ff ff ff ff       	mov    $0xffffffff,%eax
c010b1e6:	83 c4 24             	add    $0x24,%esp
c010b1e9:	5b                   	pop    %ebx
c010b1ea:	5d                   	pop    %ebp
c010b1eb:	c3                   	ret    

c010b1ec <pmm_alloc_page>:
c010b1ec:	55                   	push   %ebp
c010b1ed:	89 e5                	mov    %esp,%ebp
c010b1ef:	83 ec 28             	sub    $0x28,%esp
c010b1f2:	c7 04 24 00 00 00 01 	movl   $0x1000000,(%esp)
c010b1f9:	e8 fa fd ff ff       	call   c010aff8 <pmm_find_free_page>
c010b1fe:	89 45 f4             	mov    %eax,-0xc(%ebp)
c010b201:	8b 45 f4             	mov    -0xc(%ebp),%eax
c010b204:	25 ff 0f 00 00       	and    $0xfff,%eax
c010b209:	85 c0                	test   %eax,%eax
c010b20b:	74 0c                	je     c010b219 <pmm_alloc_page+0x2d>
c010b20d:	c7 04 24 88 ef 10 c0 	movl   $0xc010ef88,(%esp)
c010b214:	e8 a1 d1 ff ff       	call   c01083ba <panic>
c010b219:	8b 45 f4             	mov    -0xc(%ebp),%eax
c010b21c:	89 04 24             	mov    %eax,(%esp)
c010b21f:	e8 3b fd ff ff       	call   c010af5f <pmm_mark_page_as_used>
c010b224:	8b 45 f4             	mov    -0xc(%ebp),%eax
c010b227:	c9                   	leave  
c010b228:	c3                   	ret    

c010b229 <pmm_alloc_page_limit>:
c010b229:	55                   	push   %ebp
c010b22a:	89 e5                	mov    %esp,%ebp
c010b22c:	83 ec 28             	sub    $0x28,%esp
c010b22f:	8b 45 08             	mov    0x8(%ebp),%eax
c010b232:	89 04 24             	mov    %eax,(%esp)
c010b235:	e8 be fd ff ff       	call   c010aff8 <pmm_find_free_page>
c010b23a:	89 45 f4             	mov    %eax,-0xc(%ebp)
c010b23d:	8b 45 f4             	mov    -0xc(%ebp),%eax
c010b240:	25 ff 0f 00 00       	and    $0xfff,%eax
c010b245:	85 c0                	test   %eax,%eax
c010b247:	74 0c                	je     c010b255 <pmm_alloc_page_limit+0x2c>
c010b249:	c7 04 24 b0 ef 10 c0 	movl   $0xc010efb0,(%esp)
c010b250:	e8 65 d1 ff ff       	call   c01083ba <panic>
c010b255:	8b 45 f4             	mov    -0xc(%ebp),%eax
c010b258:	89 04 24             	mov    %eax,(%esp)
c010b25b:	e8 ff fc ff ff       	call   c010af5f <pmm_mark_page_as_used>
c010b260:	8b 45 f4             	mov    -0xc(%ebp),%eax
c010b263:	c9                   	leave  
c010b264:	c3                   	ret    

c010b265 <pmm_alloc_dma_page_range>:
c010b265:	55                   	push   %ebp
c010b266:	89 e5                	mov    %esp,%ebp
c010b268:	83 ec 28             	sub    $0x28,%esp
c010b26b:	83 7d 08 00          	cmpl   $0x0,0x8(%ebp)
c010b26f:	75 0c                	jne    c010b27d <pmm_alloc_dma_page_range+0x18>
c010b271:	c7 04 24 dc ef 10 c0 	movl   $0xc010efdc,(%esp)
c010b278:	e8 3d d1 ff ff       	call   c01083ba <panic>
c010b27d:	8b 45 08             	mov    0x8(%ebp),%eax
c010b280:	89 44 24 04          	mov    %eax,0x4(%esp)
c010b284:	c7 04 24 00 00 00 00 	movl   $0x0,(%esp)
c010b28b:	e8 3f fe ff ff       	call   c010b0cf <pmm_find_free_page_range>
c010b290:	89 45 f4             	mov    %eax,-0xc(%ebp)
c010b293:	8b 45 f4             	mov    -0xc(%ebp),%eax
c010b296:	25 ff 0f 00 00       	and    $0xfff,%eax
c010b29b:	85 c0                	test   %eax,%eax
c010b29d:	75 09                	jne    c010b2a8 <pmm_alloc_dma_page_range+0x43>
c010b29f:	81 7d f4 ff ff ff 00 	cmpl   $0xffffff,-0xc(%ebp)
c010b2a6:	76 0c                	jbe    c010b2b4 <pmm_alloc_dma_page_range+0x4f>
c010b2a8:	c7 04 24 08 f0 10 c0 	movl   $0xc010f008,(%esp)
c010b2af:	e8 06 d1 ff ff       	call   c01083ba <panic>
c010b2b4:	8b 45 08             	mov    0x8(%ebp),%eax
c010b2b7:	89 44 24 04          	mov    %eax,0x4(%esp)
c010b2bb:	8b 45 f4             	mov    -0xc(%ebp),%eax
c010b2be:	89 04 24             	mov    %eax,(%esp)
c010b2c1:	e8 ce fc ff ff       	call   c010af94 <pmm_mark_page_range_as_used>
c010b2c6:	8b 45 f4             	mov    -0xc(%ebp),%eax
c010b2c9:	c9                   	leave  
c010b2ca:	c3                   	ret    

c010b2cb <pmm_alloc_page_range>:
c010b2cb:	55                   	push   %ebp
c010b2cc:	89 e5                	mov    %esp,%ebp
c010b2ce:	83 ec 28             	sub    $0x28,%esp
c010b2d1:	83 7d 08 00          	cmpl   $0x0,0x8(%ebp)
c010b2d5:	75 0c                	jne    c010b2e3 <pmm_alloc_page_range+0x18>
c010b2d7:	c7 04 24 3c f0 10 c0 	movl   $0xc010f03c,(%esp)
c010b2de:	e8 d7 d0 ff ff       	call   c01083ba <panic>
c010b2e3:	8b 45 08             	mov    0x8(%ebp),%eax
c010b2e6:	89 44 24 04          	mov    %eax,0x4(%esp)
c010b2ea:	c7 04 24 00 00 00 01 	movl   $0x1000000,(%esp)
c010b2f1:	e8 d9 fd ff ff       	call   c010b0cf <pmm_find_free_page_range>
c010b2f6:	89 45 f4             	mov    %eax,-0xc(%ebp)
c010b2f9:	8b 45 f4             	mov    -0xc(%ebp),%eax
c010b2fc:	25 ff 0f 00 00       	and    $0xfff,%eax
c010b301:	85 c0                	test   %eax,%eax
c010b303:	74 0c                	je     c010b311 <pmm_alloc_page_range+0x46>
c010b305:	c7 04 24 64 f0 10 c0 	movl   $0xc010f064,(%esp)
c010b30c:	e8 a9 d0 ff ff       	call   c01083ba <panic>
c010b311:	8b 45 08             	mov    0x8(%ebp),%eax
c010b314:	89 44 24 04          	mov    %eax,0x4(%esp)
c010b318:	8b 45 f4             	mov    -0xc(%ebp),%eax
c010b31b:	89 04 24             	mov    %eax,(%esp)
c010b31e:	e8 71 fc ff ff       	call   c010af94 <pmm_mark_page_range_as_used>
c010b323:	8b 45 f4             	mov    -0xc(%ebp),%eax
c010b326:	c9                   	leave  
c010b327:	c3                   	ret    

c010b328 <INIT_PMM>:
c010b328:	55                   	push   %ebp
c010b329:	89 e5                	mov    %esp,%ebp
c010b32b:	83 ec 48             	sub    $0x48,%esp
c010b32e:	c7 45 f4 00 00 00 00 	movl   $0x0,-0xc(%ebp)
c010b335:	eb 12                	jmp    c010b349 <INIT_PMM+0x21>
c010b337:	8b 45 f4             	mov    -0xc(%ebp),%eax
c010b33a:	c7 04 85 c0 60 11 c0 	movl   $0x0,-0x3fee9f40(,%eax,4)
c010b341:	00 00 00 00 
c010b345:	83 45 f4 01          	addl   $0x1,-0xc(%ebp)
c010b349:	81 7d f4 ff 7f 00 00 	cmpl   $0x7fff,-0xc(%ebp)
c010b350:	7e e5                	jle    c010b337 <INIT_PMM+0xf>
c010b352:	8b 45 08             	mov    0x8(%ebp),%eax
c010b355:	8b 40 30             	mov    0x30(%eax),%eax
c010b358:	8d 90 00 00 00 c0    	lea    -0x40000000(%eax),%edx
c010b35e:	8b 45 08             	mov    0x8(%ebp),%eax
c010b361:	89 50 30             	mov    %edx,0x30(%eax)
c010b364:	8b 45 08             	mov    0x8(%ebp),%eax
c010b367:	8b 40 18             	mov    0x18(%eax),%eax
c010b36a:	8d 90 00 00 00 c0    	lea    -0x40000000(%eax),%edx
c010b370:	8b 45 08             	mov    0x8(%ebp),%eax
c010b373:	89 50 18             	mov    %edx,0x18(%eax)
c010b376:	8b 45 08             	mov    0x8(%ebp),%eax
c010b379:	8b 40 30             	mov    0x30(%eax),%eax
c010b37c:	89 45 ec             	mov    %eax,-0x14(%ebp)
c010b37f:	c7 45 f0 00 00 00 00 	movl   $0x0,-0x10(%ebp)
c010b386:	c7 45 f4 00 00 00 00 	movl   $0x0,-0xc(%ebp)
c010b38d:	e9 90 00 00 00       	jmp    c010b422 <INIT_PMM+0xfa>
c010b392:	8b 55 f4             	mov    -0xc(%ebp),%edx
c010b395:	89 d0                	mov    %edx,%eax
c010b397:	01 c0                	add    %eax,%eax
c010b399:	01 d0                	add    %edx,%eax
c010b39b:	c1 e0 03             	shl    $0x3,%eax
c010b39e:	89 c2                	mov    %eax,%edx
c010b3a0:	8b 45 ec             	mov    -0x14(%ebp),%eax
c010b3a3:	01 d0                	add    %edx,%eax
c010b3a5:	8b 10                	mov    (%eax),%edx
c010b3a7:	8b 45 f0             	mov    -0x10(%ebp),%eax
c010b3aa:	01 d0                	add    %edx,%eax
c010b3ac:	83 c0 04             	add    $0x4,%eax
c010b3af:	89 45 f0             	mov    %eax,-0x10(%ebp)
c010b3b2:	8b 55 f4             	mov    -0xc(%ebp),%edx
c010b3b5:	89 d0                	mov    %edx,%eax
c010b3b7:	01 c0                	add    %eax,%eax
c010b3b9:	01 d0                	add    %edx,%eax
c010b3bb:	c1 e0 03             	shl    $0x3,%eax
c010b3be:	89 c2                	mov    %eax,%edx
c010b3c0:	8b 45 ec             	mov    -0x14(%ebp),%eax
c010b3c3:	01 d0                	add    %edx,%eax
c010b3c5:	8b 40 14             	mov    0x14(%eax),%eax
c010b3c8:	83 f8 01             	cmp    $0x1,%eax
c010b3cb:	75 51                	jne    c010b41e <INIT_PMM+0xf6>
c010b3cd:	8b 55 f4             	mov    -0xc(%ebp),%edx
c010b3d0:	89 d0                	mov    %edx,%eax
c010b3d2:	01 c0                	add    %eax,%eax
c010b3d4:	01 d0                	add    %edx,%eax
c010b3d6:	c1 e0 03             	shl    $0x3,%eax
c010b3d9:	89 c2                	mov    %eax,%edx
c010b3db:	8b 45 ec             	mov    -0x14(%ebp),%eax
c010b3de:	01 d0                	add    %edx,%eax
c010b3e0:	8b 50 08             	mov    0x8(%eax),%edx
c010b3e3:	8b 40 04             	mov    0x4(%eax),%eax
c010b3e6:	89 45 e8             	mov    %eax,-0x18(%ebp)
c010b3e9:	8b 55 f4             	mov    -0xc(%ebp),%edx
c010b3ec:	89 d0                	mov    %edx,%eax
c010b3ee:	01 c0                	add    %eax,%eax
c010b3f0:	01 d0                	add    %edx,%eax
c010b3f2:	c1 e0 03             	shl    $0x3,%eax
c010b3f5:	89 c2                	mov    %eax,%edx
c010b3f7:	8b 45 ec             	mov    -0x14(%ebp),%eax
c010b3fa:	01 d0                	add    %edx,%eax
c010b3fc:	8b 50 10             	mov    0x10(%eax),%edx
c010b3ff:	8b 40 0c             	mov    0xc(%eax),%eax
c010b402:	0f ac d0 0c          	shrd   $0xc,%edx,%eax
c010b406:	c1 ea 0c             	shr    $0xc,%edx
c010b409:	89 45 e4             	mov    %eax,-0x1c(%ebp)
c010b40c:	8b 45 e4             	mov    -0x1c(%ebp),%eax
c010b40f:	89 44 24 04          	mov    %eax,0x4(%esp)
c010b413:	8b 45 e8             	mov    -0x18(%ebp),%eax
c010b416:	89 04 24             	mov    %eax,(%esp)
c010b419:	e8 dd fa ff ff       	call   c010aefb <pmm_mark_page_range_as_free>
c010b41e:	83 45 f4 01          	addl   $0x1,-0xc(%ebp)
c010b422:	8b 55 f0             	mov    -0x10(%ebp),%edx
c010b425:	8b 45 08             	mov    0x8(%ebp),%eax
c010b428:	8b 40 2c             	mov    0x2c(%eax),%eax
c010b42b:	39 c2                	cmp    %eax,%edx
c010b42d:	0f 82 5f ff ff ff    	jb     c010b392 <INIT_PMM+0x6a>
c010b433:	c7 04 24 00 00 00 00 	movl   $0x0,(%esp)
c010b43a:	e8 20 fb ff ff       	call   c010af5f <pmm_mark_page_as_used>
c010b43f:	c7 45 e0 0e 04 00 00 	movl   $0x40e,-0x20(%ebp)
c010b446:	8b 45 e0             	mov    -0x20(%ebp),%eax
c010b449:	0f b7 00             	movzwl (%eax),%eax
c010b44c:	0f b7 c0             	movzwl %ax,%eax
c010b44f:	c1 e0 04             	shl    $0x4,%eax
c010b452:	89 04 24             	mov    %eax,(%esp)
c010b455:	e8 05 fb ff ff       	call   c010af5f <pmm_mark_page_as_used>
c010b45a:	c7 45 dc 13 04 00 00 	movl   $0x413,-0x24(%ebp)
c010b461:	8b 45 dc             	mov    -0x24(%ebp),%eax
c010b464:	0f b7 00             	movzwl (%eax),%eax
c010b467:	66 c1 e8 02          	shr    $0x2,%ax
c010b46b:	0f b7 c0             	movzwl %ax,%eax
c010b46e:	c1 e0 0a             	shl    $0xa,%eax
c010b471:	89 04 24             	mov    %eax,(%esp)
c010b474:	e8 e6 fa ff ff       	call   c010af5f <pmm_mark_page_as_used>
c010b479:	c7 44 24 04 60 00 00 	movl   $0x60,0x4(%esp)
c010b480:	00 
c010b481:	c7 04 24 00 00 0a 00 	movl   $0xa0000,(%esp)
c010b488:	e8 07 fb ff ff       	call   c010af94 <pmm_mark_page_range_as_used>
c010b48d:	8b 45 08             	mov    0x8(%ebp),%eax
c010b490:	8b 40 18             	mov    0x18(%eax),%eax
c010b493:	89 45 d8             	mov    %eax,-0x28(%ebp)
c010b496:	8b 45 08             	mov    0x8(%ebp),%eax
c010b499:	05 00 00 00 40       	add    $0x40000000,%eax
c010b49e:	89 04 24             	mov    %eax,(%esp)
c010b4a1:	e8 b9 fa ff ff       	call   c010af5f <pmm_mark_page_as_used>
c010b4a6:	8b 45 d8             	mov    -0x28(%ebp),%eax
c010b4a9:	05 00 00 00 40       	add    $0x40000000,%eax
c010b4ae:	89 04 24             	mov    %eax,(%esp)
c010b4b1:	e8 a9 fa ff ff       	call   c010af5f <pmm_mark_page_as_used>
c010b4b6:	c7 45 f4 00 00 00 00 	movl   $0x0,-0xc(%ebp)
c010b4bd:	eb 73                	jmp    c010b532 <INIT_PMM+0x20a>
c010b4bf:	8b 45 f4             	mov    -0xc(%ebp),%eax
c010b4c2:	c1 e0 04             	shl    $0x4,%eax
c010b4c5:	89 c2                	mov    %eax,%edx
c010b4c7:	8b 45 d8             	mov    -0x28(%ebp),%eax
c010b4ca:	01 d0                	add    %edx,%eax
c010b4cc:	8b 50 04             	mov    0x4(%eax),%edx
c010b4cf:	8b 45 f4             	mov    -0xc(%ebp),%eax
c010b4d2:	c1 e0 04             	shl    $0x4,%eax
c010b4d5:	89 c1                	mov    %eax,%ecx
c010b4d7:	8b 45 d8             	mov    -0x28(%ebp),%eax
c010b4da:	01 c8                	add    %ecx,%eax
c010b4dc:	8b 00                	mov    (%eax),%eax
c010b4de:	29 c2                	sub    %eax,%edx
c010b4e0:	89 d0                	mov    %edx,%eax
c010b4e2:	89 45 d4             	mov    %eax,-0x2c(%ebp)
c010b4e5:	8b 45 d4             	mov    -0x2c(%ebp),%eax
c010b4e8:	05 ff 0f 00 00       	add    $0xfff,%eax
c010b4ed:	25 00 f0 ff ff       	and    $0xfffff000,%eax
c010b4f2:	c1 e8 0c             	shr    $0xc,%eax
c010b4f5:	89 45 d0             	mov    %eax,-0x30(%ebp)
c010b4f8:	8b 55 d0             	mov    -0x30(%ebp),%edx
c010b4fb:	8b 45 f4             	mov    -0xc(%ebp),%eax
c010b4fe:	c1 e0 04             	shl    $0x4,%eax
c010b501:	89 c1                	mov    %eax,%ecx
c010b503:	8b 45 d8             	mov    -0x28(%ebp),%eax
c010b506:	01 c8                	add    %ecx,%eax
c010b508:	8b 00                	mov    (%eax),%eax
c010b50a:	89 54 24 04          	mov    %edx,0x4(%esp)
c010b50e:	89 04 24             	mov    %eax,(%esp)
c010b511:	e8 7e fa ff ff       	call   c010af94 <pmm_mark_page_range_as_used>
c010b516:	8b 45 f4             	mov    -0xc(%ebp),%eax
c010b519:	c1 e0 04             	shl    $0x4,%eax
c010b51c:	89 c2                	mov    %eax,%edx
c010b51e:	8b 45 d8             	mov    -0x28(%ebp),%eax
c010b521:	01 d0                	add    %edx,%eax
c010b523:	8b 40 08             	mov    0x8(%eax),%eax
c010b526:	89 04 24             	mov    %eax,(%esp)
c010b529:	e8 31 fa ff ff       	call   c010af5f <pmm_mark_page_as_used>
c010b52e:	83 45 f4 01          	addl   $0x1,-0xc(%ebp)
c010b532:	8b 55 f4             	mov    -0xc(%ebp),%edx
c010b535:	8b 45 08             	mov    0x8(%ebp),%eax
c010b538:	8b 40 14             	mov    0x14(%eax),%eax
c010b53b:	39 c2                	cmp    %eax,%edx
c010b53d:	72 80                	jb     c010b4bf <INIT_PMM+0x197>
c010b53f:	8b 45 08             	mov    0x8(%ebp),%eax
c010b542:	8b 00                	mov    (%eax),%eax
c010b544:	83 e0 01             	and    $0x1,%eax
c010b547:	85 c0                	test   %eax,%eax
c010b549:	75 0c                	jne    c010b557 <INIT_PMM+0x22f>
c010b54b:	c7 04 24 90 f0 10 c0 	movl   $0xc010f090,(%esp)
c010b552:	e8 63 ce ff ff       	call   c01083ba <panic>
c010b557:	c9                   	leave  
c010b558:	c3                   	ret    

c010b559 <exp>:
c010b559:	55                   	push   %ebp
c010b55a:	89 e5                	mov    %esp,%ebp
c010b55c:	83 ec 38             	sub    $0x38,%esp
c010b55f:	8b 45 08             	mov    0x8(%ebp),%eax
c010b562:	89 45 e0             	mov    %eax,-0x20(%ebp)
c010b565:	8b 45 0c             	mov    0xc(%ebp),%eax
c010b568:	89 45 e4             	mov    %eax,-0x1c(%ebp)
c010b56b:	d9 ee                	fldz   
c010b56d:	dd 5d f0             	fstpl  -0x10(%ebp)
c010b570:	c7 45 ec 00 00 00 00 	movl   $0x0,-0x14(%ebp)
c010b577:	eb 3b                	jmp    c010b5b4 <exp+0x5b>
c010b579:	f2 0f 10 45 e0       	movsd  -0x20(%ebp),%xmm0
c010b57e:	f2 0f 2c c0          	cvttsd2si %xmm0,%eax
c010b582:	8b 55 ec             	mov    -0x14(%ebp),%edx
c010b585:	89 54 24 04          	mov    %edx,0x4(%esp)
c010b589:	89 04 24             	mov    %eax,(%esp)
c010b58c:	e8 f9 01 00 00       	call   c010b78a <powi>
c010b591:	89 45 dc             	mov    %eax,-0x24(%ebp)
c010b594:	db 45 dc             	fildl  -0x24(%ebp)
c010b597:	dd 5d d0             	fstpl  -0x30(%ebp)
c010b59a:	8b 45 ec             	mov    -0x14(%ebp),%eax
c010b59d:	89 04 24             	mov    %eax,(%esp)
c010b5a0:	e8 27 02 00 00       	call   c010b7cc <factorial>
c010b5a5:	dc 7d d0             	fdivrl -0x30(%ebp)
c010b5a8:	dd 45 f0             	fldl   -0x10(%ebp)
c010b5ab:	de c1                	faddp  %st,%st(1)
c010b5ad:	dd 5d f0             	fstpl  -0x10(%ebp)
c010b5b0:	83 45 ec 01          	addl   $0x1,-0x14(%ebp)
c010b5b4:	81 7d ec 95 00 00 00 	cmpl   $0x95,-0x14(%ebp)
c010b5bb:	7e bc                	jle    c010b579 <exp+0x20>
c010b5bd:	dd 45 f0             	fldl   -0x10(%ebp)
c010b5c0:	c9                   	leave  
c010b5c1:	c3                   	ret    

c010b5c2 <ln>:
c010b5c2:	55                   	push   %ebp
c010b5c3:	89 e5                	mov    %esp,%ebp
c010b5c5:	83 ec 48             	sub    $0x48,%esp
c010b5c8:	8b 45 08             	mov    0x8(%ebp),%eax
c010b5cb:	89 45 d0             	mov    %eax,-0x30(%ebp)
c010b5ce:	8b 45 0c             	mov    0xc(%ebp),%eax
c010b5d1:	89 45 d4             	mov    %eax,-0x2c(%ebp)
c010b5d4:	dd 45 d0             	fldl   -0x30(%ebp)
c010b5d7:	d9 e8                	fld1   
c010b5d9:	de e9                	fsubrp %st,%st(1)
c010b5db:	dd 45 d0             	fldl   -0x30(%ebp)
c010b5de:	d9 e8                	fld1   
c010b5e0:	de c1                	faddp  %st,%st(1)
c010b5e2:	de f9                	fdivrp %st,%st(1)
c010b5e4:	dd 5d e0             	fstpl  -0x20(%ebp)
c010b5e7:	d9 ee                	fldz   
c010b5e9:	dd 5d f0             	fstpl  -0x10(%ebp)
c010b5ec:	c7 45 ec 00 00 00 00 	movl   $0x0,-0x14(%ebp)
c010b5f3:	eb 3a                	jmp    c010b62f <ln+0x6d>
c010b5f5:	8b 45 ec             	mov    -0x14(%ebp),%eax
c010b5f8:	01 c0                	add    %eax,%eax
c010b5fa:	8d 50 01             	lea    0x1(%eax),%edx
c010b5fd:	f2 0f 10 45 e0       	movsd  -0x20(%ebp),%xmm0
c010b602:	f2 0f 2c c0          	cvttsd2si %xmm0,%eax
c010b606:	89 54 24 04          	mov    %edx,0x4(%esp)
c010b60a:	89 04 24             	mov    %eax,(%esp)
c010b60d:	e8 78 01 00 00       	call   c010b78a <powi>
c010b612:	8b 55 ec             	mov    -0x14(%ebp),%edx
c010b615:	01 d2                	add    %edx,%edx
c010b617:	8d 4a 01             	lea    0x1(%edx),%ecx
c010b61a:	99                   	cltd   
c010b61b:	f7 f9                	idiv   %ecx
c010b61d:	89 45 cc             	mov    %eax,-0x34(%ebp)
c010b620:	db 45 cc             	fildl  -0x34(%ebp)
c010b623:	dd 45 f0             	fldl   -0x10(%ebp)
c010b626:	de c1                	faddp  %st,%st(1)
c010b628:	dd 5d f0             	fstpl  -0x10(%ebp)
c010b62b:	83 45 ec 01          	addl   $0x1,-0x14(%ebp)
c010b62f:	81 7d ec 95 00 00 00 	cmpl   $0x95,-0x14(%ebp)
c010b636:	7e bd                	jle    c010b5f5 <ln+0x33>
c010b638:	dd 45 f0             	fldl   -0x10(%ebp)
c010b63b:	d8 c0                	fadd   %st(0),%st
c010b63d:	c9                   	leave  
c010b63e:	c3                   	ret    

c010b63f <pow>:
c010b63f:	55                   	push   %ebp
c010b640:	89 e5                	mov    %esp,%ebp
c010b642:	83 ec 28             	sub    $0x28,%esp
c010b645:	8b 45 08             	mov    0x8(%ebp),%eax
c010b648:	89 45 f0             	mov    %eax,-0x10(%ebp)
c010b64b:	8b 45 0c             	mov    0xc(%ebp),%eax
c010b64e:	89 45 f4             	mov    %eax,-0xc(%ebp)
c010b651:	8b 45 10             	mov    0x10(%ebp),%eax
c010b654:	89 45 e8             	mov    %eax,-0x18(%ebp)
c010b657:	8b 45 14             	mov    0x14(%ebp),%eax
c010b65a:	89 45 ec             	mov    %eax,-0x14(%ebp)
c010b65d:	dd 45 f0             	fldl   -0x10(%ebp)
c010b660:	dd 1c 24             	fstpl  (%esp)
c010b663:	e8 5a ff ff ff       	call   c010b5c2 <ln>
c010b668:	dc 4d e8             	fmull  -0x18(%ebp)
c010b66b:	dd 1c 24             	fstpl  (%esp)
c010b66e:	e8 e6 fe ff ff       	call   c010b559 <exp>
c010b673:	c9                   	leave  
c010b674:	c3                   	ret    

c010b675 <sin>:
c010b675:	55                   	push   %ebp
c010b676:	89 e5                	mov    %esp,%ebp
c010b678:	53                   	push   %ebx
c010b679:	83 ec 34             	sub    $0x34,%esp
c010b67c:	8b 45 08             	mov    0x8(%ebp),%eax
c010b67f:	89 45 e0             	mov    %eax,-0x20(%ebp)
c010b682:	8b 45 0c             	mov    0xc(%ebp),%eax
c010b685:	89 45 e4             	mov    %eax,-0x1c(%ebp)
c010b688:	d9 ee                	fldz   
c010b68a:	dd 5d f0             	fstpl  -0x10(%ebp)
c010b68d:	c7 45 ec 00 00 00 00 	movl   $0x0,-0x14(%ebp)
c010b694:	eb 5d                	jmp    c010b6f3 <sin+0x7e>
c010b696:	8b 45 ec             	mov    -0x14(%ebp),%eax
c010b699:	89 44 24 04          	mov    %eax,0x4(%esp)
c010b69d:	c7 04 24 ff ff ff ff 	movl   $0xffffffff,(%esp)
c010b6a4:	e8 e1 00 00 00       	call   c010b78a <powi>
c010b6a9:	89 c3                	mov    %eax,%ebx
c010b6ab:	8b 45 ec             	mov    -0x14(%ebp),%eax
c010b6ae:	01 c0                	add    %eax,%eax
c010b6b0:	8d 50 01             	lea    0x1(%eax),%edx
c010b6b3:	f2 0f 10 45 e0       	movsd  -0x20(%ebp),%xmm0
c010b6b8:	f2 0f 2c c0          	cvttsd2si %xmm0,%eax
c010b6bc:	89 54 24 04          	mov    %edx,0x4(%esp)
c010b6c0:	89 04 24             	mov    %eax,(%esp)
c010b6c3:	e8 c2 00 00 00       	call   c010b78a <powi>
c010b6c8:	0f af c3             	imul   %ebx,%eax
c010b6cb:	89 45 dc             	mov    %eax,-0x24(%ebp)
c010b6ce:	db 45 dc             	fildl  -0x24(%ebp)
c010b6d1:	dd 5d d0             	fstpl  -0x30(%ebp)
c010b6d4:	8b 45 ec             	mov    -0x14(%ebp),%eax
c010b6d7:	01 c0                	add    %eax,%eax
c010b6d9:	83 c0 01             	add    $0x1,%eax
c010b6dc:	89 04 24             	mov    %eax,(%esp)
c010b6df:	e8 e8 00 00 00       	call   c010b7cc <factorial>
c010b6e4:	dc 7d d0             	fdivrl -0x30(%ebp)
c010b6e7:	dd 45 f0             	fldl   -0x10(%ebp)
c010b6ea:	de c1                	faddp  %st,%st(1)
c010b6ec:	dd 5d f0             	fstpl  -0x10(%ebp)
c010b6ef:	83 45 ec 01          	addl   $0x1,-0x14(%ebp)
c010b6f3:	83 7d ec 13          	cmpl   $0x13,-0x14(%ebp)
c010b6f7:	7e 9d                	jle    c010b696 <sin+0x21>
c010b6f9:	dd 45 f0             	fldl   -0x10(%ebp)
c010b6fc:	83 c4 34             	add    $0x34,%esp
c010b6ff:	5b                   	pop    %ebx
c010b700:	5d                   	pop    %ebp
c010b701:	c3                   	ret    

c010b702 <cos>:
c010b702:	55                   	push   %ebp
c010b703:	89 e5                	mov    %esp,%ebp
c010b705:	53                   	push   %ebx
c010b706:	83 ec 34             	sub    $0x34,%esp
c010b709:	8b 45 08             	mov    0x8(%ebp),%eax
c010b70c:	89 45 e0             	mov    %eax,-0x20(%ebp)
c010b70f:	8b 45 0c             	mov    0xc(%ebp),%eax
c010b712:	89 45 e4             	mov    %eax,-0x1c(%ebp)
c010b715:	d9 ee                	fldz   
c010b717:	dd 5d f0             	fstpl  -0x10(%ebp)
c010b71a:	c7 45 ec 00 00 00 00 	movl   $0x0,-0x14(%ebp)
c010b721:	eb 58                	jmp    c010b77b <cos+0x79>
c010b723:	8b 45 ec             	mov    -0x14(%ebp),%eax
c010b726:	89 44 24 04          	mov    %eax,0x4(%esp)
c010b72a:	c7 04 24 ff ff ff ff 	movl   $0xffffffff,(%esp)
c010b731:	e8 54 00 00 00       	call   c010b78a <powi>
c010b736:	89 c3                	mov    %eax,%ebx
c010b738:	8b 45 ec             	mov    -0x14(%ebp),%eax
c010b73b:	8d 14 00             	lea    (%eax,%eax,1),%edx
c010b73e:	f2 0f 10 45 e0       	movsd  -0x20(%ebp),%xmm0
c010b743:	f2 0f 2c c0          	cvttsd2si %xmm0,%eax
c010b747:	89 54 24 04          	mov    %edx,0x4(%esp)
c010b74b:	89 04 24             	mov    %eax,(%esp)
c010b74e:	e8 37 00 00 00       	call   c010b78a <powi>
c010b753:	0f af c3             	imul   %ebx,%eax
c010b756:	89 45 dc             	mov    %eax,-0x24(%ebp)
c010b759:	db 45 dc             	fildl  -0x24(%ebp)
c010b75c:	dd 5d d0             	fstpl  -0x30(%ebp)
c010b75f:	8b 45 ec             	mov    -0x14(%ebp),%eax
c010b762:	01 c0                	add    %eax,%eax
c010b764:	89 04 24             	mov    %eax,(%esp)
c010b767:	e8 60 00 00 00       	call   c010b7cc <factorial>
c010b76c:	dc 7d d0             	fdivrl -0x30(%ebp)
c010b76f:	dd 45 f0             	fldl   -0x10(%ebp)
c010b772:	de c1                	faddp  %st,%st(1)
c010b774:	dd 5d f0             	fstpl  -0x10(%ebp)
c010b777:	83 45 ec 01          	addl   $0x1,-0x14(%ebp)
c010b77b:	83 7d ec 13          	cmpl   $0x13,-0x14(%ebp)
c010b77f:	7e a2                	jle    c010b723 <cos+0x21>
c010b781:	dd 45 f0             	fldl   -0x10(%ebp)
c010b784:	83 c4 34             	add    $0x34,%esp
c010b787:	5b                   	pop    %ebx
c010b788:	5d                   	pop    %ebp
c010b789:	c3                   	ret    

c010b78a <powi>:
c010b78a:	55                   	push   %ebp
c010b78b:	89 e5                	mov    %esp,%ebp
c010b78d:	83 ec 10             	sub    $0x10,%esp
c010b790:	8b 45 08             	mov    0x8(%ebp),%eax
c010b793:	89 45 fc             	mov    %eax,-0x4(%ebp)
c010b796:	83 7d 0c 00          	cmpl   $0x0,0xc(%ebp)
c010b79a:	75 09                	jne    c010b7a5 <powi+0x1b>
c010b79c:	c7 45 fc 01 00 00 00 	movl   $0x1,-0x4(%ebp)
c010b7a3:	eb 22                	jmp    c010b7c7 <powi+0x3d>
c010b7a5:	c7 45 f8 00 00 00 00 	movl   $0x0,-0x8(%ebp)
c010b7ac:	eb 0e                	jmp    c010b7bc <powi+0x32>
c010b7ae:	8b 45 fc             	mov    -0x4(%ebp),%eax
c010b7b1:	0f af 45 08          	imul   0x8(%ebp),%eax
c010b7b5:	89 45 fc             	mov    %eax,-0x4(%ebp)
c010b7b8:	83 45 f8 01          	addl   $0x1,-0x8(%ebp)
c010b7bc:	8b 45 0c             	mov    0xc(%ebp),%eax
c010b7bf:	83 e8 01             	sub    $0x1,%eax
c010b7c2:	3b 45 f8             	cmp    -0x8(%ebp),%eax
c010b7c5:	7f e7                	jg     c010b7ae <powi+0x24>
c010b7c7:	8b 45 fc             	mov    -0x4(%ebp),%eax
c010b7ca:	c9                   	leave  
c010b7cb:	c3                   	ret    

c010b7cc <factorial>:
c010b7cc:	55                   	push   %ebp
c010b7cd:	89 e5                	mov    %esp,%ebp
c010b7cf:	83 ec 10             	sub    $0x10,%esp
c010b7d2:	d9 e8                	fld1   
c010b7d4:	dd 5d f8             	fstpl  -0x8(%ebp)
c010b7d7:	c7 45 f4 01 00 00 00 	movl   $0x1,-0xc(%ebp)
c010b7de:	eb 0f                	jmp    c010b7ef <factorial+0x23>
c010b7e0:	db 45 f4             	fildl  -0xc(%ebp)
c010b7e3:	dd 45 f8             	fldl   -0x8(%ebp)
c010b7e6:	de c9                	fmulp  %st,%st(1)
c010b7e8:	dd 5d f8             	fstpl  -0x8(%ebp)
c010b7eb:	83 45 f4 01          	addl   $0x1,-0xc(%ebp)
c010b7ef:	8b 45 f4             	mov    -0xc(%ebp),%eax
c010b7f2:	3b 45 08             	cmp    0x8(%ebp),%eax
c010b7f5:	7e e9                	jle    c010b7e0 <factorial+0x14>
c010b7f7:	dd 45 f8             	fldl   -0x8(%ebp)
c010b7fa:	c9                   	leave  
c010b7fb:	c3                   	ret    

c010b7fc <abs>:
c010b7fc:	55                   	push   %ebp
c010b7fd:	89 e5                	mov    %esp,%ebp
c010b7ff:	83 7d 08 00          	cmpl   $0x0,0x8(%ebp)
c010b803:	79 07                	jns    c010b80c <abs+0x10>
c010b805:	8b 45 08             	mov    0x8(%ebp),%eax
c010b808:	f7 d8                	neg    %eax
c010b80a:	eb 03                	jmp    c010b80f <abs+0x13>
c010b80c:	8b 45 08             	mov    0x8(%ebp),%eax
c010b80f:	5d                   	pop    %ebp
c010b810:	c3                   	ret    

c010b811 <bit_scan_forward>:
c010b811:	55                   	push   %ebp
c010b812:	89 e5                	mov    %esp,%ebp
c010b814:	83 ec 10             	sub    $0x10,%esp
c010b817:	c7 45 fc 00 00 00 00 	movl   $0x0,-0x4(%ebp)
c010b81e:	eb 1e                	jmp    c010b83e <bit_scan_forward+0x2d>
c010b820:	8b 45 fc             	mov    -0x4(%ebp),%eax
c010b823:	ba 01 00 00 00       	mov    $0x1,%edx
c010b828:	89 c1                	mov    %eax,%ecx
c010b82a:	d3 e2                	shl    %cl,%edx
c010b82c:	89 d0                	mov    %edx,%eax
c010b82e:	23 45 08             	and    0x8(%ebp),%eax
c010b831:	85 c0                	test   %eax,%eax
c010b833:	74 05                	je     c010b83a <bit_scan_forward+0x29>
c010b835:	8b 45 fc             	mov    -0x4(%ebp),%eax
c010b838:	eb 0f                	jmp    c010b849 <bit_scan_forward+0x38>
c010b83a:	83 45 fc 01          	addl   $0x1,-0x4(%ebp)
c010b83e:	83 7d fc 1f          	cmpl   $0x1f,-0x4(%ebp)
c010b842:	76 dc                	jbe    c010b820 <bit_scan_forward+0xf>
c010b844:	b8 ff ff ff ff       	mov    $0xffffffff,%eax
c010b849:	c9                   	leave  
c010b84a:	c3                   	ret    

c010b84b <printf>:
c010b84b:	55                   	push   %ebp
c010b84c:	89 e5                	mov    %esp,%ebp
c010b84e:	81 ec 28 04 00 00    	sub    $0x428,%esp
c010b854:	c7 44 24 08 00 04 00 	movl   $0x400,0x8(%esp)
c010b85b:	00 
c010b85c:	c7 44 24 04 00 00 00 	movl   $0x0,0x4(%esp)
c010b863:	00 
c010b864:	8d 85 f4 fb ff ff    	lea    -0x40c(%ebp),%eax
c010b86a:	89 04 24             	mov    %eax,(%esp)
c010b86d:	e8 72 10 00 00       	call   c010c8e4 <memset>
c010b872:	8d 45 0c             	lea    0xc(%ebp),%eax
c010b875:	89 85 f0 fb ff ff    	mov    %eax,-0x410(%ebp)
c010b87b:	8b 85 f0 fb ff ff    	mov    -0x410(%ebp),%eax
c010b881:	89 44 24 08          	mov    %eax,0x8(%esp)
c010b885:	8b 45 08             	mov    0x8(%ebp),%eax
c010b888:	89 44 24 04          	mov    %eax,0x4(%esp)
c010b88c:	8d 85 f4 fb ff ff    	lea    -0x40c(%ebp),%eax
c010b892:	89 04 24             	mov    %eax,(%esp)
c010b895:	e8 4b 00 00 00       	call   c010b8e5 <vsprintf>
c010b89a:	89 45 f4             	mov    %eax,-0xc(%ebp)
c010b89d:	c7 44 24 04 01 00 00 	movl   $0x1,0x4(%esp)
c010b8a4:	00 
c010b8a5:	8d 85 f4 fb ff ff    	lea    -0x40c(%ebp),%eax
c010b8ab:	89 04 24             	mov    %eax,(%esp)
c010b8ae:	e8 50 88 ff ff       	call   c0104103 <fputs>
c010b8b3:	8b 45 f4             	mov    -0xc(%ebp),%eax
c010b8b6:	c9                   	leave  
c010b8b7:	c3                   	ret    

c010b8b8 <sprintf>:
c010b8b8:	55                   	push   %ebp
c010b8b9:	89 e5                	mov    %esp,%ebp
c010b8bb:	83 ec 28             	sub    $0x28,%esp
c010b8be:	8d 45 10             	lea    0x10(%ebp),%eax
c010b8c1:	89 45 f0             	mov    %eax,-0x10(%ebp)
c010b8c4:	8b 45 f0             	mov    -0x10(%ebp),%eax
c010b8c7:	89 44 24 08          	mov    %eax,0x8(%esp)
c010b8cb:	8b 45 0c             	mov    0xc(%ebp),%eax
c010b8ce:	89 44 24 04          	mov    %eax,0x4(%esp)
c010b8d2:	8b 45 08             	mov    0x8(%ebp),%eax
c010b8d5:	89 04 24             	mov    %eax,(%esp)
c010b8d8:	e8 08 00 00 00       	call   c010b8e5 <vsprintf>
c010b8dd:	89 45 f4             	mov    %eax,-0xc(%ebp)
c010b8e0:	8b 45 f4             	mov    -0xc(%ebp),%eax
c010b8e3:	c9                   	leave  
c010b8e4:	c3                   	ret    

c010b8e5 <vsprintf>:
c010b8e5:	55                   	push   %ebp
c010b8e6:	89 e5                	mov    %esp,%ebp
c010b8e8:	83 ec 58             	sub    $0x58,%esp
c010b8eb:	8b 45 08             	mov    0x8(%ebp),%eax
c010b8ee:	89 45 f4             	mov    %eax,-0xc(%ebp)
c010b8f1:	e9 27 04 00 00       	jmp    c010bd1d <vsprintf+0x438>
c010b8f6:	8b 45 0c             	mov    0xc(%ebp),%eax
c010b8f9:	0f b6 00             	movzbl (%eax),%eax
c010b8fc:	3c 25                	cmp    $0x25,%al
c010b8fe:	74 16                	je     c010b916 <vsprintf+0x31>
c010b900:	8b 45 08             	mov    0x8(%ebp),%eax
c010b903:	8d 50 01             	lea    0x1(%eax),%edx
c010b906:	89 55 08             	mov    %edx,0x8(%ebp)
c010b909:	8b 55 0c             	mov    0xc(%ebp),%edx
c010b90c:	0f b6 12             	movzbl (%edx),%edx
c010b90f:	88 10                	mov    %dl,(%eax)
c010b911:	e9 03 04 00 00       	jmp    c010bd19 <vsprintf+0x434>
c010b916:	c7 45 e4 00 00 00 00 	movl   $0x0,-0x1c(%ebp)
c010b91d:	83 45 0c 01          	addl   $0x1,0xc(%ebp)
c010b921:	8b 45 0c             	mov    0xc(%ebp),%eax
c010b924:	0f b6 00             	movzbl (%eax),%eax
c010b927:	0f be c0             	movsbl %al,%eax
c010b92a:	83 e8 20             	sub    $0x20,%eax
c010b92d:	83 f8 10             	cmp    $0x10,%eax
c010b930:	77 27                	ja     c010b959 <vsprintf+0x74>
c010b932:	8b 04 85 c4 f0 10 c0 	mov    -0x3fef0f3c(,%eax,4),%eax
c010b939:	ff e0                	jmp    *%eax
c010b93b:	83 4d e4 01          	orl    $0x1,-0x1c(%ebp)
c010b93f:	eb dc                	jmp    c010b91d <vsprintf+0x38>
c010b941:	83 4d e4 04          	orl    $0x4,-0x1c(%ebp)
c010b945:	eb d6                	jmp    c010b91d <vsprintf+0x38>
c010b947:	83 4d e4 08          	orl    $0x8,-0x1c(%ebp)
c010b94b:	eb d0                	jmp    c010b91d <vsprintf+0x38>
c010b94d:	83 4d e4 10          	orl    $0x10,-0x1c(%ebp)
c010b951:	eb ca                	jmp    c010b91d <vsprintf+0x38>
c010b953:	83 4d e4 40          	orl    $0x40,-0x1c(%ebp)
c010b957:	eb c4                	jmp    c010b91d <vsprintf+0x38>
c010b959:	c7 45 e0 01 00 00 00 	movl   $0x1,-0x20(%ebp)
c010b960:	8b 45 0c             	mov    0xc(%ebp),%eax
c010b963:	0f b6 00             	movzbl (%eax),%eax
c010b966:	0f be c0             	movsbl %al,%eax
c010b969:	83 e8 30             	sub    $0x30,%eax
c010b96c:	83 f8 09             	cmp    $0x9,%eax
c010b96f:	77 25                	ja     c010b996 <vsprintf+0xb1>
c010b971:	8b 45 0c             	mov    0xc(%ebp),%eax
c010b974:	89 04 24             	mov    %eax,(%esp)
c010b977:	e8 5e 11 00 00       	call   c010cada <atoi>
c010b97c:	89 45 e0             	mov    %eax,-0x20(%ebp)
c010b97f:	83 45 0c 01          	addl   $0x1,0xc(%ebp)
c010b983:	8b 45 0c             	mov    0xc(%ebp),%eax
c010b986:	0f b6 00             	movzbl (%eax),%eax
c010b989:	0f be c0             	movsbl %al,%eax
c010b98c:	83 e8 30             	sub    $0x30,%eax
c010b98f:	83 f8 09             	cmp    $0x9,%eax
c010b992:	76 eb                	jbe    c010b97f <vsprintf+0x9a>
c010b994:	eb 29                	jmp    c010b9bf <vsprintf+0xda>
c010b996:	8b 45 0c             	mov    0xc(%ebp),%eax
c010b999:	0f b6 00             	movzbl (%eax),%eax
c010b99c:	3c 2a                	cmp    $0x2a,%al
c010b99e:	75 1f                	jne    c010b9bf <vsprintf+0xda>
c010b9a0:	83 45 0c 01          	addl   $0x1,0xc(%ebp)
c010b9a4:	8b 45 10             	mov    0x10(%ebp),%eax
c010b9a7:	8d 50 04             	lea    0x4(%eax),%edx
c010b9aa:	89 55 10             	mov    %edx,0x10(%ebp)
c010b9ad:	8b 00                	mov    (%eax),%eax
c010b9af:	89 45 e0             	mov    %eax,-0x20(%ebp)
c010b9b2:	83 7d e0 00          	cmpl   $0x0,-0x20(%ebp)
c010b9b6:	79 07                	jns    c010b9bf <vsprintf+0xda>
c010b9b8:	f7 5d e0             	negl   -0x20(%ebp)
c010b9bb:	83 4d e4 10          	orl    $0x10,-0x1c(%ebp)
c010b9bf:	c7 45 dc ff ff ff ff 	movl   $0xffffffff,-0x24(%ebp)
c010b9c6:	8b 45 0c             	mov    0xc(%ebp),%eax
c010b9c9:	0f b6 00             	movzbl (%eax),%eax
c010b9cc:	3c 2e                	cmp    $0x2e,%al
c010b9ce:	75 63                	jne    c010ba33 <vsprintf+0x14e>
c010b9d0:	83 45 0c 01          	addl   $0x1,0xc(%ebp)
c010b9d4:	8b 45 0c             	mov    0xc(%ebp),%eax
c010b9d7:	0f b6 00             	movzbl (%eax),%eax
c010b9da:	0f be c0             	movsbl %al,%eax
c010b9dd:	83 e8 30             	sub    $0x30,%eax
c010b9e0:	83 f8 09             	cmp    $0x9,%eax
c010b9e3:	77 25                	ja     c010ba0a <vsprintf+0x125>
c010b9e5:	8b 45 0c             	mov    0xc(%ebp),%eax
c010b9e8:	89 04 24             	mov    %eax,(%esp)
c010b9eb:	e8 ea 10 00 00       	call   c010cada <atoi>
c010b9f0:	89 45 dc             	mov    %eax,-0x24(%ebp)
c010b9f3:	83 45 0c 01          	addl   $0x1,0xc(%ebp)
c010b9f7:	8b 45 0c             	mov    0xc(%ebp),%eax
c010b9fa:	0f b6 00             	movzbl (%eax),%eax
c010b9fd:	0f be c0             	movsbl %al,%eax
c010ba00:	83 e8 30             	sub    $0x30,%eax
c010ba03:	83 f8 09             	cmp    $0x9,%eax
c010ba06:	76 eb                	jbe    c010b9f3 <vsprintf+0x10e>
c010ba08:	eb 1c                	jmp    c010ba26 <vsprintf+0x141>
c010ba0a:	8b 45 0c             	mov    0xc(%ebp),%eax
c010ba0d:	0f b6 00             	movzbl (%eax),%eax
c010ba10:	3c 2a                	cmp    $0x2a,%al
c010ba12:	75 12                	jne    c010ba26 <vsprintf+0x141>
c010ba14:	83 45 0c 01          	addl   $0x1,0xc(%ebp)
c010ba18:	8b 45 10             	mov    0x10(%ebp),%eax
c010ba1b:	8d 50 04             	lea    0x4(%eax),%edx
c010ba1e:	89 55 10             	mov    %edx,0x10(%ebp)
c010ba21:	8b 00                	mov    (%eax),%eax
c010ba23:	89 45 dc             	mov    %eax,-0x24(%ebp)
c010ba26:	83 7d dc 00          	cmpl   $0x0,-0x24(%ebp)
c010ba2a:	79 07                	jns    c010ba33 <vsprintf+0x14e>
c010ba2c:	c7 45 dc 00 00 00 00 	movl   $0x0,-0x24(%ebp)
c010ba33:	c7 45 d8 ff ff ff ff 	movl   $0xffffffff,-0x28(%ebp)
c010ba3a:	8b 45 0c             	mov    0xc(%ebp),%eax
c010ba3d:	0f b6 00             	movzbl (%eax),%eax
c010ba40:	0f be c0             	movsbl %al,%eax
c010ba43:	89 44 24 04          	mov    %eax,0x4(%esp)
c010ba47:	c7 04 24 c0 f0 10 c0 	movl   $0xc010f0c0,(%esp)
c010ba4e:	e8 35 0b 00 00       	call   c010c588 <strchr>
c010ba53:	85 c0                	test   %eax,%eax
c010ba55:	74 10                	je     c010ba67 <vsprintf+0x182>
c010ba57:	8b 45 0c             	mov    0xc(%ebp),%eax
c010ba5a:	0f b6 00             	movzbl (%eax),%eax
c010ba5d:	0f be c0             	movsbl %al,%eax
c010ba60:	89 45 d8             	mov    %eax,-0x28(%ebp)
c010ba63:	83 45 0c 01          	addl   $0x1,0xc(%ebp)
c010ba67:	c7 45 d4 0a 00 00 00 	movl   $0xa,-0x2c(%ebp)
c010ba6e:	8b 45 0c             	mov    0xc(%ebp),%eax
c010ba71:	0f b6 00             	movzbl (%eax),%eax
c010ba74:	0f be c0             	movsbl %al,%eax
c010ba77:	83 e8 25             	sub    $0x25,%eax
c010ba7a:	83 f8 53             	cmp    $0x53,%eax
c010ba7d:	0f 87 c3 01 00 00    	ja     c010bc46 <vsprintf+0x361>
c010ba83:	8b 04 85 08 f1 10 c0 	mov    -0x3fef0ef8(,%eax,4),%eax
c010ba8a:	ff e0                	jmp    *%eax
c010ba8c:	c7 45 d0 01 00 00 00 	movl   $0x1,-0x30(%ebp)
c010ba93:	8b 45 e4             	mov    -0x1c(%ebp),%eax
c010ba96:	83 e0 10             	and    $0x10,%eax
c010ba99:	85 c0                	test   %eax,%eax
c010ba9b:	75 1c                	jne    c010bab9 <vsprintf+0x1d4>
c010ba9d:	eb 0c                	jmp    c010baab <vsprintf+0x1c6>
c010ba9f:	8b 45 08             	mov    0x8(%ebp),%eax
c010baa2:	8d 50 01             	lea    0x1(%eax),%edx
c010baa5:	89 55 08             	mov    %edx,0x8(%ebp)
c010baa8:	c6 00 20             	movb   $0x20,(%eax)
c010baab:	8b 45 e0             	mov    -0x20(%ebp),%eax
c010baae:	8d 50 ff             	lea    -0x1(%eax),%edx
c010bab1:	89 55 e0             	mov    %edx,-0x20(%ebp)
c010bab4:	3b 45 d0             	cmp    -0x30(%ebp),%eax
c010bab7:	7f e6                	jg     c010ba9f <vsprintf+0x1ba>
c010bab9:	8b 45 08             	mov    0x8(%ebp),%eax
c010babc:	8d 50 01             	lea    0x1(%eax),%edx
c010babf:	89 55 08             	mov    %edx,0x8(%ebp)
c010bac2:	8b 55 10             	mov    0x10(%ebp),%edx
c010bac5:	8d 4a 04             	lea    0x4(%edx),%ecx
c010bac8:	89 4d 10             	mov    %ecx,0x10(%ebp)
c010bacb:	8b 12                	mov    (%edx),%edx
c010bacd:	88 10                	mov    %dl,(%eax)
c010bacf:	eb 0c                	jmp    c010badd <vsprintf+0x1f8>
c010bad1:	8b 45 08             	mov    0x8(%ebp),%eax
c010bad4:	8d 50 01             	lea    0x1(%eax),%edx
c010bad7:	89 55 08             	mov    %edx,0x8(%ebp)
c010bada:	c6 00 20             	movb   $0x20,(%eax)
c010badd:	8b 45 e0             	mov    -0x20(%ebp),%eax
c010bae0:	8d 50 ff             	lea    -0x1(%eax),%edx
c010bae3:	89 55 e0             	mov    %edx,-0x20(%ebp)
c010bae6:	3b 45 d0             	cmp    -0x30(%ebp),%eax
c010bae9:	7f e6                	jg     c010bad1 <vsprintf+0x1ec>
c010baeb:	e9 29 02 00 00       	jmp    c010bd19 <vsprintf+0x434>
c010baf0:	8b 45 10             	mov    0x10(%ebp),%eax
c010baf3:	8d 50 04             	lea    0x4(%eax),%edx
c010baf6:	89 55 10             	mov    %edx,0x10(%ebp)
c010baf9:	8b 00                	mov    (%eax),%eax
c010bafb:	89 45 f0             	mov    %eax,-0x10(%ebp)
c010bafe:	8b 45 dc             	mov    -0x24(%ebp),%eax
c010bb01:	89 44 24 04          	mov    %eax,0x4(%esp)
c010bb05:	8b 45 f0             	mov    -0x10(%ebp),%eax
c010bb08:	89 04 24             	mov    %eax,(%esp)
c010bb0b:	e8 d7 07 00 00       	call   c010c2e7 <strnlen>
c010bb10:	89 45 d0             	mov    %eax,-0x30(%ebp)
c010bb13:	8b 45 e4             	mov    -0x1c(%ebp),%eax
c010bb16:	83 e0 10             	and    $0x10,%eax
c010bb19:	85 c0                	test   %eax,%eax
c010bb1b:	75 1c                	jne    c010bb39 <vsprintf+0x254>
c010bb1d:	eb 0c                	jmp    c010bb2b <vsprintf+0x246>
c010bb1f:	8b 45 08             	mov    0x8(%ebp),%eax
c010bb22:	8d 50 01             	lea    0x1(%eax),%edx
c010bb25:	89 55 08             	mov    %edx,0x8(%ebp)
c010bb28:	c6 00 20             	movb   $0x20,(%eax)
c010bb2b:	8b 45 e0             	mov    -0x20(%ebp),%eax
c010bb2e:	8d 50 ff             	lea    -0x1(%eax),%edx
c010bb31:	89 55 e0             	mov    %edx,-0x20(%ebp)
c010bb34:	3b 45 d0             	cmp    -0x30(%ebp),%eax
c010bb37:	7f e6                	jg     c010bb1f <vsprintf+0x23a>
c010bb39:	c7 45 ec 00 00 00 00 	movl   $0x0,-0x14(%ebp)
c010bb40:	eb 1b                	jmp    c010bb5d <vsprintf+0x278>
c010bb42:	8b 45 08             	mov    0x8(%ebp),%eax
c010bb45:	8d 50 01             	lea    0x1(%eax),%edx
c010bb48:	89 55 08             	mov    %edx,0x8(%ebp)
c010bb4b:	8b 55 f0             	mov    -0x10(%ebp),%edx
c010bb4e:	8d 4a 01             	lea    0x1(%edx),%ecx
c010bb51:	89 4d f0             	mov    %ecx,-0x10(%ebp)
c010bb54:	0f b6 12             	movzbl (%edx),%edx
c010bb57:	88 10                	mov    %dl,(%eax)
c010bb59:	83 45 ec 01          	addl   $0x1,-0x14(%ebp)
c010bb5d:	8b 45 ec             	mov    -0x14(%ebp),%eax
c010bb60:	3b 45 d0             	cmp    -0x30(%ebp),%eax
c010bb63:	7c dd                	jl     c010bb42 <vsprintf+0x25d>
c010bb65:	eb 0c                	jmp    c010bb73 <vsprintf+0x28e>
c010bb67:	8b 45 08             	mov    0x8(%ebp),%eax
c010bb6a:	8d 50 01             	lea    0x1(%eax),%edx
c010bb6d:	89 55 08             	mov    %edx,0x8(%ebp)
c010bb70:	c6 00 20             	movb   $0x20,(%eax)
c010bb73:	8b 45 e0             	mov    -0x20(%ebp),%eax
c010bb76:	8d 50 ff             	lea    -0x1(%eax),%edx
c010bb79:	89 55 e0             	mov    %edx,-0x20(%ebp)
c010bb7c:	3b 45 d0             	cmp    -0x30(%ebp),%eax
c010bb7f:	7f e6                	jg     c010bb67 <vsprintf+0x282>
c010bb81:	e9 93 01 00 00       	jmp    c010bd19 <vsprintf+0x434>
c010bb86:	c7 45 e0 08 00 00 00 	movl   $0x8,-0x20(%ebp)
c010bb8d:	83 4d e4 01          	orl    $0x1,-0x1c(%ebp)
c010bb91:	83 4d e4 40          	orl    $0x40,-0x1c(%ebp)
c010bb95:	8b 45 10             	mov    0x10(%ebp),%eax
c010bb98:	8d 50 04             	lea    0x4(%eax),%edx
c010bb9b:	89 55 10             	mov    %edx,0x10(%ebp)
c010bb9e:	8b 00                	mov    (%eax),%eax
c010bba0:	8b 55 e0             	mov    -0x20(%ebp),%edx
c010bba3:	89 54 24 10          	mov    %edx,0x10(%esp)
c010bba7:	8b 55 e4             	mov    -0x1c(%ebp),%edx
c010bbaa:	89 54 24 0c          	mov    %edx,0xc(%esp)
c010bbae:	c7 44 24 08 10 00 00 	movl   $0x10,0x8(%esp)
c010bbb5:	00 
c010bbb6:	8b 55 08             	mov    0x8(%ebp),%edx
c010bbb9:	89 54 24 04          	mov    %edx,0x4(%esp)
c010bbbd:	89 04 24             	mov    %eax,(%esp)
c010bbc0:	e8 52 0d 00 00       	call   c010c917 <itoa_ex>
c010bbc5:	83 45 08 01          	addl   $0x1,0x8(%ebp)
c010bbc9:	8b 45 08             	mov    0x8(%ebp),%eax
c010bbcc:	0f b6 00             	movzbl (%eax),%eax
c010bbcf:	84 c0                	test   %al,%al
c010bbd1:	75 f2                	jne    c010bbc5 <vsprintf+0x2e0>
c010bbd3:	e9 41 01 00 00       	jmp    c010bd19 <vsprintf+0x434>
c010bbd8:	83 7d d8 6c          	cmpl   $0x6c,-0x28(%ebp)
c010bbdc:	75 20                	jne    c010bbfe <vsprintf+0x319>
c010bbde:	8b 45 10             	mov    0x10(%ebp),%eax
c010bbe1:	8d 50 04             	lea    0x4(%eax),%edx
c010bbe4:	89 55 10             	mov    %edx,0x10(%ebp)
c010bbe7:	8b 00                	mov    (%eax),%eax
c010bbe9:	89 45 cc             	mov    %eax,-0x34(%ebp)
c010bbec:	8b 55 08             	mov    0x8(%ebp),%edx
c010bbef:	8b 45 f4             	mov    -0xc(%ebp),%eax
c010bbf2:	29 c2                	sub    %eax,%edx
c010bbf4:	8b 45 cc             	mov    -0x34(%ebp),%eax
c010bbf7:	89 10                	mov    %edx,(%eax)
c010bbf9:	e9 1b 01 00 00       	jmp    c010bd19 <vsprintf+0x434>
c010bbfe:	8b 45 10             	mov    0x10(%ebp),%eax
c010bc01:	8d 50 04             	lea    0x4(%eax),%edx
c010bc04:	89 55 10             	mov    %edx,0x10(%ebp)
c010bc07:	8b 00                	mov    (%eax),%eax
c010bc09:	89 45 c8             	mov    %eax,-0x38(%ebp)
c010bc0c:	8b 55 08             	mov    0x8(%ebp),%edx
c010bc0f:	8b 45 f4             	mov    -0xc(%ebp),%eax
c010bc12:	29 c2                	sub    %eax,%edx
c010bc14:	8b 45 c8             	mov    -0x38(%ebp),%eax
c010bc17:	89 10                	mov    %edx,(%eax)
c010bc19:	e9 fb 00 00 00       	jmp    c010bd19 <vsprintf+0x434>
c010bc1e:	8b 45 08             	mov    0x8(%ebp),%eax
c010bc21:	8d 50 01             	lea    0x1(%eax),%edx
c010bc24:	89 55 08             	mov    %edx,0x8(%ebp)
c010bc27:	c6 00 25             	movb   $0x25,(%eax)
c010bc2a:	c7 45 d4 08 00 00 00 	movl   $0x8,-0x2c(%ebp)
c010bc31:	eb 49                	jmp    c010bc7c <vsprintf+0x397>
c010bc33:	83 4d e4 02          	orl    $0x2,-0x1c(%ebp)
c010bc37:	eb 42                	jmp    c010bc7b <vsprintf+0x396>
c010bc39:	83 4d e4 20          	orl    $0x20,-0x1c(%ebp)
c010bc3d:	c7 45 d4 10 00 00 00 	movl   $0x10,-0x2c(%ebp)
c010bc44:	eb 36                	jmp    c010bc7c <vsprintf+0x397>
c010bc46:	8b 45 f4             	mov    -0xc(%ebp),%eax
c010bc49:	8d 50 01             	lea    0x1(%eax),%edx
c010bc4c:	89 55 f4             	mov    %edx,-0xc(%ebp)
c010bc4f:	c6 00 25             	movb   $0x25,(%eax)
c010bc52:	8b 45 0c             	mov    0xc(%ebp),%eax
c010bc55:	0f b6 00             	movzbl (%eax),%eax
c010bc58:	84 c0                	test   %al,%al
c010bc5a:	74 16                	je     c010bc72 <vsprintf+0x38d>
c010bc5c:	8b 45 f4             	mov    -0xc(%ebp),%eax
c010bc5f:	8d 50 01             	lea    0x1(%eax),%edx
c010bc62:	89 55 f4             	mov    %edx,-0xc(%ebp)
c010bc65:	8b 55 0c             	mov    0xc(%ebp),%edx
c010bc68:	0f b6 12             	movzbl (%edx),%edx
c010bc6b:	88 10                	mov    %dl,(%eax)
c010bc6d:	e9 a7 00 00 00       	jmp    c010bd19 <vsprintf+0x434>
c010bc72:	83 6d 0c 01          	subl   $0x1,0xc(%ebp)
c010bc76:	e9 9e 00 00 00       	jmp    c010bd19 <vsprintf+0x434>
c010bc7b:	90                   	nop
c010bc7c:	83 7d d8 6c          	cmpl   $0x6c,-0x28(%ebp)
c010bc80:	75 10                	jne    c010bc92 <vsprintf+0x3ad>
c010bc82:	8b 45 10             	mov    0x10(%ebp),%eax
c010bc85:	8d 50 04             	lea    0x4(%eax),%edx
c010bc88:	89 55 10             	mov    %edx,0x10(%ebp)
c010bc8b:	8b 00                	mov    (%eax),%eax
c010bc8d:	89 45 e8             	mov    %eax,-0x18(%ebp)
c010bc90:	eb 52                	jmp    c010bce4 <vsprintf+0x3ff>
c010bc92:	83 7d d8 68          	cmpl   $0x68,-0x28(%ebp)
c010bc96:	75 24                	jne    c010bcbc <vsprintf+0x3d7>
c010bc98:	8b 45 10             	mov    0x10(%ebp),%eax
c010bc9b:	8d 50 04             	lea    0x4(%eax),%edx
c010bc9e:	89 55 10             	mov    %edx,0x10(%ebp)
c010bca1:	8b 00                	mov    (%eax),%eax
c010bca3:	0f b7 c0             	movzwl %ax,%eax
c010bca6:	89 45 e8             	mov    %eax,-0x18(%ebp)
c010bca9:	8b 45 e4             	mov    -0x1c(%ebp),%eax
c010bcac:	83 e0 02             	and    $0x2,%eax
c010bcaf:	85 c0                	test   %eax,%eax
c010bcb1:	74 31                	je     c010bce4 <vsprintf+0x3ff>
c010bcb3:	8b 45 e8             	mov    -0x18(%ebp),%eax
c010bcb6:	98                   	cwtl   
c010bcb7:	89 45 e8             	mov    %eax,-0x18(%ebp)
c010bcba:	eb 28                	jmp    c010bce4 <vsprintf+0x3ff>
c010bcbc:	8b 45 e4             	mov    -0x1c(%ebp),%eax
c010bcbf:	83 e0 02             	and    $0x2,%eax
c010bcc2:	85 c0                	test   %eax,%eax
c010bcc4:	74 10                	je     c010bcd6 <vsprintf+0x3f1>
c010bcc6:	8b 45 10             	mov    0x10(%ebp),%eax
c010bcc9:	8d 50 04             	lea    0x4(%eax),%edx
c010bccc:	89 55 10             	mov    %edx,0x10(%ebp)
c010bccf:	8b 00                	mov    (%eax),%eax
c010bcd1:	89 45 e8             	mov    %eax,-0x18(%ebp)
c010bcd4:	eb 0e                	jmp    c010bce4 <vsprintf+0x3ff>
c010bcd6:	8b 45 10             	mov    0x10(%ebp),%eax
c010bcd9:	8d 50 04             	lea    0x4(%eax),%edx
c010bcdc:	89 55 10             	mov    %edx,0x10(%ebp)
c010bcdf:	8b 00                	mov    (%eax),%eax
c010bce1:	89 45 e8             	mov    %eax,-0x18(%ebp)
c010bce4:	8b 45 e8             	mov    -0x18(%ebp),%eax
c010bce7:	8b 55 e0             	mov    -0x20(%ebp),%edx
c010bcea:	89 54 24 10          	mov    %edx,0x10(%esp)
c010bcee:	8b 55 e4             	mov    -0x1c(%ebp),%edx
c010bcf1:	89 54 24 0c          	mov    %edx,0xc(%esp)
c010bcf5:	8b 55 d4             	mov    -0x2c(%ebp),%edx
c010bcf8:	89 54 24 08          	mov    %edx,0x8(%esp)
c010bcfc:	8b 55 08             	mov    0x8(%ebp),%edx
c010bcff:	89 54 24 04          	mov    %edx,0x4(%esp)
c010bd03:	89 04 24             	mov    %eax,(%esp)
c010bd06:	e8 0c 0c 00 00       	call   c010c917 <itoa_ex>
c010bd0b:	83 45 08 01          	addl   $0x1,0x8(%ebp)
c010bd0f:	8b 45 08             	mov    0x8(%ebp),%eax
c010bd12:	0f b6 00             	movzbl (%eax),%eax
c010bd15:	84 c0                	test   %al,%al
c010bd17:	75 f2                	jne    c010bd0b <vsprintf+0x426>
c010bd19:	83 45 0c 01          	addl   $0x1,0xc(%ebp)
c010bd1d:	8b 45 0c             	mov    0xc(%ebp),%eax
c010bd20:	0f b6 00             	movzbl (%eax),%eax
c010bd23:	84 c0                	test   %al,%al
c010bd25:	0f 85 cb fb ff ff    	jne    c010b8f6 <vsprintf+0x11>
c010bd2b:	8b 45 08             	mov    0x8(%ebp),%eax
c010bd2e:	c6 00 00             	movb   $0x0,(%eax)
c010bd31:	8b 55 08             	mov    0x8(%ebp),%edx
c010bd34:	8b 45 f4             	mov    -0xc(%ebp),%eax
c010bd37:	29 c2                	sub    %eax,%edx
c010bd39:	89 d0                	mov    %edx,%eax
c010bd3b:	c9                   	leave  
c010bd3c:	c3                   	ret    

c010bd3d <list_create>:
c010bd3d:	55                   	push   %ebp
c010bd3e:	89 e5                	mov    %esp,%ebp
c010bd40:	83 ec 28             	sub    $0x28,%esp
c010bd43:	c7 04 24 0c 00 00 00 	movl   $0xc,(%esp)
c010bd4a:	e8 54 63 ff ff       	call   c01020a3 <malloc>
c010bd4f:	89 45 f4             	mov    %eax,-0xc(%ebp)
c010bd52:	c7 04 24 0c 00 00 00 	movl   $0xc,(%esp)
c010bd59:	e8 45 63 ff ff       	call   c01020a3 <malloc>
c010bd5e:	89 45 f0             	mov    %eax,-0x10(%ebp)
c010bd61:	8b 45 f4             	mov    -0xc(%ebp),%eax
c010bd64:	8b 55 f0             	mov    -0x10(%ebp),%edx
c010bd67:	89 10                	mov    %edx,(%eax)
c010bd69:	8b 45 f4             	mov    -0xc(%ebp),%eax
c010bd6c:	8b 55 f0             	mov    -0x10(%ebp),%edx
c010bd6f:	89 50 04             	mov    %edx,0x4(%eax)
c010bd72:	8b 45 f4             	mov    -0xc(%ebp),%eax
c010bd75:	c7 40 08 00 00 00 00 	movl   $0x0,0x8(%eax)
c010bd7c:	8b 45 f0             	mov    -0x10(%ebp),%eax
c010bd7f:	8b 55 f0             	mov    -0x10(%ebp),%edx
c010bd82:	89 10                	mov    %edx,(%eax)
c010bd84:	8b 45 f0             	mov    -0x10(%ebp),%eax
c010bd87:	8b 55 f0             	mov    -0x10(%ebp),%edx
c010bd8a:	89 50 04             	mov    %edx,0x4(%eax)
c010bd8d:	8b 45 f0             	mov    -0x10(%ebp),%eax
c010bd90:	c7 40 08 00 00 00 00 	movl   $0x0,0x8(%eax)
c010bd97:	8b 45 f4             	mov    -0xc(%ebp),%eax
c010bd9a:	c9                   	leave  
c010bd9b:	c3                   	ret    

c010bd9c <list_destroy>:
c010bd9c:	55                   	push   %ebp
c010bd9d:	89 e5                	mov    %esp,%ebp
c010bd9f:	83 ec 28             	sub    $0x28,%esp
c010bda2:	8b 45 08             	mov    0x8(%ebp),%eax
c010bda5:	8b 00                	mov    (%eax),%eax
c010bda7:	8b 00                	mov    (%eax),%eax
c010bda9:	8b 00                	mov    (%eax),%eax
c010bdab:	89 45 f4             	mov    %eax,-0xc(%ebp)
c010bdae:	8b 45 08             	mov    0x8(%ebp),%eax
c010bdb1:	8b 00                	mov    (%eax),%eax
c010bdb3:	8b 00                	mov    (%eax),%eax
c010bdb5:	89 45 f0             	mov    %eax,-0x10(%ebp)
c010bdb8:	eb 13                	jmp    c010bdcd <list_destroy+0x31>
c010bdba:	8b 45 f4             	mov    -0xc(%ebp),%eax
c010bdbd:	8b 00                	mov    (%eax),%eax
c010bdbf:	89 45 f4             	mov    %eax,-0xc(%ebp)
c010bdc2:	8b 45 f4             	mov    -0xc(%ebp),%eax
c010bdc5:	89 04 24             	mov    %eax,(%esp)
c010bdc8:	e8 f1 62 ff ff       	call   c01020be <free>
c010bdcd:	8b 45 f4             	mov    -0xc(%ebp),%eax
c010bdd0:	3b 45 f0             	cmp    -0x10(%ebp),%eax
c010bdd3:	75 e5                	jne    c010bdba <list_destroy+0x1e>
c010bdd5:	8b 45 08             	mov    0x8(%ebp),%eax
c010bdd8:	8b 00                	mov    (%eax),%eax
c010bdda:	89 04 24             	mov    %eax,(%esp)
c010bddd:	e8 dc 62 ff ff       	call   c01020be <free>
c010bde2:	8b 45 08             	mov    0x8(%ebp),%eax
c010bde5:	c7 00 00 00 00 00    	movl   $0x0,(%eax)
c010bdeb:	90                   	nop
c010bdec:	c9                   	leave  
c010bded:	c3                   	ret    

c010bdee <list_splice>:
c010bdee:	55                   	push   %ebp
c010bdef:	89 e5                	mov    %esp,%ebp
c010bdf1:	8b 45 08             	mov    0x8(%ebp),%eax
c010bdf4:	8b 40 04             	mov    0x4(%eax),%eax
c010bdf7:	8b 55 0c             	mov    0xc(%ebp),%edx
c010bdfa:	8b 12                	mov    (%edx),%edx
c010bdfc:	89 10                	mov    %edx,(%eax)
c010bdfe:	8b 45 0c             	mov    0xc(%ebp),%eax
c010be01:	8b 00                	mov    (%eax),%eax
c010be03:	8b 55 08             	mov    0x8(%ebp),%edx
c010be06:	8b 52 04             	mov    0x4(%edx),%edx
c010be09:	89 50 04             	mov    %edx,0x4(%eax)
c010be0c:	8b 45 08             	mov    0x8(%ebp),%eax
c010be0f:	8b 55 10             	mov    0x10(%ebp),%edx
c010be12:	89 50 04             	mov    %edx,0x4(%eax)
c010be15:	8b 45 10             	mov    0x10(%ebp),%eax
c010be18:	8b 10                	mov    (%eax),%edx
c010be1a:	8b 45 0c             	mov    0xc(%ebp),%eax
c010be1d:	89 10                	mov    %edx,(%eax)
c010be1f:	8b 45 10             	mov    0x10(%ebp),%eax
c010be22:	8b 00                	mov    (%eax),%eax
c010be24:	8b 55 0c             	mov    0xc(%ebp),%edx
c010be27:	89 50 04             	mov    %edx,0x4(%eax)
c010be2a:	8b 45 10             	mov    0x10(%ebp),%eax
c010be2d:	8b 55 08             	mov    0x8(%ebp),%edx
c010be30:	89 10                	mov    %edx,(%eax)
c010be32:	90                   	nop
c010be33:	5d                   	pop    %ebp
c010be34:	c3                   	ret    

c010be35 <list_push_back>:
c010be35:	55                   	push   %ebp
c010be36:	89 e5                	mov    %esp,%ebp
c010be38:	83 ec 28             	sub    $0x28,%esp
c010be3b:	c7 04 24 0c 00 00 00 	movl   $0xc,(%esp)
c010be42:	e8 5c 62 ff ff       	call   c01020a3 <malloc>
c010be47:	89 45 f4             	mov    %eax,-0xc(%ebp)
c010be4a:	8b 45 f4             	mov    -0xc(%ebp),%eax
c010be4d:	8b 55 0c             	mov    0xc(%ebp),%edx
c010be50:	89 50 08             	mov    %edx,0x8(%eax)
c010be53:	8b 45 f4             	mov    -0xc(%ebp),%eax
c010be56:	8b 55 f4             	mov    -0xc(%ebp),%edx
c010be59:	89 10                	mov    %edx,(%eax)
c010be5b:	8b 45 f4             	mov    -0xc(%ebp),%eax
c010be5e:	8b 55 f4             	mov    -0xc(%ebp),%edx
c010be61:	89 50 04             	mov    %edx,0x4(%eax)
c010be64:	8b 45 08             	mov    0x8(%ebp),%eax
c010be67:	8b 00                	mov    (%eax),%eax
c010be69:	8b 40 04             	mov    0x4(%eax),%eax
c010be6c:	89 44 24 08          	mov    %eax,0x8(%esp)
c010be70:	8b 45 f4             	mov    -0xc(%ebp),%eax
c010be73:	89 44 24 04          	mov    %eax,0x4(%esp)
c010be77:	8b 45 f4             	mov    -0xc(%ebp),%eax
c010be7a:	89 04 24             	mov    %eax,(%esp)
c010be7d:	e8 6c ff ff ff       	call   c010bdee <list_splice>
c010be82:	8b 45 08             	mov    0x8(%ebp),%eax
c010be85:	c9                   	leave  
c010be86:	c3                   	ret    

c010be87 <list_push_front>:
c010be87:	55                   	push   %ebp
c010be88:	89 e5                	mov    %esp,%ebp
c010be8a:	83 ec 28             	sub    $0x28,%esp
c010be8d:	c7 04 24 0c 00 00 00 	movl   $0xc,(%esp)
c010be94:	e8 0a 62 ff ff       	call   c01020a3 <malloc>
c010be99:	89 45 f4             	mov    %eax,-0xc(%ebp)
c010be9c:	8b 45 f4             	mov    -0xc(%ebp),%eax
c010be9f:	8b 55 0c             	mov    0xc(%ebp),%edx
c010bea2:	89 50 08             	mov    %edx,0x8(%eax)
c010bea5:	8b 45 f4             	mov    -0xc(%ebp),%eax
c010bea8:	8b 55 f4             	mov    -0xc(%ebp),%edx
c010beab:	89 10                	mov    %edx,(%eax)
c010bead:	8b 45 f4             	mov    -0xc(%ebp),%eax
c010beb0:	8b 55 f4             	mov    -0xc(%ebp),%edx
c010beb3:	89 50 04             	mov    %edx,0x4(%eax)
c010beb6:	8b 45 08             	mov    0x8(%ebp),%eax
c010beb9:	8b 00                	mov    (%eax),%eax
c010bebb:	89 44 24 08          	mov    %eax,0x8(%esp)
c010bebf:	8b 45 f4             	mov    -0xc(%ebp),%eax
c010bec2:	89 44 24 04          	mov    %eax,0x4(%esp)
c010bec6:	8b 45 f4             	mov    -0xc(%ebp),%eax
c010bec9:	89 04 24             	mov    %eax,(%esp)
c010becc:	e8 1d ff ff ff       	call   c010bdee <list_splice>
c010bed1:	8b 45 08             	mov    0x8(%ebp),%eax
c010bed4:	c9                   	leave  
c010bed5:	c3                   	ret    

c010bed6 <list_pop_back>:
c010bed6:	55                   	push   %ebp
c010bed7:	89 e5                	mov    %esp,%ebp
c010bed9:	83 ec 28             	sub    $0x28,%esp
c010bedc:	8b 45 08             	mov    0x8(%ebp),%eax
c010bedf:	8b 00                	mov    (%eax),%eax
c010bee1:	8b 40 04             	mov    0x4(%eax),%eax
c010bee4:	89 45 f4             	mov    %eax,-0xc(%ebp)
c010bee7:	8b 45 f4             	mov    -0xc(%ebp),%eax
c010beea:	89 04 24             	mov    %eax,(%esp)
c010beed:	e8 c2 00 00 00       	call   c010bfb4 <list_remove_node>
c010bef2:	c9                   	leave  
c010bef3:	c3                   	ret    

c010bef4 <list_pop_front>:
c010bef4:	55                   	push   %ebp
c010bef5:	89 e5                	mov    %esp,%ebp
c010bef7:	83 ec 28             	sub    $0x28,%esp
c010befa:	8b 45 08             	mov    0x8(%ebp),%eax
c010befd:	8b 00                	mov    (%eax),%eax
c010beff:	8b 00                	mov    (%eax),%eax
c010bf01:	89 45 f4             	mov    %eax,-0xc(%ebp)
c010bf04:	8b 45 f4             	mov    -0xc(%ebp),%eax
c010bf07:	89 04 24             	mov    %eax,(%esp)
c010bf0a:	e8 a5 00 00 00       	call   c010bfb4 <list_remove_node>
c010bf0f:	c9                   	leave  
c010bf10:	c3                   	ret    

c010bf11 <list_insert_after>:
c010bf11:	55                   	push   %ebp
c010bf12:	89 e5                	mov    %esp,%ebp
c010bf14:	83 ec 28             	sub    $0x28,%esp
c010bf17:	c7 04 24 0c 00 00 00 	movl   $0xc,(%esp)
c010bf1e:	e8 80 61 ff ff       	call   c01020a3 <malloc>
c010bf23:	89 45 f4             	mov    %eax,-0xc(%ebp)
c010bf26:	8b 45 f4             	mov    -0xc(%ebp),%eax
c010bf29:	8b 55 0c             	mov    0xc(%ebp),%edx
c010bf2c:	89 50 08             	mov    %edx,0x8(%eax)
c010bf2f:	8b 45 f4             	mov    -0xc(%ebp),%eax
c010bf32:	8b 55 f4             	mov    -0xc(%ebp),%edx
c010bf35:	89 10                	mov    %edx,(%eax)
c010bf37:	8b 45 f4             	mov    -0xc(%ebp),%eax
c010bf3a:	8b 55 f4             	mov    -0xc(%ebp),%edx
c010bf3d:	89 50 04             	mov    %edx,0x4(%eax)
c010bf40:	8b 45 08             	mov    0x8(%ebp),%eax
c010bf43:	8b 40 04             	mov    0x4(%eax),%eax
c010bf46:	89 44 24 08          	mov    %eax,0x8(%esp)
c010bf4a:	8b 45 f4             	mov    -0xc(%ebp),%eax
c010bf4d:	89 44 24 04          	mov    %eax,0x4(%esp)
c010bf51:	8b 45 f4             	mov    -0xc(%ebp),%eax
c010bf54:	89 04 24             	mov    %eax,(%esp)
c010bf57:	e8 92 fe ff ff       	call   c010bdee <list_splice>
c010bf5c:	8b 45 08             	mov    0x8(%ebp),%eax
c010bf5f:	c9                   	leave  
c010bf60:	c3                   	ret    

c010bf61 <list_insert_before>:
c010bf61:	55                   	push   %ebp
c010bf62:	89 e5                	mov    %esp,%ebp
c010bf64:	83 ec 28             	sub    $0x28,%esp
c010bf67:	c7 04 24 0c 00 00 00 	movl   $0xc,(%esp)
c010bf6e:	e8 30 61 ff ff       	call   c01020a3 <malloc>
c010bf73:	89 45 f4             	mov    %eax,-0xc(%ebp)
c010bf76:	8b 45 f4             	mov    -0xc(%ebp),%eax
c010bf79:	8b 55 0c             	mov    0xc(%ebp),%edx
c010bf7c:	89 50 08             	mov    %edx,0x8(%eax)
c010bf7f:	8b 45 f4             	mov    -0xc(%ebp),%eax
c010bf82:	8b 55 f4             	mov    -0xc(%ebp),%edx
c010bf85:	89 10                	mov    %edx,(%eax)
c010bf87:	8b 45 f4             	mov    -0xc(%ebp),%eax
c010bf8a:	8b 55 f4             	mov    -0xc(%ebp),%edx
c010bf8d:	89 50 04             	mov    %edx,0x4(%eax)
c010bf90:	8b 45 08             	mov    0x8(%ebp),%eax
c010bf93:	8b 40 04             	mov    0x4(%eax),%eax
c010bf96:	8b 40 04             	mov    0x4(%eax),%eax
c010bf99:	89 44 24 08          	mov    %eax,0x8(%esp)
c010bf9d:	8b 45 f4             	mov    -0xc(%ebp),%eax
c010bfa0:	89 44 24 04          	mov    %eax,0x4(%esp)
c010bfa4:	8b 45 f4             	mov    -0xc(%ebp),%eax
c010bfa7:	89 04 24             	mov    %eax,(%esp)
c010bfaa:	e8 3f fe ff ff       	call   c010bdee <list_splice>
c010bfaf:	8b 45 08             	mov    0x8(%ebp),%eax
c010bfb2:	c9                   	leave  
c010bfb3:	c3                   	ret    

c010bfb4 <list_remove_node>:
c010bfb4:	55                   	push   %ebp
c010bfb5:	89 e5                	mov    %esp,%ebp
c010bfb7:	83 ec 28             	sub    $0x28,%esp
c010bfba:	8b 45 08             	mov    0x8(%ebp),%eax
c010bfbd:	8b 40 08             	mov    0x8(%eax),%eax
c010bfc0:	89 45 f4             	mov    %eax,-0xc(%ebp)
c010bfc3:	8b 45 08             	mov    0x8(%ebp),%eax
c010bfc6:	8b 40 04             	mov    0x4(%eax),%eax
c010bfc9:	8b 55 08             	mov    0x8(%ebp),%edx
c010bfcc:	8b 12                	mov    (%edx),%edx
c010bfce:	89 10                	mov    %edx,(%eax)
c010bfd0:	8b 45 08             	mov    0x8(%ebp),%eax
c010bfd3:	8b 00                	mov    (%eax),%eax
c010bfd5:	8b 55 08             	mov    0x8(%ebp),%edx
c010bfd8:	8b 52 04             	mov    0x4(%edx),%edx
c010bfdb:	89 50 04             	mov    %edx,0x4(%eax)
c010bfde:	8b 45 08             	mov    0x8(%ebp),%eax
c010bfe1:	89 04 24             	mov    %eax,(%esp)
c010bfe4:	e8 d5 60 ff ff       	call   c01020be <free>
c010bfe9:	8b 45 f4             	mov    -0xc(%ebp),%eax
c010bfec:	c9                   	leave  
c010bfed:	c3                   	ret    

c010bfee <list_remove>:
c010bfee:	55                   	push   %ebp
c010bfef:	89 e5                	mov    %esp,%ebp
c010bff1:	83 ec 28             	sub    $0x28,%esp
c010bff4:	8b 45 08             	mov    0x8(%ebp),%eax
c010bff7:	89 04 24             	mov    %eax,(%esp)
c010bffa:	e8 7c 00 00 00       	call   c010c07b <list_get_current>
c010bfff:	89 45 f4             	mov    %eax,-0xc(%ebp)
c010c002:	8b 45 08             	mov    0x8(%ebp),%eax
c010c005:	8b 40 04             	mov    0x4(%eax),%eax
c010c008:	89 45 f0             	mov    %eax,-0x10(%ebp)
c010c00b:	8b 45 f0             	mov    -0x10(%ebp),%eax
c010c00e:	8b 40 04             	mov    0x4(%eax),%eax
c010c011:	8b 55 f0             	mov    -0x10(%ebp),%edx
c010c014:	8b 12                	mov    (%edx),%edx
c010c016:	89 10                	mov    %edx,(%eax)
c010c018:	8b 45 f0             	mov    -0x10(%ebp),%eax
c010c01b:	8b 00                	mov    (%eax),%eax
c010c01d:	8b 55 f0             	mov    -0x10(%ebp),%edx
c010c020:	8b 52 04             	mov    0x4(%edx),%edx
c010c023:	89 50 04             	mov    %edx,0x4(%eax)
c010c026:	8b 45 f0             	mov    -0x10(%ebp),%eax
c010c029:	8b 10                	mov    (%eax),%edx
c010c02b:	8b 45 08             	mov    0x8(%ebp),%eax
c010c02e:	89 50 04             	mov    %edx,0x4(%eax)
c010c031:	8b 45 f0             	mov    -0x10(%ebp),%eax
c010c034:	89 04 24             	mov    %eax,(%esp)
c010c037:	e8 82 60 ff ff       	call   c01020be <free>
c010c03c:	8b 45 f4             	mov    -0xc(%ebp),%eax
c010c03f:	c9                   	leave  
c010c040:	c3                   	ret    

c010c041 <list_length>:
c010c041:	55                   	push   %ebp
c010c042:	89 e5                	mov    %esp,%ebp
c010c044:	83 ec 10             	sub    $0x10,%esp
c010c047:	8b 45 08             	mov    0x8(%ebp),%eax
c010c04a:	8b 00                	mov    (%eax),%eax
c010c04c:	8b 00                	mov    (%eax),%eax
c010c04e:	89 45 fc             	mov    %eax,-0x4(%ebp)
c010c051:	8b 45 08             	mov    0x8(%ebp),%eax
c010c054:	8b 00                	mov    (%eax),%eax
c010c056:	89 45 f4             	mov    %eax,-0xc(%ebp)
c010c059:	c7 45 f8 00 00 00 00 	movl   $0x0,-0x8(%ebp)
c010c060:	eb 0c                	jmp    c010c06e <list_length+0x2d>
c010c062:	8b 45 fc             	mov    -0x4(%ebp),%eax
c010c065:	8b 00                	mov    (%eax),%eax
c010c067:	89 45 fc             	mov    %eax,-0x4(%ebp)
c010c06a:	83 45 f8 01          	addl   $0x1,-0x8(%ebp)
c010c06e:	8b 45 fc             	mov    -0x4(%ebp),%eax
c010c071:	3b 45 f4             	cmp    -0xc(%ebp),%eax
c010c074:	75 ec                	jne    c010c062 <list_length+0x21>
c010c076:	8b 45 f8             	mov    -0x8(%ebp),%eax
c010c079:	c9                   	leave  
c010c07a:	c3                   	ret    

c010c07b <list_get_current>:
c010c07b:	55                   	push   %ebp
c010c07c:	89 e5                	mov    %esp,%ebp
c010c07e:	8b 45 08             	mov    0x8(%ebp),%eax
c010c081:	8b 40 04             	mov    0x4(%eax),%eax
c010c084:	8b 40 08             	mov    0x8(%eax),%eax
c010c087:	5d                   	pop    %ebp
c010c088:	c3                   	ret    

c010c089 <list_next>:
c010c089:	55                   	push   %ebp
c010c08a:	89 e5                	mov    %esp,%ebp
c010c08c:	8b 45 08             	mov    0x8(%ebp),%eax
c010c08f:	8b 40 04             	mov    0x4(%eax),%eax
c010c092:	8b 10                	mov    (%eax),%edx
c010c094:	8b 45 08             	mov    0x8(%ebp),%eax
c010c097:	89 50 04             	mov    %edx,0x4(%eax)
c010c09a:	8b 45 08             	mov    0x8(%ebp),%eax
c010c09d:	5d                   	pop    %ebp
c010c09e:	c3                   	ret    

c010c09f <list_previous>:
c010c09f:	55                   	push   %ebp
c010c0a0:	89 e5                	mov    %esp,%ebp
c010c0a2:	8b 45 08             	mov    0x8(%ebp),%eax
c010c0a5:	8b 40 04             	mov    0x4(%eax),%eax
c010c0a8:	8b 50 04             	mov    0x4(%eax),%edx
c010c0ab:	8b 45 08             	mov    0x8(%ebp),%eax
c010c0ae:	89 50 04             	mov    %edx,0x4(%eax)
c010c0b1:	8b 45 08             	mov    0x8(%ebp),%eax
c010c0b4:	5d                   	pop    %ebp
c010c0b5:	c3                   	ret    

c010c0b6 <list_is_last>:
c010c0b6:	55                   	push   %ebp
c010c0b7:	89 e5                	mov    %esp,%ebp
c010c0b9:	8b 45 08             	mov    0x8(%ebp),%eax
c010c0bc:	8b 50 04             	mov    0x4(%eax),%edx
c010c0bf:	8b 45 08             	mov    0x8(%ebp),%eax
c010c0c2:	8b 00                	mov    (%eax),%eax
c010c0c4:	39 c2                	cmp    %eax,%edx
c010c0c6:	0f 94 c0             	sete   %al
c010c0c9:	0f b6 c0             	movzbl %al,%eax
c010c0cc:	5d                   	pop    %ebp
c010c0cd:	c3                   	ret    

c010c0ce <list_set_first>:
c010c0ce:	55                   	push   %ebp
c010c0cf:	89 e5                	mov    %esp,%ebp
c010c0d1:	8b 45 08             	mov    0x8(%ebp),%eax
c010c0d4:	8b 00                	mov    (%eax),%eax
c010c0d6:	8b 10                	mov    (%eax),%edx
c010c0d8:	8b 45 08             	mov    0x8(%ebp),%eax
c010c0db:	89 50 04             	mov    %edx,0x4(%eax)
c010c0de:	8b 45 08             	mov    0x8(%ebp),%eax
c010c0e1:	5d                   	pop    %ebp
c010c0e2:	c3                   	ret    

c010c0e3 <list_set_last>:
c010c0e3:	55                   	push   %ebp
c010c0e4:	89 e5                	mov    %esp,%ebp
c010c0e6:	8b 45 08             	mov    0x8(%ebp),%eax
c010c0e9:	8b 00                	mov    (%eax),%eax
c010c0eb:	8b 50 04             	mov    0x4(%eax),%edx
c010c0ee:	8b 45 08             	mov    0x8(%ebp),%eax
c010c0f1:	89 50 04             	mov    %edx,0x4(%eax)
c010c0f4:	8b 45 08             	mov    0x8(%ebp),%eax
c010c0f7:	5d                   	pop    %ebp
c010c0f8:	c3                   	ret    

c010c0f9 <list_is_empty>:
c010c0f9:	55                   	push   %ebp
c010c0fa:	89 e5                	mov    %esp,%ebp
c010c0fc:	8b 45 08             	mov    0x8(%ebp),%eax
c010c0ff:	8b 10                	mov    (%eax),%edx
c010c101:	8b 45 08             	mov    0x8(%ebp),%eax
c010c104:	8b 00                	mov    (%eax),%eax
c010c106:	8b 00                	mov    (%eax),%eax
c010c108:	39 c2                	cmp    %eax,%edx
c010c10a:	0f 94 c0             	sete   %al
c010c10d:	0f b6 c0             	movzbl %al,%eax
c010c110:	5d                   	pop    %ebp
c010c111:	c3                   	ret    

c010c112 <isalnum>:
c010c112:	55                   	push   %ebp
c010c113:	89 e5                	mov    %esp,%ebp
c010c115:	83 7d 08 40          	cmpl   $0x40,0x8(%ebp)
c010c119:	7e 06                	jle    c010c121 <isalnum+0xf>
c010c11b:	83 7d 08 5a          	cmpl   $0x5a,0x8(%ebp)
c010c11f:	7e 18                	jle    c010c139 <isalnum+0x27>
c010c121:	83 7d 08 60          	cmpl   $0x60,0x8(%ebp)
c010c125:	7e 06                	jle    c010c12d <isalnum+0x1b>
c010c127:	83 7d 08 7a          	cmpl   $0x7a,0x8(%ebp)
c010c12b:	7e 0c                	jle    c010c139 <isalnum+0x27>
c010c12d:	83 7d 08 2f          	cmpl   $0x2f,0x8(%ebp)
c010c131:	7e 0d                	jle    c010c140 <isalnum+0x2e>
c010c133:	83 7d 08 39          	cmpl   $0x39,0x8(%ebp)
c010c137:	7f 07                	jg     c010c140 <isalnum+0x2e>
c010c139:	b8 01 00 00 00       	mov    $0x1,%eax
c010c13e:	eb 05                	jmp    c010c145 <isalnum+0x33>
c010c140:	b8 00 00 00 00       	mov    $0x0,%eax
c010c145:	5d                   	pop    %ebp
c010c146:	c3                   	ret    

c010c147 <isalpha>:
c010c147:	55                   	push   %ebp
c010c148:	89 e5                	mov    %esp,%ebp
c010c14a:	83 7d 08 40          	cmpl   $0x40,0x8(%ebp)
c010c14e:	7e 06                	jle    c010c156 <isalpha+0xf>
c010c150:	83 7d 08 5a          	cmpl   $0x5a,0x8(%ebp)
c010c154:	7e 0c                	jle    c010c162 <isalpha+0x1b>
c010c156:	83 7d 08 60          	cmpl   $0x60,0x8(%ebp)
c010c15a:	7e 0d                	jle    c010c169 <isalpha+0x22>
c010c15c:	83 7d 08 7a          	cmpl   $0x7a,0x8(%ebp)
c010c160:	7f 07                	jg     c010c169 <isalpha+0x22>
c010c162:	b8 01 00 00 00       	mov    $0x1,%eax
c010c167:	eb 05                	jmp    c010c16e <isalpha+0x27>
c010c169:	b8 00 00 00 00       	mov    $0x0,%eax
c010c16e:	5d                   	pop    %ebp
c010c16f:	c3                   	ret    

c010c170 <iscntrl>:
c010c170:	55                   	push   %ebp
c010c171:	89 e5                	mov    %esp,%ebp
c010c173:	83 7d 08 00          	cmpl   $0x0,0x8(%ebp)
c010c177:	78 06                	js     c010c17f <iscntrl+0xf>
c010c179:	83 7d 08 20          	cmpl   $0x20,0x8(%ebp)
c010c17d:	7f 06                	jg     c010c185 <iscntrl+0x15>
c010c17f:	83 7d 08 7f          	cmpl   $0x7f,0x8(%ebp)
c010c183:	75 07                	jne    c010c18c <iscntrl+0x1c>
c010c185:	b8 01 00 00 00       	mov    $0x1,%eax
c010c18a:	eb 05                	jmp    c010c191 <iscntrl+0x21>
c010c18c:	b8 00 00 00 00       	mov    $0x0,%eax
c010c191:	5d                   	pop    %ebp
c010c192:	c3                   	ret    

c010c193 <isdigit>:
c010c193:	55                   	push   %ebp
c010c194:	89 e5                	mov    %esp,%ebp
c010c196:	83 7d 08 2f          	cmpl   $0x2f,0x8(%ebp)
c010c19a:	7e 0d                	jle    c010c1a9 <isdigit+0x16>
c010c19c:	83 7d 08 39          	cmpl   $0x39,0x8(%ebp)
c010c1a0:	7f 07                	jg     c010c1a9 <isdigit+0x16>
c010c1a2:	b8 01 00 00 00       	mov    $0x1,%eax
c010c1a7:	eb 05                	jmp    c010c1ae <isdigit+0x1b>
c010c1a9:	b8 00 00 00 00       	mov    $0x0,%eax
c010c1ae:	5d                   	pop    %ebp
c010c1af:	c3                   	ret    

c010c1b0 <isgraph>:
c010c1b0:	55                   	push   %ebp
c010c1b1:	89 e5                	mov    %esp,%ebp
c010c1b3:	83 7d 08 20          	cmpl   $0x20,0x8(%ebp)
c010c1b7:	7e 0d                	jle    c010c1c6 <isgraph+0x16>
c010c1b9:	83 7d 08 7e          	cmpl   $0x7e,0x8(%ebp)
c010c1bd:	7f 07                	jg     c010c1c6 <isgraph+0x16>
c010c1bf:	b8 01 00 00 00       	mov    $0x1,%eax
c010c1c4:	eb 05                	jmp    c010c1cb <isgraph+0x1b>
c010c1c6:	b8 00 00 00 00       	mov    $0x0,%eax
c010c1cb:	5d                   	pop    %ebp
c010c1cc:	c3                   	ret    

c010c1cd <islower>:
c010c1cd:	55                   	push   %ebp
c010c1ce:	89 e5                	mov    %esp,%ebp
c010c1d0:	83 7d 08 60          	cmpl   $0x60,0x8(%ebp)
c010c1d4:	7e 0d                	jle    c010c1e3 <islower+0x16>
c010c1d6:	83 7d 08 7a          	cmpl   $0x7a,0x8(%ebp)
c010c1da:	7f 07                	jg     c010c1e3 <islower+0x16>
c010c1dc:	b8 01 00 00 00       	mov    $0x1,%eax
c010c1e1:	eb 05                	jmp    c010c1e8 <islower+0x1b>
c010c1e3:	b8 00 00 00 00       	mov    $0x0,%eax
c010c1e8:	5d                   	pop    %ebp
c010c1e9:	c3                   	ret    

c010c1ea <isprint>:
c010c1ea:	55                   	push   %ebp
c010c1eb:	89 e5                	mov    %esp,%ebp
c010c1ed:	83 7d 08 1f          	cmpl   $0x1f,0x8(%ebp)
c010c1f1:	7e 0d                	jle    c010c200 <isprint+0x16>
c010c1f3:	83 7d 08 7e          	cmpl   $0x7e,0x8(%ebp)
c010c1f7:	7f 07                	jg     c010c200 <isprint+0x16>
c010c1f9:	b8 01 00 00 00       	mov    $0x1,%eax
c010c1fe:	eb 05                	jmp    c010c205 <isprint+0x1b>
c010c200:	b8 00 00 00 00       	mov    $0x0,%eax
c010c205:	5d                   	pop    %ebp
c010c206:	c3                   	ret    

c010c207 <ispunct>:
c010c207:	55                   	push   %ebp
c010c208:	89 e5                	mov    %esp,%ebp
c010c20a:	83 7d 08 20          	cmpl   $0x20,0x8(%ebp)
c010c20e:	7e 06                	jle    c010c216 <ispunct+0xf>
c010c210:	83 7d 08 2f          	cmpl   $0x2f,0x8(%ebp)
c010c214:	7e 24                	jle    c010c23a <ispunct+0x33>
c010c216:	83 7d 08 39          	cmpl   $0x39,0x8(%ebp)
c010c21a:	7e 06                	jle    c010c222 <ispunct+0x1b>
c010c21c:	83 7d 08 40          	cmpl   $0x40,0x8(%ebp)
c010c220:	7e 18                	jle    c010c23a <ispunct+0x33>
c010c222:	83 7d 08 5a          	cmpl   $0x5a,0x8(%ebp)
c010c226:	7e 06                	jle    c010c22e <ispunct+0x27>
c010c228:	83 7d 08 60          	cmpl   $0x60,0x8(%ebp)
c010c22c:	7e 0c                	jle    c010c23a <ispunct+0x33>
c010c22e:	83 7d 08 7a          	cmpl   $0x7a,0x8(%ebp)
c010c232:	7e 0d                	jle    c010c241 <ispunct+0x3a>
c010c234:	83 7d 08 7e          	cmpl   $0x7e,0x8(%ebp)
c010c238:	7f 07                	jg     c010c241 <ispunct+0x3a>
c010c23a:	b8 01 00 00 00       	mov    $0x1,%eax
c010c23f:	eb 05                	jmp    c010c246 <ispunct+0x3f>
c010c241:	b8 00 00 00 00       	mov    $0x0,%eax
c010c246:	5d                   	pop    %ebp
c010c247:	c3                   	ret    

c010c248 <isspace>:
c010c248:	55                   	push   %ebp
c010c249:	89 e5                	mov    %esp,%ebp
c010c24b:	83 7d 08 20          	cmpl   $0x20,0x8(%ebp)
c010c24f:	74 1e                	je     c010c26f <isspace+0x27>
c010c251:	83 7d 08 0c          	cmpl   $0xc,0x8(%ebp)
c010c255:	74 18                	je     c010c26f <isspace+0x27>
c010c257:	83 7d 08 0a          	cmpl   $0xa,0x8(%ebp)
c010c25b:	74 12                	je     c010c26f <isspace+0x27>
c010c25d:	83 7d 08 0d          	cmpl   $0xd,0x8(%ebp)
c010c261:	74 0c                	je     c010c26f <isspace+0x27>
c010c263:	83 7d 08 09          	cmpl   $0x9,0x8(%ebp)
c010c267:	74 06                	je     c010c26f <isspace+0x27>
c010c269:	83 7d 08 0b          	cmpl   $0xb,0x8(%ebp)
c010c26d:	75 07                	jne    c010c276 <isspace+0x2e>
c010c26f:	b8 01 00 00 00       	mov    $0x1,%eax
c010c274:	eb 05                	jmp    c010c27b <isspace+0x33>
c010c276:	b8 00 00 00 00       	mov    $0x0,%eax
c010c27b:	5d                   	pop    %ebp
c010c27c:	c3                   	ret    

c010c27d <isupper>:
c010c27d:	55                   	push   %ebp
c010c27e:	89 e5                	mov    %esp,%ebp
c010c280:	83 7d 08 40          	cmpl   $0x40,0x8(%ebp)
c010c284:	7e 0d                	jle    c010c293 <isupper+0x16>
c010c286:	83 7d 08 5a          	cmpl   $0x5a,0x8(%ebp)
c010c28a:	7f 07                	jg     c010c293 <isupper+0x16>
c010c28c:	b8 01 00 00 00       	mov    $0x1,%eax
c010c291:	eb 05                	jmp    c010c298 <isupper+0x1b>
c010c293:	b8 00 00 00 00       	mov    $0x0,%eax
c010c298:	5d                   	pop    %ebp
c010c299:	c3                   	ret    

c010c29a <isxdigit>:
c010c29a:	55                   	push   %ebp
c010c29b:	89 e5                	mov    %esp,%ebp
c010c29d:	83 7d 08 2f          	cmpl   $0x2f,0x8(%ebp)
c010c2a1:	7e 06                	jle    c010c2a9 <isxdigit+0xf>
c010c2a3:	83 7d 08 39          	cmpl   $0x39,0x8(%ebp)
c010c2a7:	7e 18                	jle    c010c2c1 <isxdigit+0x27>
c010c2a9:	83 7d 08 40          	cmpl   $0x40,0x8(%ebp)
c010c2ad:	7e 06                	jle    c010c2b5 <isxdigit+0x1b>
c010c2af:	83 7d 08 46          	cmpl   $0x46,0x8(%ebp)
c010c2b3:	7e 0c                	jle    c010c2c1 <isxdigit+0x27>
c010c2b5:	83 7d 08 60          	cmpl   $0x60,0x8(%ebp)
c010c2b9:	7e 0d                	jle    c010c2c8 <isxdigit+0x2e>
c010c2bb:	83 7d 08 66          	cmpl   $0x66,0x8(%ebp)
c010c2bf:	7f 07                	jg     c010c2c8 <isxdigit+0x2e>
c010c2c1:	b8 01 00 00 00       	mov    $0x1,%eax
c010c2c6:	eb 05                	jmp    c010c2cd <isxdigit+0x33>
c010c2c8:	b8 00 00 00 00       	mov    $0x0,%eax
c010c2cd:	5d                   	pop    %ebp
c010c2ce:	c3                   	ret    

c010c2cf <tolower>:
c010c2cf:	55                   	push   %ebp
c010c2d0:	89 e5                	mov    %esp,%ebp
c010c2d2:	83 45 08 20          	addl   $0x20,0x8(%ebp)
c010c2d6:	8b 45 08             	mov    0x8(%ebp),%eax
c010c2d9:	5d                   	pop    %ebp
c010c2da:	c3                   	ret    

c010c2db <toupper>:
c010c2db:	55                   	push   %ebp
c010c2dc:	89 e5                	mov    %esp,%ebp
c010c2de:	83 6d 08 20          	subl   $0x20,0x8(%ebp)
c010c2e2:	8b 45 08             	mov    0x8(%ebp),%eax
c010c2e5:	5d                   	pop    %ebp
c010c2e6:	c3                   	ret    

c010c2e7 <strnlen>:
c010c2e7:	55                   	push   %ebp
c010c2e8:	89 e5                	mov    %esp,%ebp
c010c2ea:	83 ec 10             	sub    $0x10,%esp
c010c2ed:	8b 45 08             	mov    0x8(%ebp),%eax
c010c2f0:	89 45 fc             	mov    %eax,-0x4(%ebp)
c010c2f3:	eb 08                	jmp    c010c2fd <strnlen+0x16>
c010c2f5:	83 45 fc 01          	addl   $0x1,-0x4(%ebp)
c010c2f9:	83 6d 0c 01          	subl   $0x1,0xc(%ebp)
c010c2fd:	8b 45 fc             	mov    -0x4(%ebp),%eax
c010c300:	0f b6 00             	movzbl (%eax),%eax
c010c303:	84 c0                	test   %al,%al
c010c305:	74 06                	je     c010c30d <strnlen+0x26>
c010c307:	83 7d 0c 00          	cmpl   $0x0,0xc(%ebp)
c010c30b:	75 e8                	jne    c010c2f5 <strnlen+0xe>
c010c30d:	8b 55 fc             	mov    -0x4(%ebp),%edx
c010c310:	8b 45 08             	mov    0x8(%ebp),%eax
c010c313:	29 c2                	sub    %eax,%edx
c010c315:	89 d0                	mov    %edx,%eax
c010c317:	c9                   	leave  
c010c318:	c3                   	ret    

c010c319 <strlen>:
c010c319:	55                   	push   %ebp
c010c31a:	89 e5                	mov    %esp,%ebp
c010c31c:	83 ec 10             	sub    $0x10,%esp
c010c31f:	c7 45 fc 00 00 00 00 	movl   $0x0,-0x4(%ebp)
c010c326:	eb 04                	jmp    c010c32c <strlen+0x13>
c010c328:	83 45 fc 01          	addl   $0x1,-0x4(%ebp)
c010c32c:	8b 45 fc             	mov    -0x4(%ebp),%eax
c010c32f:	8b 55 08             	mov    0x8(%ebp),%edx
c010c332:	01 d0                	add    %edx,%eax
c010c334:	0f b6 00             	movzbl (%eax),%eax
c010c337:	84 c0                	test   %al,%al
c010c339:	75 ed                	jne    c010c328 <strlen+0xf>
c010c33b:	8b 45 fc             	mov    -0x4(%ebp),%eax
c010c33e:	c9                   	leave  
c010c33f:	c3                   	ret    

c010c340 <strcpy>:
c010c340:	55                   	push   %ebp
c010c341:	89 e5                	mov    %esp,%ebp
c010c343:	83 ec 10             	sub    $0x10,%esp
c010c346:	c7 45 fc 00 00 00 00 	movl   $0x0,-0x4(%ebp)
c010c34d:	eb 19                	jmp    c010c368 <strcpy+0x28>
c010c34f:	8b 45 fc             	mov    -0x4(%ebp),%eax
c010c352:	8b 55 08             	mov    0x8(%ebp),%edx
c010c355:	01 c2                	add    %eax,%edx
c010c357:	8b 45 fc             	mov    -0x4(%ebp),%eax
c010c35a:	8b 4d 0c             	mov    0xc(%ebp),%ecx
c010c35d:	01 c8                	add    %ecx,%eax
c010c35f:	0f b6 00             	movzbl (%eax),%eax
c010c362:	88 02                	mov    %al,(%edx)
c010c364:	83 45 fc 01          	addl   $0x1,-0x4(%ebp)
c010c368:	8b 45 fc             	mov    -0x4(%ebp),%eax
c010c36b:	8b 55 0c             	mov    0xc(%ebp),%edx
c010c36e:	01 d0                	add    %edx,%eax
c010c370:	0f b6 00             	movzbl (%eax),%eax
c010c373:	84 c0                	test   %al,%al
c010c375:	75 d8                	jne    c010c34f <strcpy+0xf>
c010c377:	8b 45 fc             	mov    -0x4(%ebp),%eax
c010c37a:	8b 55 08             	mov    0x8(%ebp),%edx
c010c37d:	01 c2                	add    %eax,%edx
c010c37f:	8b 45 fc             	mov    -0x4(%ebp),%eax
c010c382:	8b 4d 0c             	mov    0xc(%ebp),%ecx
c010c385:	01 c8                	add    %ecx,%eax
c010c387:	0f b6 00             	movzbl (%eax),%eax
c010c38a:	88 02                	mov    %al,(%edx)
c010c38c:	8b 45 08             	mov    0x8(%ebp),%eax
c010c38f:	c9                   	leave  
c010c390:	c3                   	ret    

c010c391 <strncpy>:
c010c391:	55                   	push   %ebp
c010c392:	89 e5                	mov    %esp,%ebp
c010c394:	83 ec 10             	sub    $0x10,%esp
c010c397:	c7 45 f8 00 00 00 00 	movl   $0x0,-0x8(%ebp)
c010c39e:	c7 45 fc 00 00 00 00 	movl   $0x0,-0x4(%ebp)
c010c3a5:	eb 42                	jmp    c010c3e9 <strncpy+0x58>
c010c3a7:	83 7d f8 00          	cmpl   $0x0,-0x8(%ebp)
c010c3ab:	75 2d                	jne    c010c3da <strncpy+0x49>
c010c3ad:	8b 45 fc             	mov    -0x4(%ebp),%eax
c010c3b0:	8b 55 0c             	mov    0xc(%ebp),%edx
c010c3b3:	01 d0                	add    %edx,%eax
c010c3b5:	0f b6 00             	movzbl (%eax),%eax
c010c3b8:	84 c0                	test   %al,%al
c010c3ba:	75 07                	jne    c010c3c3 <strncpy+0x32>
c010c3bc:	c7 45 f8 01 00 00 00 	movl   $0x1,-0x8(%ebp)
c010c3c3:	8b 45 fc             	mov    -0x4(%ebp),%eax
c010c3c6:	8b 55 08             	mov    0x8(%ebp),%edx
c010c3c9:	01 c2                	add    %eax,%edx
c010c3cb:	8b 45 fc             	mov    -0x4(%ebp),%eax
c010c3ce:	8b 4d 0c             	mov    0xc(%ebp),%ecx
c010c3d1:	01 c8                	add    %ecx,%eax
c010c3d3:	0f b6 00             	movzbl (%eax),%eax
c010c3d6:	88 02                	mov    %al,(%edx)
c010c3d8:	eb 0b                	jmp    c010c3e5 <strncpy+0x54>
c010c3da:	8b 45 fc             	mov    -0x4(%ebp),%eax
c010c3dd:	8b 55 08             	mov    0x8(%ebp),%edx
c010c3e0:	01 d0                	add    %edx,%eax
c010c3e2:	c6 00 00             	movb   $0x0,(%eax)
c010c3e5:	83 45 fc 01          	addl   $0x1,-0x4(%ebp)
c010c3e9:	8b 45 fc             	mov    -0x4(%ebp),%eax
c010c3ec:	3b 45 10             	cmp    0x10(%ebp),%eax
c010c3ef:	72 b6                	jb     c010c3a7 <strncpy+0x16>
c010c3f1:	8b 45 08             	mov    0x8(%ebp),%eax
c010c3f4:	c9                   	leave  
c010c3f5:	c3                   	ret    

c010c3f6 <strcat>:
c010c3f6:	55                   	push   %ebp
c010c3f7:	89 e5                	mov    %esp,%ebp
c010c3f9:	83 ec 18             	sub    $0x18,%esp
c010c3fc:	8b 45 08             	mov    0x8(%ebp),%eax
c010c3ff:	89 04 24             	mov    %eax,(%esp)
c010c402:	e8 12 ff ff ff       	call   c010c319 <strlen>
c010c407:	89 45 fc             	mov    %eax,-0x4(%ebp)
c010c40a:	8b 45 fc             	mov    -0x4(%ebp),%eax
c010c40d:	8b 55 08             	mov    0x8(%ebp),%edx
c010c410:	01 c2                	add    %eax,%edx
c010c412:	8b 45 0c             	mov    0xc(%ebp),%eax
c010c415:	89 44 24 04          	mov    %eax,0x4(%esp)
c010c419:	89 14 24             	mov    %edx,(%esp)
c010c41c:	e8 1f ff ff ff       	call   c010c340 <strcpy>
c010c421:	8b 45 08             	mov    0x8(%ebp),%eax
c010c424:	c9                   	leave  
c010c425:	c3                   	ret    

c010c426 <strncat>:
c010c426:	55                   	push   %ebp
c010c427:	89 e5                	mov    %esp,%ebp
c010c429:	83 ec 1c             	sub    $0x1c,%esp
c010c42c:	8b 45 08             	mov    0x8(%ebp),%eax
c010c42f:	89 04 24             	mov    %eax,(%esp)
c010c432:	e8 e2 fe ff ff       	call   c010c319 <strlen>
c010c437:	89 45 fc             	mov    %eax,-0x4(%ebp)
c010c43a:	8b 45 fc             	mov    -0x4(%ebp),%eax
c010c43d:	8b 55 08             	mov    0x8(%ebp),%edx
c010c440:	01 c2                	add    %eax,%edx
c010c442:	8b 45 10             	mov    0x10(%ebp),%eax
c010c445:	89 44 24 08          	mov    %eax,0x8(%esp)
c010c449:	8b 45 0c             	mov    0xc(%ebp),%eax
c010c44c:	89 44 24 04          	mov    %eax,0x4(%esp)
c010c450:	89 14 24             	mov    %edx,(%esp)
c010c453:	e8 39 ff ff ff       	call   c010c391 <strncpy>
c010c458:	8b 45 08             	mov    0x8(%ebp),%eax
c010c45b:	c9                   	leave  
c010c45c:	c3                   	ret    

c010c45d <strcmp>:
c010c45d:	55                   	push   %ebp
c010c45e:	89 e5                	mov    %esp,%ebp
c010c460:	83 ec 10             	sub    $0x10,%esp
c010c463:	c7 45 fc 00 00 00 00 	movl   $0x0,-0x4(%ebp)
c010c46a:	eb 25                	jmp    c010c491 <strcmp+0x34>
c010c46c:	8b 55 fc             	mov    -0x4(%ebp),%edx
c010c46f:	8b 45 08             	mov    0x8(%ebp),%eax
c010c472:	01 d0                	add    %edx,%eax
c010c474:	0f b6 10             	movzbl (%eax),%edx
c010c477:	8b 4d fc             	mov    -0x4(%ebp),%ecx
c010c47a:	8b 45 0c             	mov    0xc(%ebp),%eax
c010c47d:	01 c8                	add    %ecx,%eax
c010c47f:	0f b6 00             	movzbl (%eax),%eax
c010c482:	38 c2                	cmp    %al,%dl
c010c484:	74 07                	je     c010c48d <strcmp+0x30>
c010c486:	b8 00 00 00 00       	mov    $0x0,%eax
c010c48b:	eb 6a                	jmp    c010c4f7 <strcmp+0x9a>
c010c48d:	83 45 fc 01          	addl   $0x1,-0x4(%ebp)
c010c491:	8b 55 fc             	mov    -0x4(%ebp),%edx
c010c494:	8b 45 08             	mov    0x8(%ebp),%eax
c010c497:	01 d0                	add    %edx,%eax
c010c499:	0f b6 00             	movzbl (%eax),%eax
c010c49c:	84 c0                	test   %al,%al
c010c49e:	74 0f                	je     c010c4af <strcmp+0x52>
c010c4a0:	8b 55 fc             	mov    -0x4(%ebp),%edx
c010c4a3:	8b 45 0c             	mov    0xc(%ebp),%eax
c010c4a6:	01 d0                	add    %edx,%eax
c010c4a8:	0f b6 00             	movzbl (%eax),%eax
c010c4ab:	84 c0                	test   %al,%al
c010c4ad:	75 bd                	jne    c010c46c <strcmp+0xf>
c010c4af:	8b 55 fc             	mov    -0x4(%ebp),%edx
c010c4b2:	8b 45 08             	mov    0x8(%ebp),%eax
c010c4b5:	01 d0                	add    %edx,%eax
c010c4b7:	0f b6 00             	movzbl (%eax),%eax
c010c4ba:	84 c0                	test   %al,%al
c010c4bc:	75 0f                	jne    c010c4cd <strcmp+0x70>
c010c4be:	8b 55 fc             	mov    -0x4(%ebp),%edx
c010c4c1:	8b 45 0c             	mov    0xc(%ebp),%eax
c010c4c4:	01 d0                	add    %edx,%eax
c010c4c6:	0f b6 00             	movzbl (%eax),%eax
c010c4c9:	84 c0                	test   %al,%al
c010c4cb:	75 1e                	jne    c010c4eb <strcmp+0x8e>
c010c4cd:	8b 55 fc             	mov    -0x4(%ebp),%edx
c010c4d0:	8b 45 08             	mov    0x8(%ebp),%eax
c010c4d3:	01 d0                	add    %edx,%eax
c010c4d5:	0f b6 00             	movzbl (%eax),%eax
c010c4d8:	84 c0                	test   %al,%al
c010c4da:	74 16                	je     c010c4f2 <strcmp+0x95>
c010c4dc:	8b 55 fc             	mov    -0x4(%ebp),%edx
c010c4df:	8b 45 0c             	mov    0xc(%ebp),%eax
c010c4e2:	01 d0                	add    %edx,%eax
c010c4e4:	0f b6 00             	movzbl (%eax),%eax
c010c4e7:	84 c0                	test   %al,%al
c010c4e9:	75 07                	jne    c010c4f2 <strcmp+0x95>
c010c4eb:	b8 00 00 00 00       	mov    $0x0,%eax
c010c4f0:	eb 05                	jmp    c010c4f7 <strcmp+0x9a>
c010c4f2:	b8 01 00 00 00       	mov    $0x1,%eax
c010c4f7:	c9                   	leave  
c010c4f8:	c3                   	ret    

c010c4f9 <strncmp>:
c010c4f9:	55                   	push   %ebp
c010c4fa:	89 e5                	mov    %esp,%ebp
c010c4fc:	83 ec 10             	sub    $0x10,%esp
c010c4ff:	c7 45 f8 00 00 00 00 	movl   $0x0,-0x8(%ebp)
c010c506:	c7 45 fc 00 00 00 00 	movl   $0x0,-0x4(%ebp)
c010c50d:	eb 04                	jmp    c010c513 <strncmp+0x1a>
c010c50f:	83 45 fc 01          	addl   $0x1,-0x4(%ebp)
c010c513:	8b 45 fc             	mov    -0x4(%ebp),%eax
c010c516:	8b 55 08             	mov    0x8(%ebp),%edx
c010c519:	01 d0                	add    %edx,%eax
c010c51b:	0f b6 10             	movzbl (%eax),%edx
c010c51e:	8b 45 fc             	mov    -0x4(%ebp),%eax
c010c521:	8b 4d 0c             	mov    0xc(%ebp),%ecx
c010c524:	01 c8                	add    %ecx,%eax
c010c526:	0f b6 00             	movzbl (%eax),%eax
c010c529:	38 c2                	cmp    %al,%dl
c010c52b:	75 17                	jne    c010c544 <strncmp+0x4b>
c010c52d:	8b 45 fc             	mov    -0x4(%ebp),%eax
c010c530:	8b 55 08             	mov    0x8(%ebp),%edx
c010c533:	01 d0                	add    %edx,%eax
c010c535:	0f b6 00             	movzbl (%eax),%eax
c010c538:	84 c0                	test   %al,%al
c010c53a:	74 08                	je     c010c544 <strncmp+0x4b>
c010c53c:	8b 45 fc             	mov    -0x4(%ebp),%eax
c010c53f:	3b 45 10             	cmp    0x10(%ebp),%eax
c010c542:	72 cb                	jb     c010c50f <strncmp+0x16>
c010c544:	8b 45 fc             	mov    -0x4(%ebp),%eax
c010c547:	8b 55 08             	mov    0x8(%ebp),%edx
c010c54a:	01 d0                	add    %edx,%eax
c010c54c:	0f b6 00             	movzbl (%eax),%eax
c010c54f:	0f be d0             	movsbl %al,%edx
c010c552:	8b 45 fc             	mov    -0x4(%ebp),%eax
c010c555:	8b 4d 0c             	mov    0xc(%ebp),%ecx
c010c558:	01 c8                	add    %ecx,%eax
c010c55a:	0f b6 00             	movzbl (%eax),%eax
c010c55d:	0f be c0             	movsbl %al,%eax
c010c560:	29 c2                	sub    %eax,%edx
c010c562:	89 d0                	mov    %edx,%eax
c010c564:	89 45 f8             	mov    %eax,-0x8(%ebp)
c010c567:	83 7d f8 00          	cmpl   $0x0,-0x8(%ebp)
c010c56b:	79 09                	jns    c010c576 <strncmp+0x7d>
c010c56d:	c7 45 f8 ff ff ff ff 	movl   $0xffffffff,-0x8(%ebp)
c010c574:	eb 0d                	jmp    c010c583 <strncmp+0x8a>
c010c576:	83 7d f8 00          	cmpl   $0x0,-0x8(%ebp)
c010c57a:	7e 07                	jle    c010c583 <strncmp+0x8a>
c010c57c:	c7 45 f8 01 00 00 00 	movl   $0x1,-0x8(%ebp)
c010c583:	8b 45 f8             	mov    -0x8(%ebp),%eax
c010c586:	c9                   	leave  
c010c587:	c3                   	ret    

c010c588 <strchr>:
c010c588:	55                   	push   %ebp
c010c589:	89 e5                	mov    %esp,%ebp
c010c58b:	83 ec 10             	sub    $0x10,%esp
c010c58e:	c7 45 fc 00 00 00 00 	movl   $0x0,-0x4(%ebp)
c010c595:	eb 04                	jmp    c010c59b <strchr+0x13>
c010c597:	83 45 fc 01          	addl   $0x1,-0x4(%ebp)
c010c59b:	8b 55 fc             	mov    -0x4(%ebp),%edx
c010c59e:	8b 45 08             	mov    0x8(%ebp),%eax
c010c5a1:	01 d0                	add    %edx,%eax
c010c5a3:	0f b6 10             	movzbl (%eax),%edx
c010c5a6:	8b 45 0c             	mov    0xc(%ebp),%eax
c010c5a9:	38 c2                	cmp    %al,%dl
c010c5ab:	74 0f                	je     c010c5bc <strchr+0x34>
c010c5ad:	8b 55 fc             	mov    -0x4(%ebp),%edx
c010c5b0:	8b 45 08             	mov    0x8(%ebp),%eax
c010c5b3:	01 d0                	add    %edx,%eax
c010c5b5:	0f b6 00             	movzbl (%eax),%eax
c010c5b8:	84 c0                	test   %al,%al
c010c5ba:	75 db                	jne    c010c597 <strchr+0xf>
c010c5bc:	8b 55 fc             	mov    -0x4(%ebp),%edx
c010c5bf:	8b 45 08             	mov    0x8(%ebp),%eax
c010c5c2:	01 d0                	add    %edx,%eax
c010c5c4:	0f b6 00             	movzbl (%eax),%eax
c010c5c7:	84 c0                	test   %al,%al
c010c5c9:	74 0a                	je     c010c5d5 <strchr+0x4d>
c010c5cb:	8b 55 fc             	mov    -0x4(%ebp),%edx
c010c5ce:	8b 45 08             	mov    0x8(%ebp),%eax
c010c5d1:	01 d0                	add    %edx,%eax
c010c5d3:	eb 05                	jmp    c010c5da <strchr+0x52>
c010c5d5:	b8 00 00 00 00       	mov    $0x0,%eax
c010c5da:	c9                   	leave  
c010c5db:	c3                   	ret    

c010c5dc <strrchr>:
c010c5dc:	55                   	push   %ebp
c010c5dd:	89 e5                	mov    %esp,%ebp
c010c5df:	83 ec 10             	sub    $0x10,%esp
c010c5e2:	c7 45 fc 00 00 00 00 	movl   $0x0,-0x4(%ebp)
c010c5e9:	c7 45 f8 00 00 00 00 	movl   $0x0,-0x8(%ebp)
c010c5f0:	eb 21                	jmp    c010c613 <strrchr+0x37>
c010c5f2:	8b 55 fc             	mov    -0x4(%ebp),%edx
c010c5f5:	8b 45 08             	mov    0x8(%ebp),%eax
c010c5f8:	01 d0                	add    %edx,%eax
c010c5fa:	0f b6 10             	movzbl (%eax),%edx
c010c5fd:	8b 45 0c             	mov    0xc(%ebp),%eax
c010c600:	38 c2                	cmp    %al,%dl
c010c602:	75 0b                	jne    c010c60f <strrchr+0x33>
c010c604:	8b 55 fc             	mov    -0x4(%ebp),%edx
c010c607:	8b 45 08             	mov    0x8(%ebp),%eax
c010c60a:	01 d0                	add    %edx,%eax
c010c60c:	89 45 f8             	mov    %eax,-0x8(%ebp)
c010c60f:	83 45 fc 01          	addl   $0x1,-0x4(%ebp)
c010c613:	8b 55 fc             	mov    -0x4(%ebp),%edx
c010c616:	8b 45 08             	mov    0x8(%ebp),%eax
c010c619:	01 d0                	add    %edx,%eax
c010c61b:	0f b6 00             	movzbl (%eax),%eax
c010c61e:	84 c0                	test   %al,%al
c010c620:	75 d0                	jne    c010c5f2 <strrchr+0x16>
c010c622:	8b 45 f8             	mov    -0x8(%ebp),%eax
c010c625:	c9                   	leave  
c010c626:	c3                   	ret    

c010c627 <strtok>:
c010c627:	55                   	push   %ebp
c010c628:	89 e5                	mov    %esp,%ebp
c010c62a:	83 ec 38             	sub    $0x38,%esp
c010c62d:	c7 45 f4 00 00 00 00 	movl   $0x0,-0xc(%ebp)
c010c634:	c7 45 f0 00 00 00 00 	movl   $0x0,-0x10(%ebp)
c010c63b:	83 7d 08 00          	cmpl   $0x0,0x8(%ebp)
c010c63f:	74 16                	je     c010c657 <strtok+0x30>
c010c641:	8b 45 08             	mov    0x8(%ebp),%eax
c010c644:	89 45 f4             	mov    %eax,-0xc(%ebp)
c010c647:	8b 45 0c             	mov    0xc(%ebp),%eax
c010c64a:	89 04 24             	mov    %eax,(%esp)
c010c64d:	e8 c7 fc ff ff       	call   c010c319 <strlen>
c010c652:	89 45 f0             	mov    %eax,-0x10(%ebp)
c010c655:	eb 16                	jmp    c010c66d <strtok+0x46>
c010c657:	83 7d f4 00          	cmpl   $0x0,-0xc(%ebp)
c010c65b:	75 0a                	jne    c010c667 <strtok+0x40>
c010c65d:	b8 00 00 00 00       	mov    $0x0,%eax
c010c662:	e9 b6 00 00 00       	jmp    c010c71d <strtok+0xf6>
c010c667:	8b 45 f4             	mov    -0xc(%ebp),%eax
c010c66a:	89 45 08             	mov    %eax,0x8(%ebp)
c010c66d:	c7 45 e8 00 00 00 00 	movl   $0x0,-0x18(%ebp)
c010c674:	eb 70                	jmp    c010c6e6 <strtok+0xbf>
c010c676:	c7 45 ec 00 00 00 00 	movl   $0x0,-0x14(%ebp)
c010c67d:	eb 57                	jmp    c010c6d6 <strtok+0xaf>
c010c67f:	8b 45 f4             	mov    -0xc(%ebp),%eax
c010c682:	0f b6 10             	movzbl (%eax),%edx
c010c685:	8b 4d ec             	mov    -0x14(%ebp),%ecx
c010c688:	8b 45 0c             	mov    0xc(%ebp),%eax
c010c68b:	01 c8                	add    %ecx,%eax
c010c68d:	0f b6 00             	movzbl (%eax),%eax
c010c690:	38 c2                	cmp    %al,%dl
c010c692:	75 3e                	jne    c010c6d2 <strtok+0xab>
c010c694:	83 45 f4 01          	addl   $0x1,-0xc(%ebp)
c010c698:	8b 45 e8             	mov    -0x18(%ebp),%eax
c010c69b:	83 c0 01             	add    $0x1,%eax
c010c69e:	89 04 24             	mov    %eax,(%esp)
c010c6a1:	e8 fd 59 ff ff       	call   c01020a3 <malloc>
c010c6a6:	89 45 e4             	mov    %eax,-0x1c(%ebp)
c010c6a9:	8b 45 e8             	mov    -0x18(%ebp),%eax
c010c6ac:	89 44 24 08          	mov    %eax,0x8(%esp)
c010c6b0:	8b 45 08             	mov    0x8(%ebp),%eax
c010c6b3:	89 44 24 04          	mov    %eax,0x4(%esp)
c010c6b7:	8b 45 e4             	mov    -0x1c(%ebp),%eax
c010c6ba:	89 04 24             	mov    %eax,(%esp)
c010c6bd:	e8 5d 00 00 00       	call   c010c71f <memcpy>
c010c6c2:	8b 55 e8             	mov    -0x18(%ebp),%edx
c010c6c5:	8b 45 e4             	mov    -0x1c(%ebp),%eax
c010c6c8:	01 d0                	add    %edx,%eax
c010c6ca:	c6 00 00             	movb   $0x0,(%eax)
c010c6cd:	8b 45 e4             	mov    -0x1c(%ebp),%eax
c010c6d0:	eb 4b                	jmp    c010c71d <strtok+0xf6>
c010c6d2:	83 45 ec 01          	addl   $0x1,-0x14(%ebp)
c010c6d6:	8b 45 ec             	mov    -0x14(%ebp),%eax
c010c6d9:	3b 45 f0             	cmp    -0x10(%ebp),%eax
c010c6dc:	7c a1                	jl     c010c67f <strtok+0x58>
c010c6de:	83 45 f4 01          	addl   $0x1,-0xc(%ebp)
c010c6e2:	83 45 e8 01          	addl   $0x1,-0x18(%ebp)
c010c6e6:	8b 45 f4             	mov    -0xc(%ebp),%eax
c010c6e9:	0f b6 00             	movzbl (%eax),%eax
c010c6ec:	84 c0                	test   %al,%al
c010c6ee:	75 86                	jne    c010c676 <strtok+0x4f>
c010c6f0:	8b 45 e8             	mov    -0x18(%ebp),%eax
c010c6f3:	83 c0 01             	add    $0x1,%eax
c010c6f6:	89 04 24             	mov    %eax,(%esp)
c010c6f9:	e8 a5 59 ff ff       	call   c01020a3 <malloc>
c010c6fe:	89 45 e0             	mov    %eax,-0x20(%ebp)
c010c701:	8b 45 08             	mov    0x8(%ebp),%eax
c010c704:	89 44 24 04          	mov    %eax,0x4(%esp)
c010c708:	8b 45 e0             	mov    -0x20(%ebp),%eax
c010c70b:	89 04 24             	mov    %eax,(%esp)
c010c70e:	e8 2d fc ff ff       	call   c010c340 <strcpy>
c010c713:	c7 45 f4 00 00 00 00 	movl   $0x0,-0xc(%ebp)
c010c71a:	8b 45 e0             	mov    -0x20(%ebp),%eax
c010c71d:	c9                   	leave  
c010c71e:	c3                   	ret    

c010c71f <memcpy>:
c010c71f:	55                   	push   %ebp
c010c720:	89 e5                	mov    %esp,%ebp
c010c722:	83 ec 10             	sub    $0x10,%esp
c010c725:	8b 45 08             	mov    0x8(%ebp),%eax
c010c728:	89 45 f8             	mov    %eax,-0x8(%ebp)
c010c72b:	8b 45 0c             	mov    0xc(%ebp),%eax
c010c72e:	89 45 f4             	mov    %eax,-0xc(%ebp)
c010c731:	c7 45 fc 00 00 00 00 	movl   $0x0,-0x4(%ebp)
c010c738:	eb 19                	jmp    c010c753 <memcpy+0x34>
c010c73a:	8b 45 fc             	mov    -0x4(%ebp),%eax
c010c73d:	8b 55 f8             	mov    -0x8(%ebp),%edx
c010c740:	01 c2                	add    %eax,%edx
c010c742:	8b 45 fc             	mov    -0x4(%ebp),%eax
c010c745:	8b 4d f4             	mov    -0xc(%ebp),%ecx
c010c748:	01 c8                	add    %ecx,%eax
c010c74a:	0f b6 00             	movzbl (%eax),%eax
c010c74d:	88 02                	mov    %al,(%edx)
c010c74f:	83 45 fc 01          	addl   $0x1,-0x4(%ebp)
c010c753:	8b 45 fc             	mov    -0x4(%ebp),%eax
c010c756:	3b 45 10             	cmp    0x10(%ebp),%eax
c010c759:	72 df                	jb     c010c73a <memcpy+0x1b>
c010c75b:	8b 45 08             	mov    0x8(%ebp),%eax
c010c75e:	c9                   	leave  
c010c75f:	c3                   	ret    

c010c760 <memmove>:
c010c760:	55                   	push   %ebp
c010c761:	89 e5                	mov    %esp,%ebp
c010c763:	83 ec 1c             	sub    $0x1c,%esp
c010c766:	8b 45 08             	mov    0x8(%ebp),%eax
c010c769:	89 45 f4             	mov    %eax,-0xc(%ebp)
c010c76c:	8b 45 0c             	mov    0xc(%ebp),%eax
c010c76f:	89 45 f0             	mov    %eax,-0x10(%ebp)
c010c772:	c6 45 fb 00          	movb   $0x0,-0x5(%ebp)
c010c776:	8b 45 f0             	mov    -0x10(%ebp),%eax
c010c779:	89 45 fc             	mov    %eax,-0x4(%ebp)
c010c77c:	eb 10                	jmp    c010c78e <memmove+0x2e>
c010c77e:	8b 45 fc             	mov    -0x4(%ebp),%eax
c010c781:	3b 45 f4             	cmp    -0xc(%ebp),%eax
c010c784:	75 04                	jne    c010c78a <memmove+0x2a>
c010c786:	c6 45 fb 01          	movb   $0x1,-0x5(%ebp)
c010c78a:	83 45 fc 01          	addl   $0x1,-0x4(%ebp)
c010c78e:	8b 45 10             	mov    0x10(%ebp),%eax
c010c791:	8b 55 f0             	mov    -0x10(%ebp),%edx
c010c794:	01 d0                	add    %edx,%eax
c010c796:	3b 45 fc             	cmp    -0x4(%ebp),%eax
c010c799:	77 e3                	ja     c010c77e <memmove+0x1e>
c010c79b:	80 7d fb 00          	cmpb   $0x0,-0x5(%ebp)
c010c79f:	74 37                	je     c010c7d8 <memmove+0x78>
c010c7a1:	8b 45 10             	mov    0x10(%ebp),%eax
c010c7a4:	8d 50 ff             	lea    -0x1(%eax),%edx
c010c7a7:	8b 45 f0             	mov    -0x10(%ebp),%eax
c010c7aa:	01 d0                	add    %edx,%eax
c010c7ac:	89 45 fc             	mov    %eax,-0x4(%ebp)
c010c7af:	eb 1d                	jmp    c010c7ce <memmove+0x6e>
c010c7b1:	8b 55 f4             	mov    -0xc(%ebp),%edx
c010c7b4:	8b 45 f0             	mov    -0x10(%ebp),%eax
c010c7b7:	29 c2                	sub    %eax,%edx
c010c7b9:	89 d0                	mov    %edx,%eax
c010c7bb:	89 c2                	mov    %eax,%edx
c010c7bd:	8b 45 fc             	mov    -0x4(%ebp),%eax
c010c7c0:	01 c2                	add    %eax,%edx
c010c7c2:	8b 45 fc             	mov    -0x4(%ebp),%eax
c010c7c5:	0f b6 00             	movzbl (%eax),%eax
c010c7c8:	88 02                	mov    %al,(%edx)
c010c7ca:	83 6d fc 01          	subl   $0x1,-0x4(%ebp)
c010c7ce:	8b 45 fc             	mov    -0x4(%ebp),%eax
c010c7d1:	3b 45 f0             	cmp    -0x10(%ebp),%eax
c010c7d4:	73 db                	jae    c010c7b1 <memmove+0x51>
c010c7d6:	eb 19                	jmp    c010c7f1 <memmove+0x91>
c010c7d8:	8b 45 10             	mov    0x10(%ebp),%eax
c010c7db:	89 44 24 08          	mov    %eax,0x8(%esp)
c010c7df:	8b 45 f0             	mov    -0x10(%ebp),%eax
c010c7e2:	89 44 24 04          	mov    %eax,0x4(%esp)
c010c7e6:	8b 45 f4             	mov    -0xc(%ebp),%eax
c010c7e9:	89 04 24             	mov    %eax,(%esp)
c010c7ec:	e8 2e ff ff ff       	call   c010c71f <memcpy>
c010c7f1:	8b 45 08             	mov    0x8(%ebp),%eax
c010c7f4:	c9                   	leave  
c010c7f5:	c3                   	ret    

c010c7f6 <memcmp>:
c010c7f6:	55                   	push   %ebp
c010c7f7:	89 e5                	mov    %esp,%ebp
c010c7f9:	83 ec 10             	sub    $0x10,%esp
c010c7fc:	8b 45 08             	mov    0x8(%ebp),%eax
c010c7ff:	89 45 f4             	mov    %eax,-0xc(%ebp)
c010c802:	8b 45 0c             	mov    0xc(%ebp),%eax
c010c805:	89 45 f0             	mov    %eax,-0x10(%ebp)
c010c808:	c7 45 f8 00 00 00 00 	movl   $0x0,-0x8(%ebp)
c010c80f:	c7 45 fc 00 00 00 00 	movl   $0x0,-0x4(%ebp)
c010c816:	eb 04                	jmp    c010c81c <memcmp+0x26>
c010c818:	83 45 fc 01          	addl   $0x1,-0x4(%ebp)
c010c81c:	8b 45 fc             	mov    -0x4(%ebp),%eax
c010c81f:	8b 55 f4             	mov    -0xc(%ebp),%edx
c010c822:	01 d0                	add    %edx,%eax
c010c824:	0f b6 10             	movzbl (%eax),%edx
c010c827:	8b 45 fc             	mov    -0x4(%ebp),%eax
c010c82a:	8b 4d f0             	mov    -0x10(%ebp),%ecx
c010c82d:	01 c8                	add    %ecx,%eax
c010c82f:	0f b6 00             	movzbl (%eax),%eax
c010c832:	38 c2                	cmp    %al,%dl
c010c834:	75 17                	jne    c010c84d <memcmp+0x57>
c010c836:	8b 45 fc             	mov    -0x4(%ebp),%eax
c010c839:	8b 55 f4             	mov    -0xc(%ebp),%edx
c010c83c:	01 d0                	add    %edx,%eax
c010c83e:	0f b6 00             	movzbl (%eax),%eax
c010c841:	84 c0                	test   %al,%al
c010c843:	74 08                	je     c010c84d <memcmp+0x57>
c010c845:	8b 45 fc             	mov    -0x4(%ebp),%eax
c010c848:	3b 45 10             	cmp    0x10(%ebp),%eax
c010c84b:	72 cb                	jb     c010c818 <memcmp+0x22>
c010c84d:	8b 45 fc             	mov    -0x4(%ebp),%eax
c010c850:	8b 55 f4             	mov    -0xc(%ebp),%edx
c010c853:	01 d0                	add    %edx,%eax
c010c855:	0f b6 00             	movzbl (%eax),%eax
c010c858:	0f be d0             	movsbl %al,%edx
c010c85b:	8b 45 fc             	mov    -0x4(%ebp),%eax
c010c85e:	8b 4d f0             	mov    -0x10(%ebp),%ecx
c010c861:	01 c8                	add    %ecx,%eax
c010c863:	0f b6 00             	movzbl (%eax),%eax
c010c866:	0f be c0             	movsbl %al,%eax
c010c869:	29 c2                	sub    %eax,%edx
c010c86b:	89 d0                	mov    %edx,%eax
c010c86d:	89 45 f8             	mov    %eax,-0x8(%ebp)
c010c870:	83 7d f8 00          	cmpl   $0x0,-0x8(%ebp)
c010c874:	79 09                	jns    c010c87f <memcmp+0x89>
c010c876:	c7 45 f8 ff ff ff ff 	movl   $0xffffffff,-0x8(%ebp)
c010c87d:	eb 0d                	jmp    c010c88c <memcmp+0x96>
c010c87f:	83 7d f8 00          	cmpl   $0x0,-0x8(%ebp)
c010c883:	7e 07                	jle    c010c88c <memcmp+0x96>
c010c885:	c7 45 f8 01 00 00 00 	movl   $0x1,-0x8(%ebp)
c010c88c:	8b 45 f8             	mov    -0x8(%ebp),%eax
c010c88f:	c9                   	leave  
c010c890:	c3                   	ret    

c010c891 <memchr>:
c010c891:	55                   	push   %ebp
c010c892:	89 e5                	mov    %esp,%ebp
c010c894:	83 ec 10             	sub    $0x10,%esp
c010c897:	c7 45 fc 00 00 00 00 	movl   $0x0,-0x4(%ebp)
c010c89e:	8b 45 08             	mov    0x8(%ebp),%eax
c010c8a1:	89 45 f8             	mov    %eax,-0x8(%ebp)
c010c8a4:	eb 04                	jmp    c010c8aa <memchr+0x19>
c010c8a6:	83 45 fc 01          	addl   $0x1,-0x4(%ebp)
c010c8aa:	8b 45 fc             	mov    -0x4(%ebp),%eax
c010c8ad:	8b 55 f8             	mov    -0x8(%ebp),%edx
c010c8b0:	01 d0                	add    %edx,%eax
c010c8b2:	0f b6 10             	movzbl (%eax),%edx
c010c8b5:	8b 45 0c             	mov    0xc(%ebp),%eax
c010c8b8:	38 c2                	cmp    %al,%dl
c010c8ba:	74 08                	je     c010c8c4 <memchr+0x33>
c010c8bc:	8b 45 fc             	mov    -0x4(%ebp),%eax
c010c8bf:	3b 45 10             	cmp    0x10(%ebp),%eax
c010c8c2:	72 e2                	jb     c010c8a6 <memchr+0x15>
c010c8c4:	8b 45 fc             	mov    -0x4(%ebp),%eax
c010c8c7:	8b 55 f8             	mov    -0x8(%ebp),%edx
c010c8ca:	01 d0                	add    %edx,%eax
c010c8cc:	0f b6 00             	movzbl (%eax),%eax
c010c8cf:	84 c0                	test   %al,%al
c010c8d1:	74 0a                	je     c010c8dd <memchr+0x4c>
c010c8d3:	8b 45 fc             	mov    -0x4(%ebp),%eax
c010c8d6:	8b 55 f8             	mov    -0x8(%ebp),%edx
c010c8d9:	01 d0                	add    %edx,%eax
c010c8db:	eb 05                	jmp    c010c8e2 <memchr+0x51>
c010c8dd:	b8 00 00 00 00       	mov    $0x0,%eax
c010c8e2:	c9                   	leave  
c010c8e3:	c3                   	ret    

c010c8e4 <memset>:
c010c8e4:	55                   	push   %ebp
c010c8e5:	89 e5                	mov    %esp,%ebp
c010c8e7:	83 ec 10             	sub    $0x10,%esp
c010c8ea:	8b 45 08             	mov    0x8(%ebp),%eax
c010c8ed:	89 45 f8             	mov    %eax,-0x8(%ebp)
c010c8f0:	c7 45 fc 00 00 00 00 	movl   $0x0,-0x4(%ebp)
c010c8f7:	eb 11                	jmp    c010c90a <memset+0x26>
c010c8f9:	8b 45 fc             	mov    -0x4(%ebp),%eax
c010c8fc:	8b 55 f8             	mov    -0x8(%ebp),%edx
c010c8ff:	01 c2                	add    %eax,%edx
c010c901:	8b 45 0c             	mov    0xc(%ebp),%eax
c010c904:	88 02                	mov    %al,(%edx)
c010c906:	83 45 fc 01          	addl   $0x1,-0x4(%ebp)
c010c90a:	8b 45 fc             	mov    -0x4(%ebp),%eax
c010c90d:	3b 45 10             	cmp    0x10(%ebp),%eax
c010c910:	72 e7                	jb     c010c8f9 <memset+0x15>
c010c912:	8b 45 08             	mov    0x8(%ebp),%eax
c010c915:	c9                   	leave  
c010c916:	c3                   	ret    

c010c917 <itoa_ex>:
c010c917:	55                   	push   %ebp
c010c918:	89 e5                	mov    %esp,%ebp
c010c91a:	56                   	push   %esi
c010c91b:	53                   	push   %ebx
c010c91c:	83 ec 30             	sub    $0x30,%esp
c010c91f:	8b 45 0c             	mov    0xc(%ebp),%eax
c010c922:	89 45 e8             	mov    %eax,-0x18(%ebp)
c010c925:	c7 45 f4 00 00 00 00 	movl   $0x0,-0xc(%ebp)
c010c92c:	c7 45 f0 00 00 00 00 	movl   $0x0,-0x10(%ebp)
c010c933:	c7 45 e4 00 00 00 00 	movl   $0x0,-0x1c(%ebp)
c010c93a:	c7 45 ec 58 f2 10 c0 	movl   $0xc010f258,-0x14(%ebp)
c010c941:	8b 45 14             	mov    0x14(%ebp),%eax
c010c944:	83 e0 20             	and    $0x20,%eax
c010c947:	85 c0                	test   %eax,%eax
c010c949:	74 07                	je     c010c952 <itoa_ex+0x3b>
c010c94b:	c7 45 ec 69 f2 10 c0 	movl   $0xc010f269,-0x14(%ebp)
c010c952:	8b 45 08             	mov    0x8(%ebp),%eax
c010c955:	89 45 f0             	mov    %eax,-0x10(%ebp)
c010c958:	8b 5d 10             	mov    0x10(%ebp),%ebx
c010c95b:	8b 45 f0             	mov    -0x10(%ebp),%eax
c010c95e:	ba 00 00 00 00       	mov    $0x0,%edx
c010c963:	f7 f3                	div    %ebx
c010c965:	89 45 f0             	mov    %eax,-0x10(%ebp)
c010c968:	83 45 f4 01          	addl   $0x1,-0xc(%ebp)
c010c96c:	83 7d f0 00          	cmpl   $0x0,-0x10(%ebp)
c010c970:	75 e6                	jne    c010c958 <itoa_ex+0x41>
c010c972:	8b 45 f4             	mov    -0xc(%ebp),%eax
c010c975:	89 45 e0             	mov    %eax,-0x20(%ebp)
c010c978:	8b 45 14             	mov    0x14(%ebp),%eax
c010c97b:	83 e0 10             	and    $0x10,%eax
c010c97e:	85 c0                	test   %eax,%eax
c010c980:	75 26                	jne    c010c9a8 <itoa_ex+0x91>
c010c982:	8b 45 14             	mov    0x14(%ebp),%eax
c010c985:	83 e0 01             	and    $0x1,%eax
c010c988:	85 c0                	test   %eax,%eax
c010c98a:	75 1c                	jne    c010c9a8 <itoa_ex+0x91>
c010c98c:	eb 0c                	jmp    c010c99a <itoa_ex+0x83>
c010c98e:	8b 45 0c             	mov    0xc(%ebp),%eax
c010c991:	8d 50 01             	lea    0x1(%eax),%edx
c010c994:	89 55 0c             	mov    %edx,0xc(%ebp)
c010c997:	c6 00 20             	movb   $0x20,(%eax)
c010c99a:	8b 45 18             	mov    0x18(%ebp),%eax
c010c99d:	8d 50 ff             	lea    -0x1(%eax),%edx
c010c9a0:	89 55 18             	mov    %edx,0x18(%ebp)
c010c9a3:	3b 45 e0             	cmp    -0x20(%ebp),%eax
c010c9a6:	77 e6                	ja     c010c98e <itoa_ex+0x77>
c010c9a8:	83 7d e4 00          	cmpl   $0x0,-0x1c(%ebp)
c010c9ac:	74 0e                	je     c010c9bc <itoa_ex+0xa5>
c010c9ae:	8b 45 0c             	mov    0xc(%ebp),%eax
c010c9b1:	8d 50 01             	lea    0x1(%eax),%edx
c010c9b4:	89 55 0c             	mov    %edx,0xc(%ebp)
c010c9b7:	c6 00 2d             	movb   $0x2d,(%eax)
c010c9ba:	eb 16                	jmp    c010c9d2 <itoa_ex+0xbb>
c010c9bc:	8b 45 14             	mov    0x14(%ebp),%eax
c010c9bf:	83 e0 04             	and    $0x4,%eax
c010c9c2:	85 c0                	test   %eax,%eax
c010c9c4:	74 0c                	je     c010c9d2 <itoa_ex+0xbb>
c010c9c6:	8b 45 0c             	mov    0xc(%ebp),%eax
c010c9c9:	8d 50 01             	lea    0x1(%eax),%edx
c010c9cc:	89 55 0c             	mov    %edx,0xc(%ebp)
c010c9cf:	c6 00 2b             	movb   $0x2b,(%eax)
c010c9d2:	8b 45 14             	mov    0x14(%ebp),%eax
c010c9d5:	83 e0 40             	and    $0x40,%eax
c010c9d8:	85 c0                	test   %eax,%eax
c010c9da:	74 1c                	je     c010c9f8 <itoa_ex+0xe1>
c010c9dc:	8b 45 0c             	mov    0xc(%ebp),%eax
c010c9df:	8d 50 01             	lea    0x1(%eax),%edx
c010c9e2:	89 55 0c             	mov    %edx,0xc(%ebp)
c010c9e5:	c6 00 30             	movb   $0x30,(%eax)
c010c9e8:	8b 45 0c             	mov    0xc(%ebp),%eax
c010c9eb:	8d 50 01             	lea    0x1(%eax),%edx
c010c9ee:	89 55 0c             	mov    %edx,0xc(%ebp)
c010c9f1:	c6 00 78             	movb   $0x78,(%eax)
c010c9f4:	83 6d 18 02          	subl   $0x2,0x18(%ebp)
c010c9f8:	8b 45 14             	mov    0x14(%ebp),%eax
c010c9fb:	83 e0 10             	and    $0x10,%eax
c010c9fe:	85 c0                	test   %eax,%eax
c010ca00:	75 26                	jne    c010ca28 <itoa_ex+0x111>
c010ca02:	8b 45 14             	mov    0x14(%ebp),%eax
c010ca05:	83 e0 01             	and    $0x1,%eax
c010ca08:	85 c0                	test   %eax,%eax
c010ca0a:	74 1c                	je     c010ca28 <itoa_ex+0x111>
c010ca0c:	eb 0c                	jmp    c010ca1a <itoa_ex+0x103>
c010ca0e:	8b 45 0c             	mov    0xc(%ebp),%eax
c010ca11:	8d 50 01             	lea    0x1(%eax),%edx
c010ca14:	89 55 0c             	mov    %edx,0xc(%ebp)
c010ca17:	c6 00 30             	movb   $0x30,(%eax)
c010ca1a:	8b 45 18             	mov    0x18(%ebp),%eax
c010ca1d:	8d 50 ff             	lea    -0x1(%eax),%edx
c010ca20:	89 55 18             	mov    %edx,0x18(%ebp)
c010ca23:	3b 45 e0             	cmp    -0x20(%ebp),%eax
c010ca26:	77 e6                	ja     c010ca0e <itoa_ex+0xf7>
c010ca28:	83 6d f4 01          	subl   $0x1,-0xc(%ebp)
c010ca2c:	8b 45 f4             	mov    -0xc(%ebp),%eax
c010ca2f:	89 44 24 04          	mov    %eax,0x4(%esp)
c010ca33:	8b 45 10             	mov    0x10(%ebp),%eax
c010ca36:	89 04 24             	mov    %eax,(%esp)
c010ca39:	e8 4c ed ff ff       	call   c010b78a <powi>
c010ca3e:	89 45 dc             	mov    %eax,-0x24(%ebp)
c010ca41:	8b 75 dc             	mov    -0x24(%ebp),%esi
c010ca44:	8b 45 08             	mov    0x8(%ebp),%eax
c010ca47:	ba 00 00 00 00       	mov    $0x0,%edx
c010ca4c:	f7 f6                	div    %esi
c010ca4e:	89 45 d8             	mov    %eax,-0x28(%ebp)
c010ca51:	8b 45 0c             	mov    0xc(%ebp),%eax
c010ca54:	8d 50 01             	lea    0x1(%eax),%edx
c010ca57:	89 55 0c             	mov    %edx,0xc(%ebp)
c010ca5a:	8b 4d d8             	mov    -0x28(%ebp),%ecx
c010ca5d:	8b 55 ec             	mov    -0x14(%ebp),%edx
c010ca60:	01 ca                	add    %ecx,%edx
c010ca62:	0f b6 12             	movzbl (%edx),%edx
c010ca65:	88 10                	mov    %dl,(%eax)
c010ca67:	8b 45 d8             	mov    -0x28(%ebp),%eax
c010ca6a:	0f af 45 dc          	imul   -0x24(%ebp),%eax
c010ca6e:	29 45 08             	sub    %eax,0x8(%ebp)
c010ca71:	83 7d f4 00          	cmpl   $0x0,-0xc(%ebp)
c010ca75:	75 b1                	jne    c010ca28 <itoa_ex+0x111>
c010ca77:	eb 0c                	jmp    c010ca85 <itoa_ex+0x16e>
c010ca79:	8b 45 0c             	mov    0xc(%ebp),%eax
c010ca7c:	8d 50 01             	lea    0x1(%eax),%edx
c010ca7f:	89 55 0c             	mov    %edx,0xc(%ebp)
c010ca82:	c6 00 20             	movb   $0x20,(%eax)
c010ca85:	8b 45 18             	mov    0x18(%ebp),%eax
c010ca88:	8d 50 ff             	lea    -0x1(%eax),%edx
c010ca8b:	89 55 18             	mov    %edx,0x18(%ebp)
c010ca8e:	3b 45 e0             	cmp    -0x20(%ebp),%eax
c010ca91:	77 e6                	ja     c010ca79 <itoa_ex+0x162>
c010ca93:	8b 45 0c             	mov    0xc(%ebp),%eax
c010ca96:	8d 50 01             	lea    0x1(%eax),%edx
c010ca99:	89 55 0c             	mov    %edx,0xc(%ebp)
c010ca9c:	c6 00 00             	movb   $0x0,(%eax)
c010ca9f:	8b 45 e8             	mov    -0x18(%ebp),%eax
c010caa2:	83 c4 30             	add    $0x30,%esp
c010caa5:	5b                   	pop    %ebx
c010caa6:	5e                   	pop    %esi
c010caa7:	5d                   	pop    %ebp
c010caa8:	c3                   	ret    

c010caa9 <itoa>:
c010caa9:	55                   	push   %ebp
c010caaa:	89 e5                	mov    %esp,%ebp
c010caac:	83 ec 28             	sub    $0x28,%esp
c010caaf:	c7 44 24 10 01 00 00 	movl   $0x1,0x10(%esp)
c010cab6:	00 
c010cab7:	c7 44 24 0c 00 00 00 	movl   $0x0,0xc(%esp)
c010cabe:	00 
c010cabf:	8b 45 10             	mov    0x10(%ebp),%eax
c010cac2:	89 44 24 08          	mov    %eax,0x8(%esp)
c010cac6:	8b 45 0c             	mov    0xc(%ebp),%eax
c010cac9:	89 44 24 04          	mov    %eax,0x4(%esp)
c010cacd:	8b 45 08             	mov    0x8(%ebp),%eax
c010cad0:	89 04 24             	mov    %eax,(%esp)
c010cad3:	e8 3f fe ff ff       	call   c010c917 <itoa_ex>
c010cad8:	c9                   	leave  
c010cad9:	c3                   	ret    

c010cada <atoi>:
c010cada:	55                   	push   %ebp
c010cadb:	89 e5                	mov    %esp,%ebp
c010cadd:	83 ec 28             	sub    $0x28,%esp
c010cae0:	c7 45 f4 00 00 00 00 	movl   $0x0,-0xc(%ebp)
c010cae7:	c7 45 f0 00 00 00 00 	movl   $0x0,-0x10(%ebp)
c010caee:	eb 04                	jmp    c010caf4 <atoi+0x1a>
c010caf0:	83 45 f0 01          	addl   $0x1,-0x10(%ebp)
c010caf4:	8b 45 08             	mov    0x8(%ebp),%eax
c010caf7:	8d 50 01             	lea    0x1(%eax),%edx
c010cafa:	89 55 08             	mov    %edx,0x8(%ebp)
c010cafd:	0f b6 00             	movzbl (%eax),%eax
c010cb00:	0f be c0             	movsbl %al,%eax
c010cb03:	83 e8 30             	sub    $0x30,%eax
c010cb06:	83 f8 09             	cmp    $0x9,%eax
c010cb09:	76 e5                	jbe    c010caf0 <atoi+0x16>
c010cb0b:	8b 45 f0             	mov    -0x10(%ebp),%eax
c010cb0e:	f7 d0                	not    %eax
c010cb10:	01 45 08             	add    %eax,0x8(%ebp)
c010cb13:	eb 31                	jmp    c010cb46 <atoi+0x6c>
c010cb15:	83 6d f0 01          	subl   $0x1,-0x10(%ebp)
c010cb19:	8b 45 f0             	mov    -0x10(%ebp),%eax
c010cb1c:	89 44 24 04          	mov    %eax,0x4(%esp)
c010cb20:	c7 04 24 0a 00 00 00 	movl   $0xa,(%esp)
c010cb27:	e8 5e ec ff ff       	call   c010b78a <powi>
c010cb2c:	89 c2                	mov    %eax,%edx
c010cb2e:	8b 45 08             	mov    0x8(%ebp),%eax
c010cb31:	8d 48 01             	lea    0x1(%eax),%ecx
c010cb34:	89 4d 08             	mov    %ecx,0x8(%ebp)
c010cb37:	0f b6 00             	movzbl (%eax),%eax
c010cb3a:	0f be c0             	movsbl %al,%eax
c010cb3d:	83 e8 30             	sub    $0x30,%eax
c010cb40:	0f af c2             	imul   %edx,%eax
c010cb43:	01 45 f4             	add    %eax,-0xc(%ebp)
c010cb46:	83 7d f0 00          	cmpl   $0x0,-0x10(%ebp)
c010cb4a:	7f c9                	jg     c010cb15 <atoi+0x3b>
c010cb4c:	8b 45 f4             	mov    -0xc(%ebp),%eax
c010cb4f:	c9                   	leave  
c010cb50:	c3                   	ret    

c010cb51 <print_logo>:
c010cb51:	55                   	push   %ebp
c010cb52:	89 e5                	mov    %esp,%ebp
c010cb54:	83 ec 28             	sub    $0x28,%esp
c010cb57:	8b 45 08             	mov    0x8(%ebp),%eax
c010cb5a:	88 45 e4             	mov    %al,-0x1c(%ebp)
c010cb5d:	e8 52 76 ff ff       	call   c01041b4 <get_color>
c010cb62:	88 45 f7             	mov    %al,-0x9(%ebp)
c010cb65:	0f b6 45 e4          	movzbl -0x1c(%ebp),%eax
c010cb69:	89 04 24             	mov    %eax,(%esp)
c010cb6c:	e8 2c 76 ff ff       	call   c010419d <set_color>
c010cb71:	a1 38 24 11 c0       	mov    0xc0112438,%eax
c010cb76:	89 04 24             	mov    %eax,(%esp)
c010cb79:	e8 40 75 ff ff       	call   c01040be <puts>
c010cb7e:	0f b6 45 f7          	movzbl -0x9(%ebp),%eax
c010cb82:	89 04 24             	mov    %eax,(%esp)
c010cb85:	e8 13 76 ff ff       	call   c010419d <set_color>
c010cb8a:	c9                   	leave  
c010cb8b:	c3                   	ret    

c010cb8c <init>:
c010cb8c:	55                   	push   %ebp
c010cb8d:	89 e5                	mov    %esp,%ebp
c010cb8f:	83 ec 78             	sub    $0x78,%esp
c010cb92:	e8 a2 75 ff ff       	call   c0104139 <clear_screen>
c010cb97:	81 7d 0c 02 b0 ad 2b 	cmpl   $0x2badb002,0xc(%ebp)
c010cb9e:	74 0c                	je     c010cbac <init+0x20>
c010cba0:	c7 04 24 1d f8 10 c0 	movl   $0xc010f81d,(%esp)
c010cba7:	e8 0e b8 ff ff       	call   c01083ba <panic>
c010cbac:	c7 04 24 0f 00 00 00 	movl   $0xf,(%esp)
c010cbb3:	e8 e5 75 ff ff       	call   c010419d <set_color>
c010cbb8:	8b 45 08             	mov    0x8(%ebp),%eax
c010cbbb:	89 04 24             	mov    %eax,(%esp)
c010cbbe:	e8 65 e7 ff ff       	call   c010b328 <INIT_PMM>
c010cbc3:	e8 2b c2 ff ff       	call   c0108df3 <INIT_GDT>
c010cbc8:	e8 cb cb ff ff       	call   c0109798 <INIT_IDT>
c010cbcd:	8b 45 08             	mov    0x8(%ebp),%eax
c010cbd0:	89 04 24             	mov    %eax,(%esp)
c010cbd3:	e8 6c 02 00 00       	call   c010ce44 <INIT_PAGING>
c010cbd8:	e8 b2 54 ff ff       	call   c010208f <INIT_HEAP>
c010cbdd:	e8 8b 9a ff ff       	call   c010666d <INIT_VFS>
c010cbe2:	e8 a7 84 ff ff       	call   c010508e <INIT_TRIGGER>
c010cbe7:	fb                   	sti    
c010cbe8:	c7 04 24 c8 00 00 00 	movl   $0xc8,(%esp)
c010cbef:	e8 87 77 ff ff       	call   c010437b <INIT_PIT>
c010cbf4:	e8 a9 77 ff ff       	call   c01043a2 <INIT_RTC>
c010cbf9:	e8 e5 5d ff ff       	call   c01029e3 <INIT_SCHEDULER>
c010cbfe:	c7 04 24 0e 00 00 00 	movl   $0xe,(%esp)
c010cc05:	e8 47 ff ff ff       	call   c010cb51 <print_logo>
c010cc0a:	c7 04 24 35 f8 10 c0 	movl   $0xc010f835,(%esp)
c010cc11:	e8 a8 74 ff ff       	call   c01040be <puts>
c010cc16:	8d 45 b1             	lea    -0x4f(%ebp),%eax
c010cc19:	89 04 24             	mov    %eax,(%esp)
c010cc1c:	e8 c5 77 ff ff       	call   c01043e6 <update_time>
c010cc21:	8d 45 b1             	lea    -0x4f(%ebp),%eax
c010cc24:	89 04 24             	mov    %eax,(%esp)
c010cc27:	e8 96 7d ff ff       	call   c01049c2 <print_time>
c010cc2c:	c7 04 24 0a 00 00 00 	movl   $0xa,(%esp)
c010cc33:	e8 27 73 ff ff       	call   c0103f5f <putchar>
c010cc38:	8d 45 b1             	lea    -0x4f(%ebp),%eax
c010cc3b:	89 04 24             	mov    %eax,(%esp)
c010cc3e:	e8 d8 7b ff ff       	call   c010481b <unix_time>
c010cc43:	89 44 24 04          	mov    %eax,0x4(%esp)
c010cc47:	c7 04 24 51 f8 10 c0 	movl   $0xc010f851,(%esp)
c010cc4e:	e8 f8 eb ff ff       	call   c010b84b <printf>
c010cc53:	e8 f3 d8 ff ff       	call   c010a54b <INIT_CPUID>
c010cc58:	c7 04 24 0a 00 00 00 	movl   $0xa,(%esp)
c010cc5f:	e8 fb 72 ff ff       	call   c0103f5f <putchar>
c010cc64:	e8 f4 6c ff ff       	call   c010395d <INIT_PCI>
c010cc69:	8b 45 08             	mov    0x8(%ebp),%eax
c010cc6c:	8b 40 18             	mov    0x18(%eax),%eax
c010cc6f:	89 45 f0             	mov    %eax,-0x10(%ebp)
c010cc72:	8b 45 f0             	mov    -0x10(%ebp),%eax
c010cc75:	8b 40 08             	mov    0x8(%eax),%eax
c010cc78:	25 00 f0 ff ff       	and    $0xfffff000,%eax
c010cc7d:	89 45 ec             	mov    %eax,-0x14(%ebp)
c010cc80:	8b 55 ec             	mov    -0x14(%ebp),%edx
c010cc83:	a1 60 49 11 c0       	mov    0xc0114960,%eax
c010cc88:	c7 44 24 08 02 00 00 	movl   $0x2,0x8(%esp)
c010cc8f:	00 
c010cc90:	89 54 24 04          	mov    %edx,0x4(%esp)
c010cc94:	89 04 24             	mov    %eax,(%esp)
c010cc97:	e8 0e 03 00 00       	call   c010cfaa <vmm_automap_kernel>
c010cc9c:	89 45 e8             	mov    %eax,-0x18(%ebp)
c010cc9f:	c7 45 f4 00 00 00 00 	movl   $0x0,-0xc(%ebp)
c010cca6:	eb 38                	jmp    c010cce0 <init+0x154>
c010cca8:	8b 45 f4             	mov    -0xc(%ebp),%eax
c010ccab:	c1 e0 04             	shl    $0x4,%eax
c010ccae:	89 c2                	mov    %eax,%edx
c010ccb0:	8b 45 f0             	mov    -0x10(%ebp),%eax
c010ccb3:	01 d0                	add    %edx,%eax
c010ccb5:	8b 40 08             	mov    0x8(%eax),%eax
c010ccb8:	89 c2                	mov    %eax,%edx
c010ccba:	8b 45 ec             	mov    -0x14(%ebp),%eax
c010ccbd:	29 c2                	sub    %eax,%edx
c010ccbf:	89 d0                	mov    %edx,%eax
c010ccc1:	89 45 e4             	mov    %eax,-0x1c(%ebp)
c010ccc4:	8b 45 f4             	mov    -0xc(%ebp),%eax
c010ccc7:	c1 e0 04             	shl    $0x4,%eax
c010ccca:	89 c2                	mov    %eax,%edx
c010cccc:	8b 45 f0             	mov    -0x10(%ebp),%eax
c010cccf:	01 d0                	add    %edx,%eax
c010ccd1:	8b 4d e4             	mov    -0x1c(%ebp),%ecx
c010ccd4:	8b 55 e8             	mov    -0x18(%ebp),%edx
c010ccd7:	01 ca                	add    %ecx,%edx
c010ccd9:	89 50 08             	mov    %edx,0x8(%eax)
c010ccdc:	83 45 f4 01          	addl   $0x1,-0xc(%ebp)
c010cce0:	8b 55 f4             	mov    -0xc(%ebp),%edx
c010cce3:	8b 45 08             	mov    0x8(%ebp),%eax
c010cce6:	8b 40 14             	mov    0x14(%eax),%eax
c010cce9:	39 c2                	cmp    %eax,%edx
c010cceb:	72 bb                	jb     c010cca8 <init+0x11c>
c010cced:	c7 44 24 04 60 f8 10 	movl   $0xc010f860,0x4(%esp)
c010ccf4:	c0 
c010ccf5:	8b 45 08             	mov    0x8(%ebp),%eax
c010ccf8:	89 04 24             	mov    %eax,(%esp)
c010ccfb:	e8 7e b4 ff ff       	call   c010817e <find_module>
c010cd00:	89 45 e0             	mov    %eax,-0x20(%ebp)
c010cd03:	83 7d e0 00          	cmpl   $0x0,-0x20(%ebp)
c010cd07:	0f 84 ba 00 00 00    	je     c010cdc7 <init+0x23b>
c010cd0d:	8b 45 e0             	mov    -0x20(%ebp),%eax
c010cd10:	8b 50 04             	mov    0x4(%eax),%edx
c010cd13:	8b 45 e0             	mov    -0x20(%ebp),%eax
c010cd16:	8b 00                	mov    (%eax),%eax
c010cd18:	29 c2                	sub    %eax,%edx
c010cd1a:	89 d0                	mov    %edx,%eax
c010cd1c:	89 45 dc             	mov    %eax,-0x24(%ebp)
c010cd1f:	8b 45 dc             	mov    -0x24(%ebp),%eax
c010cd22:	05 ff 0f 00 00       	add    $0xfff,%eax
c010cd27:	25 00 f0 ff ff       	and    $0xfffff000,%eax
c010cd2c:	c1 e8 0c             	shr    $0xc,%eax
c010cd2f:	89 45 d8             	mov    %eax,-0x28(%ebp)
c010cd32:	8b 4d d8             	mov    -0x28(%ebp),%ecx
c010cd35:	8b 45 e0             	mov    -0x20(%ebp),%eax
c010cd38:	8b 10                	mov    (%eax),%edx
c010cd3a:	a1 60 49 11 c0       	mov    0xc0114960,%eax
c010cd3f:	c7 44 24 0c 02 00 00 	movl   $0x2,0xc(%esp)
c010cd46:	00 
c010cd47:	89 4c 24 08          	mov    %ecx,0x8(%esp)
c010cd4b:	89 54 24 04          	mov    %edx,0x4(%esp)
c010cd4f:	89 04 24             	mov    %eax,(%esp)
c010cd52:	e8 b9 02 00 00       	call   c010d010 <vmm_automap_kernel_range>
c010cd57:	89 45 d4             	mov    %eax,-0x2c(%ebp)
c010cd5a:	c7 45 d0 02 00 00 00 	movl   $0x2,-0x30(%ebp)
c010cd61:	8b 45 d4             	mov    -0x2c(%ebp),%eax
c010cd64:	89 44 24 04          	mov    %eax,0x4(%esp)
c010cd68:	c7 04 24 72 f8 10 c0 	movl   $0xc010f872,(%esp)
c010cd6f:	e8 56 b0 ff ff       	call   c0107dca <get_table_section>
c010cd74:	89 45 cc             	mov    %eax,-0x34(%ebp)
c010cd77:	8b 45 08             	mov    0x8(%ebp),%eax
c010cd7a:	89 45 ac             	mov    %eax,-0x54(%ebp)
c010cd7d:	8b 45 cc             	mov    -0x34(%ebp),%eax
c010cd80:	89 45 a8             	mov    %eax,-0x58(%ebp)
c010cd83:	ba 90 4c 10 c0       	mov    $0xc0104c90,%edx
c010cd88:	a1 0c 60 11 c0       	mov    0xc011600c,%eax
c010cd8d:	c7 44 24 1c 00 00 00 	movl   $0x0,0x1c(%esp)
c010cd94:	00 
c010cd95:	c7 44 24 18 00 00 00 	movl   $0x0,0x18(%esp)
c010cd9c:	00 
c010cd9d:	8d 4d a8             	lea    -0x58(%ebp),%ecx
c010cda0:	89 4c 24 14          	mov    %ecx,0x14(%esp)
c010cda4:	8b 4d d0             	mov    -0x30(%ebp),%ecx
c010cda7:	89 4c 24 10          	mov    %ecx,0x10(%esp)
c010cdab:	c7 44 24 0c 00 00 00 	movl   $0x0,0xc(%esp)
c010cdb2:	00 
c010cdb3:	89 54 24 08          	mov    %edx,0x8(%esp)
c010cdb7:	c7 44 24 04 00 00 00 	movl   $0x0,0x4(%esp)
c010cdbe:	00 
c010cdbf:	89 04 24             	mov    %eax,(%esp)
c010cdc2:	e8 4c 57 ff ff       	call   c0102513 <thread_create>
c010cdc7:	c7 44 24 04 78 f8 10 	movl   $0xc010f878,0x4(%esp)
c010cdce:	c0 
c010cdcf:	8b 45 08             	mov    0x8(%ebp),%eax
c010cdd2:	89 04 24             	mov    %eax,(%esp)
c010cdd5:	e8 a4 b3 ff ff       	call   c010817e <find_module>
c010cdda:	89 45 c8             	mov    %eax,-0x38(%ebp)
c010cddd:	83 7d c8 00          	cmpl   $0x0,-0x38(%ebp)
c010cde1:	74 4d                	je     c010ce30 <init+0x2a4>
c010cde3:	8b 45 c8             	mov    -0x38(%ebp),%eax
c010cde6:	8b 50 04             	mov    0x4(%eax),%edx
c010cde9:	8b 45 c8             	mov    -0x38(%ebp),%eax
c010cdec:	8b 00                	mov    (%eax),%eax
c010cdee:	29 c2                	sub    %eax,%edx
c010cdf0:	89 d0                	mov    %edx,%eax
c010cdf2:	89 45 c4             	mov    %eax,-0x3c(%ebp)
c010cdf5:	8b 45 c4             	mov    -0x3c(%ebp),%eax
c010cdf8:	05 ff 0f 00 00       	add    $0xfff,%eax
c010cdfd:	25 00 f0 ff ff       	and    $0xfffff000,%eax
c010ce02:	c1 e8 0c             	shr    $0xc,%eax
c010ce05:	89 45 c0             	mov    %eax,-0x40(%ebp)
c010ce08:	8b 4d c0             	mov    -0x40(%ebp),%ecx
c010ce0b:	8b 45 c8             	mov    -0x38(%ebp),%eax
c010ce0e:	8b 10                	mov    (%eax),%edx
c010ce10:	a1 60 49 11 c0       	mov    0xc0114960,%eax
c010ce15:	c7 44 24 0c 02 00 00 	movl   $0x2,0xc(%esp)
c010ce1c:	00 
c010ce1d:	89 4c 24 08          	mov    %ecx,0x8(%esp)
c010ce21:	89 54 24 04          	mov    %edx,0x4(%esp)
c010ce25:	89 04 24             	mov    %eax,(%esp)
c010ce28:	e8 e3 01 00 00       	call   c010d010 <vmm_automap_kernel_range>
c010ce2d:	89 45 bc             	mov    %eax,-0x44(%ebp)
c010ce30:	a1 14 60 11 c0       	mov    0xc0116014,%eax
c010ce35:	89 04 24             	mov    %eax,(%esp)
c010ce38:	e8 6f 8e ff ff       	call   c0105cac <dump_thread_list>
c010ce3d:	b8 00 00 00 00       	mov    $0x0,%eax
c010ce42:	c9                   	leave  
c010ce43:	c3                   	ret    

c010ce44 <INIT_PAGING>:
c010ce44:	55                   	push   %ebp
c010ce45:	89 e5                	mov    %esp,%ebp
c010ce47:	83 ec 18             	sub    $0x18,%esp
c010ce4a:	c7 44 24 04 ae ad 10 	movl   $0xc010adae,0x4(%esp)
c010ce51:	c0 
c010ce52:	c7 04 24 0e 00 00 00 	movl   $0xe,(%esp)
c010ce59:	e8 0f c7 ff ff       	call   c010956d <install_exc>
c010ce5e:	8b 45 08             	mov    0x8(%ebp),%eax
c010ce61:	89 04 24             	mov    %eax,(%esp)
c010ce64:	e8 02 d7 ff ff       	call   c010a56b <ARCH_INIT_PAGING>
c010ce69:	c9                   	leave  
c010ce6a:	c3                   	ret    

c010ce6b <vmm_create_context>:
c010ce6b:	55                   	push   %ebp
c010ce6c:	89 e5                	mov    %esp,%ebp
c010ce6e:	83 ec 18             	sub    $0x18,%esp
c010ce71:	8b 45 08             	mov    0x8(%ebp),%eax
c010ce74:	89 04 24             	mov    %eax,(%esp)
c010ce77:	e8 c4 d8 ff ff       	call   c010a740 <arch_vmm_create_context>
c010ce7c:	c9                   	leave  
c010ce7d:	c3                   	ret    

c010ce7e <vmm_destroy_context>:
c010ce7e:	55                   	push   %ebp
c010ce7f:	89 e5                	mov    %esp,%ebp
c010ce81:	83 ec 18             	sub    $0x18,%esp
c010ce84:	8b 45 08             	mov    0x8(%ebp),%eax
c010ce87:	89 04 24             	mov    %eax,(%esp)
c010ce8a:	e8 17 d9 ff ff       	call   c010a7a6 <arch_vmm_destroy_context>
c010ce8f:	c9                   	leave  
c010ce90:	c3                   	ret    

c010ce91 <vmm_switch_context>:
c010ce91:	55                   	push   %ebp
c010ce92:	89 e5                	mov    %esp,%ebp
c010ce94:	83 ec 18             	sub    $0x18,%esp
c010ce97:	a1 60 49 11 c0       	mov    0xc0114960,%eax
c010ce9c:	39 45 08             	cmp    %eax,0x8(%ebp)
c010ce9f:	74 1e                	je     c010cebf <vmm_switch_context+0x2e>
c010cea1:	8b 45 08             	mov    0x8(%ebp),%eax
c010cea4:	89 04 24             	mov    %eax,(%esp)
c010cea7:	e8 15 da ff ff       	call   c010a8c1 <arch_update_context>
c010ceac:	8b 45 08             	mov    0x8(%ebp),%eax
c010ceaf:	89 04 24             	mov    %eax,(%esp)
c010ceb2:	e8 e9 de ff ff       	call   c010ada0 <arch_switch_context>
c010ceb7:	8b 45 08             	mov    0x8(%ebp),%eax
c010ceba:	a3 60 49 11 c0       	mov    %eax,0xc0114960
c010cebf:	c9                   	leave  
c010cec0:	c3                   	ret    

c010cec1 <vmm_map>:
c010cec1:	55                   	push   %ebp
c010cec2:	89 e5                	mov    %esp,%ebp
c010cec4:	83 ec 28             	sub    $0x28,%esp
c010cec7:	8b 45 14             	mov    0x14(%ebp),%eax
c010ceca:	88 45 f4             	mov    %al,-0xc(%ebp)
c010cecd:	0f b6 55 f4          	movzbl -0xc(%ebp),%edx
c010ced1:	8b 45 08             	mov    0x8(%ebp),%eax
c010ced4:	89 54 24 0c          	mov    %edx,0xc(%esp)
c010ced8:	8b 55 10             	mov    0x10(%ebp),%edx
c010cedb:	89 54 24 08          	mov    %edx,0x8(%esp)
c010cedf:	8b 55 0c             	mov    0xc(%ebp),%edx
c010cee2:	89 54 24 04          	mov    %edx,0x4(%esp)
c010cee6:	89 04 24             	mov    %eax,(%esp)
c010cee9:	e8 43 db ff ff       	call   c010aa31 <arch_map>
c010ceee:	c9                   	leave  
c010ceef:	c3                   	ret    

c010cef0 <vmm_unmap>:
c010cef0:	55                   	push   %ebp
c010cef1:	89 e5                	mov    %esp,%ebp
c010cef3:	83 ec 18             	sub    $0x18,%esp
c010cef6:	8b 45 08             	mov    0x8(%ebp),%eax
c010cef9:	8b 55 0c             	mov    0xc(%ebp),%edx
c010cefc:	89 54 24 04          	mov    %edx,0x4(%esp)
c010cf00:	89 04 24             	mov    %eax,(%esp)
c010cf03:	e8 53 dc ff ff       	call   c010ab5b <arch_unmap>
c010cf08:	c9                   	leave  
c010cf09:	c3                   	ret    

c010cf0a <vmm_map_range>:
c010cf0a:	55                   	push   %ebp
c010cf0b:	89 e5                	mov    %esp,%ebp
c010cf0d:	53                   	push   %ebx
c010cf0e:	83 ec 34             	sub    $0x34,%esp
c010cf11:	8b 45 18             	mov    0x18(%ebp),%eax
c010cf14:	88 45 e4             	mov    %al,-0x1c(%ebp)
c010cf17:	c7 45 f4 00 00 00 00 	movl   $0x0,-0xc(%ebp)
c010cf1e:	eb 39                	jmp    c010cf59 <vmm_map_range+0x4f>
c010cf20:	0f b6 45 e4          	movzbl -0x1c(%ebp),%eax
c010cf24:	8b 55 f4             	mov    -0xc(%ebp),%edx
c010cf27:	c1 e2 0c             	shl    $0xc,%edx
c010cf2a:	89 d1                	mov    %edx,%ecx
c010cf2c:	8b 55 10             	mov    0x10(%ebp),%edx
c010cf2f:	01 d1                	add    %edx,%ecx
c010cf31:	8b 55 f4             	mov    -0xc(%ebp),%edx
c010cf34:	c1 e2 0c             	shl    $0xc,%edx
c010cf37:	89 d3                	mov    %edx,%ebx
c010cf39:	8b 55 0c             	mov    0xc(%ebp),%edx
c010cf3c:	01 da                	add    %ebx,%edx
c010cf3e:	89 44 24 0c          	mov    %eax,0xc(%esp)
c010cf42:	89 4c 24 08          	mov    %ecx,0x8(%esp)
c010cf46:	89 54 24 04          	mov    %edx,0x4(%esp)
c010cf4a:	8b 45 08             	mov    0x8(%ebp),%eax
c010cf4d:	89 04 24             	mov    %eax,(%esp)
c010cf50:	e8 6c ff ff ff       	call   c010cec1 <vmm_map>
c010cf55:	83 45 f4 01          	addl   $0x1,-0xc(%ebp)
c010cf59:	8b 45 f4             	mov    -0xc(%ebp),%eax
c010cf5c:	3b 45 14             	cmp    0x14(%ebp),%eax
c010cf5f:	7c bf                	jl     c010cf20 <vmm_map_range+0x16>
c010cf61:	b8 00 00 00 00       	mov    $0x0,%eax
c010cf66:	83 c4 34             	add    $0x34,%esp
c010cf69:	5b                   	pop    %ebx
c010cf6a:	5d                   	pop    %ebp
c010cf6b:	c3                   	ret    

c010cf6c <vmm_unmap_range>:
c010cf6c:	55                   	push   %ebp
c010cf6d:	89 e5                	mov    %esp,%ebp
c010cf6f:	83 ec 28             	sub    $0x28,%esp
c010cf72:	c7 45 f4 00 00 00 00 	movl   $0x0,-0xc(%ebp)
c010cf79:	eb 20                	jmp    c010cf9b <vmm_unmap_range+0x2f>
c010cf7b:	8b 45 f4             	mov    -0xc(%ebp),%eax
c010cf7e:	c1 e0 0c             	shl    $0xc,%eax
c010cf81:	89 c2                	mov    %eax,%edx
c010cf83:	8b 45 0c             	mov    0xc(%ebp),%eax
c010cf86:	01 d0                	add    %edx,%eax
c010cf88:	89 44 24 04          	mov    %eax,0x4(%esp)
c010cf8c:	8b 45 08             	mov    0x8(%ebp),%eax
c010cf8f:	89 04 24             	mov    %eax,(%esp)
c010cf92:	e8 59 ff ff ff       	call   c010cef0 <vmm_unmap>
c010cf97:	83 45 f4 01          	addl   $0x1,-0xc(%ebp)
c010cf9b:	8b 45 f4             	mov    -0xc(%ebp),%eax
c010cf9e:	3b 45 10             	cmp    0x10(%ebp),%eax
c010cfa1:	7c d8                	jl     c010cf7b <vmm_unmap_range+0xf>
c010cfa3:	b8 00 00 00 00       	mov    $0x0,%eax
c010cfa8:	c9                   	leave  
c010cfa9:	c3                   	ret    

c010cfaa <vmm_automap_kernel>:
c010cfaa:	55                   	push   %ebp
c010cfab:	89 e5                	mov    %esp,%ebp
c010cfad:	83 ec 38             	sub    $0x38,%esp
c010cfb0:	8b 45 10             	mov    0x10(%ebp),%eax
c010cfb3:	88 45 e4             	mov    %al,-0x1c(%ebp)
c010cfb6:	0f b6 55 e4          	movzbl -0x1c(%ebp),%edx
c010cfba:	8b 45 08             	mov    0x8(%ebp),%eax
c010cfbd:	89 54 24 10          	mov    %edx,0x10(%esp)
c010cfc1:	c7 44 24 0c ff ff ff 	movl   $0xffffffff,0xc(%esp)
c010cfc8:	ff 
c010cfc9:	c7 44 24 08 00 00 00 	movl   $0xc2000000,0x8(%esp)
c010cfd0:	c2 
c010cfd1:	c7 44 24 04 01 00 00 	movl   $0x1,0x4(%esp)
c010cfd8:	00 
c010cfd9:	89 04 24             	mov    %eax,(%esp)
c010cfdc:	e8 1a dc ff ff       	call   c010abfb <arch_vaddr_find>
c010cfe1:	89 45 f4             	mov    %eax,-0xc(%ebp)
c010cfe4:	0f b6 45 e4          	movzbl -0x1c(%ebp),%eax
c010cfe8:	83 c8 01             	or     $0x1,%eax
c010cfeb:	0f b6 c0             	movzbl %al,%eax
c010cfee:	89 44 24 0c          	mov    %eax,0xc(%esp)
c010cff2:	8b 45 f4             	mov    -0xc(%ebp),%eax
c010cff5:	89 44 24 08          	mov    %eax,0x8(%esp)
c010cff9:	8b 45 0c             	mov    0xc(%ebp),%eax
c010cffc:	89 44 24 04          	mov    %eax,0x4(%esp)
c010d000:	8b 45 08             	mov    0x8(%ebp),%eax
c010d003:	89 04 24             	mov    %eax,(%esp)
c010d006:	e8 b6 fe ff ff       	call   c010cec1 <vmm_map>
c010d00b:	8b 45 f4             	mov    -0xc(%ebp),%eax
c010d00e:	c9                   	leave  
c010d00f:	c3                   	ret    

c010d010 <vmm_automap_kernel_range>:
c010d010:	55                   	push   %ebp
c010d011:	89 e5                	mov    %esp,%ebp
c010d013:	83 ec 38             	sub    $0x38,%esp
c010d016:	8b 45 14             	mov    0x14(%ebp),%eax
c010d019:	88 45 e4             	mov    %al,-0x1c(%ebp)
c010d01c:	0f b6 55 e4          	movzbl -0x1c(%ebp),%edx
c010d020:	8b 45 08             	mov    0x8(%ebp),%eax
c010d023:	89 54 24 10          	mov    %edx,0x10(%esp)
c010d027:	c7 44 24 0c ff ff ff 	movl   $0xffffffff,0xc(%esp)
c010d02e:	ff 
c010d02f:	c7 44 24 08 00 00 00 	movl   $0xc2000000,0x8(%esp)
c010d036:	c2 
c010d037:	8b 55 10             	mov    0x10(%ebp),%edx
c010d03a:	89 54 24 04          	mov    %edx,0x4(%esp)
c010d03e:	89 04 24             	mov    %eax,(%esp)
c010d041:	e8 b5 db ff ff       	call   c010abfb <arch_vaddr_find>
c010d046:	89 45 f0             	mov    %eax,-0x10(%ebp)
c010d049:	c7 45 f4 00 00 00 00 	movl   $0x0,-0xc(%ebp)
c010d050:	eb 45                	jmp    c010d097 <vmm_automap_kernel_range+0x87>
c010d052:	8b 45 f4             	mov    -0xc(%ebp),%eax
c010d055:	c1 e0 0c             	shl    $0xc,%eax
c010d058:	89 c2                	mov    %eax,%edx
c010d05a:	8b 45 0c             	mov    0xc(%ebp),%eax
c010d05d:	01 d0                	add    %edx,%eax
c010d05f:	89 45 ec             	mov    %eax,-0x14(%ebp)
c010d062:	8b 45 f4             	mov    -0xc(%ebp),%eax
c010d065:	c1 e0 0c             	shl    $0xc,%eax
c010d068:	89 c2                	mov    %eax,%edx
c010d06a:	8b 45 f0             	mov    -0x10(%ebp),%eax
c010d06d:	01 d0                	add    %edx,%eax
c010d06f:	89 45 e8             	mov    %eax,-0x18(%ebp)
c010d072:	0f b6 45 e4          	movzbl -0x1c(%ebp),%eax
c010d076:	89 44 24 0c          	mov    %eax,0xc(%esp)
c010d07a:	8b 45 e8             	mov    -0x18(%ebp),%eax
c010d07d:	89 44 24 08          	mov    %eax,0x8(%esp)
c010d081:	8b 45 ec             	mov    -0x14(%ebp),%eax
c010d084:	89 44 24 04          	mov    %eax,0x4(%esp)
c010d088:	8b 45 08             	mov    0x8(%ebp),%eax
c010d08b:	89 04 24             	mov    %eax,(%esp)
c010d08e:	e8 2e fe ff ff       	call   c010cec1 <vmm_map>
c010d093:	83 45 f4 01          	addl   $0x1,-0xc(%ebp)
c010d097:	8b 45 f4             	mov    -0xc(%ebp),%eax
c010d09a:	3b 45 10             	cmp    0x10(%ebp),%eax
c010d09d:	7c b3                	jl     c010d052 <vmm_automap_kernel_range+0x42>
c010d09f:	8b 45 f0             	mov    -0x10(%ebp),%eax
c010d0a2:	c9                   	leave  
c010d0a3:	c3                   	ret    

c010d0a4 <vmm_automap_user>:
c010d0a4:	55                   	push   %ebp
c010d0a5:	89 e5                	mov    %esp,%ebp
c010d0a7:	83 ec 38             	sub    $0x38,%esp
c010d0aa:	8b 45 10             	mov    0x10(%ebp),%eax
c010d0ad:	88 45 e4             	mov    %al,-0x1c(%ebp)
c010d0b0:	0f b6 55 e4          	movzbl -0x1c(%ebp),%edx
c010d0b4:	8b 45 08             	mov    0x8(%ebp),%eax
c010d0b7:	89 54 24 10          	mov    %edx,0x10(%esp)
c010d0bb:	c7 44 24 0c 00 00 00 	movl   $0xc0000000,0xc(%esp)
c010d0c2:	c0 
c010d0c3:	c7 44 24 08 00 00 00 	movl   $0x0,0x8(%esp)
c010d0ca:	00 
c010d0cb:	c7 44 24 04 01 00 00 	movl   $0x1,0x4(%esp)
c010d0d2:	00 
c010d0d3:	89 04 24             	mov    %eax,(%esp)
c010d0d6:	e8 20 db ff ff       	call   c010abfb <arch_vaddr_find>
c010d0db:	89 45 f4             	mov    %eax,-0xc(%ebp)
c010d0de:	0f b6 45 e4          	movzbl -0x1c(%ebp),%eax
c010d0e2:	83 c8 01             	or     $0x1,%eax
c010d0e5:	0f b6 c0             	movzbl %al,%eax
c010d0e8:	89 44 24 0c          	mov    %eax,0xc(%esp)
c010d0ec:	8b 45 f4             	mov    -0xc(%ebp),%eax
c010d0ef:	89 44 24 08          	mov    %eax,0x8(%esp)
c010d0f3:	8b 45 0c             	mov    0xc(%ebp),%eax
c010d0f6:	89 44 24 04          	mov    %eax,0x4(%esp)
c010d0fa:	8b 45 08             	mov    0x8(%ebp),%eax
c010d0fd:	89 04 24             	mov    %eax,(%esp)
c010d100:	e8 bc fd ff ff       	call   c010cec1 <vmm_map>
c010d105:	8b 45 f4             	mov    -0xc(%ebp),%eax
c010d108:	c9                   	leave  
c010d109:	c3                   	ret    

c010d10a <vmm_automap_user_range>:
c010d10a:	55                   	push   %ebp
c010d10b:	89 e5                	mov    %esp,%ebp
c010d10d:	83 ec 38             	sub    $0x38,%esp
c010d110:	8b 45 14             	mov    0x14(%ebp),%eax
c010d113:	88 45 e4             	mov    %al,-0x1c(%ebp)
c010d116:	0f b6 55 e4          	movzbl -0x1c(%ebp),%edx
c010d11a:	8b 45 08             	mov    0x8(%ebp),%eax
c010d11d:	89 54 24 10          	mov    %edx,0x10(%esp)
c010d121:	c7 44 24 0c 00 00 00 	movl   $0xc0000000,0xc(%esp)
c010d128:	c0 
c010d129:	c7 44 24 08 00 00 00 	movl   $0x0,0x8(%esp)
c010d130:	00 
c010d131:	8b 55 10             	mov    0x10(%ebp),%edx
c010d134:	89 54 24 04          	mov    %edx,0x4(%esp)
c010d138:	89 04 24             	mov    %eax,(%esp)
c010d13b:	e8 bb da ff ff       	call   c010abfb <arch_vaddr_find>
c010d140:	89 45 f0             	mov    %eax,-0x10(%ebp)
c010d143:	c7 45 f4 00 00 00 00 	movl   $0x0,-0xc(%ebp)
c010d14a:	eb 45                	jmp    c010d191 <vmm_automap_user_range+0x87>
c010d14c:	8b 45 f4             	mov    -0xc(%ebp),%eax
c010d14f:	c1 e0 0c             	shl    $0xc,%eax
c010d152:	89 c2                	mov    %eax,%edx
c010d154:	8b 45 0c             	mov    0xc(%ebp),%eax
c010d157:	01 d0                	add    %edx,%eax
c010d159:	89 45 ec             	mov    %eax,-0x14(%ebp)
c010d15c:	8b 45 f4             	mov    -0xc(%ebp),%eax
c010d15f:	c1 e0 0c             	shl    $0xc,%eax
c010d162:	89 c2                	mov    %eax,%edx
c010d164:	8b 45 f0             	mov    -0x10(%ebp),%eax
c010d167:	01 d0                	add    %edx,%eax
c010d169:	89 45 e8             	mov    %eax,-0x18(%ebp)
c010d16c:	0f b6 45 e4          	movzbl -0x1c(%ebp),%eax
c010d170:	89 44 24 0c          	mov    %eax,0xc(%esp)
c010d174:	8b 45 e8             	mov    -0x18(%ebp),%eax
c010d177:	89 44 24 08          	mov    %eax,0x8(%esp)
c010d17b:	8b 45 ec             	mov    -0x14(%ebp),%eax
c010d17e:	89 44 24 04          	mov    %eax,0x4(%esp)
c010d182:	8b 45 08             	mov    0x8(%ebp),%eax
c010d185:	89 04 24             	mov    %eax,(%esp)
c010d188:	e8 34 fd ff ff       	call   c010cec1 <vmm_map>
c010d18d:	83 45 f4 01          	addl   $0x1,-0xc(%ebp)
c010d191:	8b 45 f4             	mov    -0xc(%ebp),%eax
c010d194:	3b 45 10             	cmp    0x10(%ebp),%eax
c010d197:	7c b3                	jl     c010d14c <vmm_automap_user_range+0x42>
c010d199:	8b 45 f0             	mov    -0x10(%ebp),%eax
c010d19c:	c9                   	leave  
c010d19d:	c3                   	ret    

c010d19e <alloc_memory>:
c010d19e:	55                   	push   %ebp
c010d19f:	89 e5                	mov    %esp,%ebp
c010d1a1:	83 ec 48             	sub    $0x48,%esp
c010d1a4:	8b 45 08             	mov    0x8(%ebp),%eax
c010d1a7:	8b 00                	mov    (%eax),%eax
c010d1a9:	8b 40 1c             	mov    0x1c(%eax),%eax
c010d1ac:	89 45 f0             	mov    %eax,-0x10(%ebp)
c010d1af:	a1 60 49 11 c0       	mov    0xc0114960,%eax
c010d1b4:	c7 44 24 10 07 00 00 	movl   $0x7,0x10(%esp)
c010d1bb:	00 
c010d1bc:	c7 44 24 0c 00 00 00 	movl   $0xb0000000,0xc(%esp)
c010d1c3:	b0 
c010d1c4:	c7 44 24 08 00 00 00 	movl   $0xa0000000,0x8(%esp)
c010d1cb:	a0 
c010d1cc:	8b 55 f0             	mov    -0x10(%ebp),%edx
c010d1cf:	89 54 24 04          	mov    %edx,0x4(%esp)
c010d1d3:	89 04 24             	mov    %eax,(%esp)
c010d1d6:	e8 20 da ff ff       	call   c010abfb <arch_vaddr_find>
c010d1db:	89 45 ec             	mov    %eax,-0x14(%ebp)
c010d1de:	c7 45 f4 00 00 00 00 	movl   $0x0,-0xc(%ebp)
c010d1e5:	eb 3f                	jmp    c010d226 <alloc_memory+0x88>
c010d1e7:	e8 00 e0 ff ff       	call   c010b1ec <pmm_alloc_page>
c010d1ec:	89 45 e8             	mov    %eax,-0x18(%ebp)
c010d1ef:	8b 45 f4             	mov    -0xc(%ebp),%eax
c010d1f2:	c1 e0 0e             	shl    $0xe,%eax
c010d1f5:	89 c2                	mov    %eax,%edx
c010d1f7:	8b 45 ec             	mov    -0x14(%ebp),%eax
c010d1fa:	01 d0                	add    %edx,%eax
c010d1fc:	89 45 e4             	mov    %eax,-0x1c(%ebp)
c010d1ff:	8b 4d e4             	mov    -0x1c(%ebp),%ecx
c010d202:	8b 55 e8             	mov    -0x18(%ebp),%edx
c010d205:	a1 60 49 11 c0       	mov    0xc0114960,%eax
c010d20a:	c7 44 24 0c 07 00 00 	movl   $0x7,0xc(%esp)
c010d211:	00 
c010d212:	89 4c 24 08          	mov    %ecx,0x8(%esp)
c010d216:	89 54 24 04          	mov    %edx,0x4(%esp)
c010d21a:	89 04 24             	mov    %eax,(%esp)
c010d21d:	e8 9f fc ff ff       	call   c010cec1 <vmm_map>
c010d222:	83 45 f4 01          	addl   $0x1,-0xc(%ebp)
c010d226:	8b 45 f4             	mov    -0xc(%ebp),%eax
c010d229:	3b 45 f0             	cmp    -0x10(%ebp),%eax
c010d22c:	7c b9                	jl     c010d1e7 <alloc_memory+0x49>
c010d22e:	8b 45 08             	mov    0x8(%ebp),%eax
c010d231:	8b 00                	mov    (%eax),%eax
c010d233:	8b 55 ec             	mov    -0x14(%ebp),%edx
c010d236:	89 50 28             	mov    %edx,0x28(%eax)
c010d239:	c9                   	leave  
c010d23a:	c3                   	ret    
c010d23b:	66 90                	xchg   %ax,%ax
c010d23d:	66 90                	xchg   %ax,%ax
c010d23f:	90                   	nop

c010d240 <start>:
c010d240:	b9 00 30 11 00       	mov    $0x113000,%ecx
c010d245:	0f 22 d9             	mov    %ecx,%cr3
c010d248:	0f 20 e1             	mov    %cr4,%ecx
c010d24b:	83 c9 10             	or     $0x10,%ecx
c010d24e:	0f 22 e1             	mov    %ecx,%cr4
c010d251:	0f 20 c1             	mov    %cr0,%ecx
c010d254:	81 c9 00 00 00 80    	or     $0x80000000,%ecx
c010d25a:	0f 22 c1             	mov    %ecx,%cr0
c010d25d:	8d 0d 65 d2 10 c0    	lea    0xc010d265,%ecx
c010d263:	ff e1                	jmp    *%ecx

c010d265 <higherhalf>:
c010d265:	bc 00 60 11 c0       	mov    $0xc0116000,%esp
c010d26a:	81 c3 00 00 00 c0    	add    $0xc0000000,%ebx
c010d270:	6a 00                	push   $0x0
c010d272:	6a 00                	push   $0x0
c010d274:	50                   	push   %eax
c010d275:	53                   	push   %ebx
c010d276:	e8 11 f9 ff ff       	call   c010cb8c <init>
c010d27b:	eb fe                	jmp    c010d27b <higherhalf+0x16>
c010d27d:	66 90                	xchg   %ax,%ax
c010d27f:	90                   	nop

c010d280 <isr_0>:
c010d280:	6a 00                	push   $0x0
c010d282:	6a 00                	push   $0x0
c010d284:	e9 81 01 00 00       	jmp    c010d40a <isr_save>

c010d289 <isr_1>:
c010d289:	6a 00                	push   $0x0
c010d28b:	6a 01                	push   $0x1
c010d28d:	e9 78 01 00 00       	jmp    c010d40a <isr_save>

c010d292 <isr_2>:
c010d292:	6a 00                	push   $0x0
c010d294:	6a 02                	push   $0x2
c010d296:	e9 6f 01 00 00       	jmp    c010d40a <isr_save>

c010d29b <isr_3>:
c010d29b:	6a 00                	push   $0x0
c010d29d:	6a 03                	push   $0x3
c010d29f:	e9 66 01 00 00       	jmp    c010d40a <isr_save>

c010d2a4 <isr_4>:
c010d2a4:	6a 00                	push   $0x0
c010d2a6:	6a 04                	push   $0x4
c010d2a8:	e9 5d 01 00 00       	jmp    c010d40a <isr_save>

c010d2ad <isr_5>:
c010d2ad:	6a 00                	push   $0x0
c010d2af:	6a 05                	push   $0x5
c010d2b1:	e9 54 01 00 00       	jmp    c010d40a <isr_save>

c010d2b6 <isr_6>:
c010d2b6:	6a 00                	push   $0x0
c010d2b8:	6a 06                	push   $0x6
c010d2ba:	e9 4b 01 00 00       	jmp    c010d40a <isr_save>

c010d2bf <isr_7>:
c010d2bf:	6a 00                	push   $0x0
c010d2c1:	6a 07                	push   $0x7
c010d2c3:	e9 42 01 00 00       	jmp    c010d40a <isr_save>

c010d2c8 <isr_8>:
c010d2c8:	6a 08                	push   $0x8
c010d2ca:	e9 3b 01 00 00       	jmp    c010d40a <isr_save>

c010d2cf <isr_9>:
c010d2cf:	6a 00                	push   $0x0
c010d2d1:	6a 09                	push   $0x9
c010d2d3:	e9 32 01 00 00       	jmp    c010d40a <isr_save>

c010d2d8 <isr_10>:
c010d2d8:	6a 0a                	push   $0xa
c010d2da:	e9 2b 01 00 00       	jmp    c010d40a <isr_save>

c010d2df <isr_11>:
c010d2df:	6a 0b                	push   $0xb
c010d2e1:	e9 24 01 00 00       	jmp    c010d40a <isr_save>

c010d2e6 <isr_12>:
c010d2e6:	6a 0c                	push   $0xc
c010d2e8:	e9 1d 01 00 00       	jmp    c010d40a <isr_save>

c010d2ed <isr_13>:
c010d2ed:	6a 0d                	push   $0xd
c010d2ef:	e9 16 01 00 00       	jmp    c010d40a <isr_save>

c010d2f4 <isr_14>:
c010d2f4:	6a 0e                	push   $0xe
c010d2f6:	e9 0f 01 00 00       	jmp    c010d40a <isr_save>

c010d2fb <isr_15>:
c010d2fb:	6a 00                	push   $0x0
c010d2fd:	6a 0f                	push   $0xf
c010d2ff:	e9 06 01 00 00       	jmp    c010d40a <isr_save>

c010d304 <isr_16>:
c010d304:	6a 00                	push   $0x0
c010d306:	6a 10                	push   $0x10
c010d308:	e9 fd 00 00 00       	jmp    c010d40a <isr_save>

c010d30d <isr_17>:
c010d30d:	6a 11                	push   $0x11
c010d30f:	e9 f6 00 00 00       	jmp    c010d40a <isr_save>

c010d314 <isr_18>:
c010d314:	6a 00                	push   $0x0
c010d316:	6a 12                	push   $0x12
c010d318:	e9 ed 00 00 00       	jmp    c010d40a <isr_save>

c010d31d <isr_19>:
c010d31d:	6a 00                	push   $0x0
c010d31f:	6a 13                	push   $0x13
c010d321:	e9 e4 00 00 00       	jmp    c010d40a <isr_save>

c010d326 <isr_20>:
c010d326:	6a 00                	push   $0x0
c010d328:	6a 14                	push   $0x14
c010d32a:	e9 db 00 00 00       	jmp    c010d40a <isr_save>

c010d32f <isr_21>:
c010d32f:	6a 00                	push   $0x0
c010d331:	6a 15                	push   $0x15
c010d333:	e9 d2 00 00 00       	jmp    c010d40a <isr_save>

c010d338 <isr_22>:
c010d338:	6a 00                	push   $0x0
c010d33a:	6a 16                	push   $0x16
c010d33c:	e9 c9 00 00 00       	jmp    c010d40a <isr_save>

c010d341 <isr_23>:
c010d341:	6a 00                	push   $0x0
c010d343:	6a 17                	push   $0x17
c010d345:	e9 c0 00 00 00       	jmp    c010d40a <isr_save>

c010d34a <isr_24>:
c010d34a:	6a 00                	push   $0x0
c010d34c:	6a 18                	push   $0x18
c010d34e:	e9 b7 00 00 00       	jmp    c010d40a <isr_save>

c010d353 <isr_25>:
c010d353:	6a 00                	push   $0x0
c010d355:	6a 19                	push   $0x19
c010d357:	e9 ae 00 00 00       	jmp    c010d40a <isr_save>

c010d35c <isr_26>:
c010d35c:	6a 00                	push   $0x0
c010d35e:	6a 1a                	push   $0x1a
c010d360:	e9 a5 00 00 00       	jmp    c010d40a <isr_save>

c010d365 <isr_27>:
c010d365:	6a 00                	push   $0x0
c010d367:	6a 1b                	push   $0x1b
c010d369:	e9 9c 00 00 00       	jmp    c010d40a <isr_save>

c010d36e <isr_28>:
c010d36e:	6a 00                	push   $0x0
c010d370:	6a 1c                	push   $0x1c
c010d372:	e9 93 00 00 00       	jmp    c010d40a <isr_save>

c010d377 <isr_29>:
c010d377:	6a 00                	push   $0x0
c010d379:	6a 1d                	push   $0x1d
c010d37b:	e9 8a 00 00 00       	jmp    c010d40a <isr_save>

c010d380 <isr_30>:
c010d380:	6a 00                	push   $0x0
c010d382:	6a 1e                	push   $0x1e
c010d384:	e9 81 00 00 00       	jmp    c010d40a <isr_save>

c010d389 <isr_31>:
c010d389:	6a 00                	push   $0x0
c010d38b:	6a 1f                	push   $0x1f
c010d38d:	eb 7b                	jmp    c010d40a <isr_save>

c010d38f <isr_default>:
c010d38f:	6a ff                	push   $0xffffffff
c010d391:	6a ff                	push   $0xffffffff
c010d393:	eb 75                	jmp    c010d40a <isr_save>

c010d395 <isr_32>:
c010d395:	6a 00                	push   $0x0
c010d397:	6a 20                	push   $0x20
c010d399:	eb 6f                	jmp    c010d40a <isr_save>

c010d39b <isr_33>:
c010d39b:	6a 00                	push   $0x0
c010d39d:	6a 21                	push   $0x21
c010d39f:	eb 69                	jmp    c010d40a <isr_save>

c010d3a1 <isr_34>:
c010d3a1:	6a 00                	push   $0x0
c010d3a3:	6a 22                	push   $0x22
c010d3a5:	eb 63                	jmp    c010d40a <isr_save>

c010d3a7 <isr_35>:
c010d3a7:	6a 00                	push   $0x0
c010d3a9:	6a 23                	push   $0x23
c010d3ab:	eb 5d                	jmp    c010d40a <isr_save>

c010d3ad <isr_36>:
c010d3ad:	6a 00                	push   $0x0
c010d3af:	6a 24                	push   $0x24
c010d3b1:	eb 57                	jmp    c010d40a <isr_save>

c010d3b3 <isr_37>:
c010d3b3:	6a 00                	push   $0x0
c010d3b5:	6a 25                	push   $0x25
c010d3b7:	eb 51                	jmp    c010d40a <isr_save>

c010d3b9 <isr_38>:
c010d3b9:	6a 00                	push   $0x0
c010d3bb:	6a 26                	push   $0x26
c010d3bd:	eb 4b                	jmp    c010d40a <isr_save>

c010d3bf <isr_39>:
c010d3bf:	6a 00                	push   $0x0
c010d3c1:	6a 27                	push   $0x27
c010d3c3:	eb 45                	jmp    c010d40a <isr_save>

c010d3c5 <isr_40>:
c010d3c5:	6a 00                	push   $0x0
c010d3c7:	6a 28                	push   $0x28
c010d3c9:	eb 3f                	jmp    c010d40a <isr_save>

c010d3cb <isr_41>:
c010d3cb:	6a 00                	push   $0x0
c010d3cd:	6a 29                	push   $0x29
c010d3cf:	eb 39                	jmp    c010d40a <isr_save>

c010d3d1 <isr_42>:
c010d3d1:	6a 00                	push   $0x0
c010d3d3:	6a 2a                	push   $0x2a
c010d3d5:	eb 33                	jmp    c010d40a <isr_save>

c010d3d7 <isr_43>:
c010d3d7:	6a 00                	push   $0x0
c010d3d9:	6a 2b                	push   $0x2b
c010d3db:	eb 2d                	jmp    c010d40a <isr_save>

c010d3dd <isr_44>:
c010d3dd:	6a 00                	push   $0x0
c010d3df:	6a 2c                	push   $0x2c
c010d3e1:	eb 27                	jmp    c010d40a <isr_save>

c010d3e3 <isr_45>:
c010d3e3:	6a 00                	push   $0x0
c010d3e5:	6a 2d                	push   $0x2d
c010d3e7:	eb 21                	jmp    c010d40a <isr_save>

c010d3e9 <isr_46>:
c010d3e9:	6a 00                	push   $0x0
c010d3eb:	6a 2e                	push   $0x2e
c010d3ed:	eb 1b                	jmp    c010d40a <isr_save>

c010d3ef <isr_47>:
c010d3ef:	6a 00                	push   $0x0
c010d3f1:	6a 2f                	push   $0x2f
c010d3f3:	eb 15                	jmp    c010d40a <isr_save>

c010d3f5 <isr_112>:
c010d3f5:	6a 00                	push   $0x0
c010d3f7:	6a 70                	push   $0x70
c010d3f9:	eb 0f                	jmp    c010d40a <isr_save>

c010d3fb <isr_128>:
c010d3fb:	6a 00                	push   $0x0
c010d3fd:	68 80 00 00 00       	push   $0x80
c010d402:	eb 06                	jmp    c010d40a <isr_save>

c010d404 <isr_pci>:
c010d404:	6a 00                	push   $0x0
c010d406:	6a 32                	push   $0x32
c010d408:	eb 00                	jmp    c010d40a <isr_save>

c010d40a <isr_save>:
c010d40a:	50                   	push   %eax
c010d40b:	51                   	push   %ecx
c010d40c:	52                   	push   %edx
c010d40d:	53                   	push   %ebx
c010d40e:	55                   	push   %ebp
c010d40f:	56                   	push   %esi
c010d410:	57                   	push   %edi
c010d411:	1e                   	push   %ds
c010d412:	06                   	push   %es
c010d413:	0f a0                	push   %fs
c010d415:	0f a8                	push   %gs
c010d417:	66 ba 10 00          	mov    $0x10,%dx
c010d41b:	8e da                	mov    %edx,%ds
c010d41d:	8e c2                	mov    %edx,%es
c010d41f:	8e e2                	mov    %edx,%fs
c010d421:	8e ea                	mov    %edx,%gs
c010d423:	54                   	push   %esp
c010d424:	e8 96 c1 ff ff       	call   c01095bf <irq_handler>
c010d429:	89 c4                	mov    %eax,%esp
c010d42b:	0f a9                	pop    %gs
c010d42d:	0f a1                	pop    %fs
c010d42f:	07                   	pop    %es
c010d430:	1f                   	pop    %ds
c010d431:	5f                   	pop    %edi
c010d432:	5e                   	pop    %esi
c010d433:	5d                   	pop    %ebp
c010d434:	5b                   	pop    %ebx
c010d435:	5a                   	pop    %edx
c010d436:	59                   	pop    %ecx
c010d437:	58                   	pop    %eax
c010d438:	83 c4 08             	add    $0x8,%esp
c010d43b:	cf                   	iret   
